
Putty_test.elf:     file format elf32-littlearm

Sections:
Idx Name          Size      VMA       LMA       File off  Algn
  0 .isr_vector   00000298  08000000  08000000  00010000  2**0
                  CONTENTS, ALLOC, LOAD, READONLY, DATA
  1 .text         000072bc  080002a0  080002a0  000102a0  2**4
                  CONTENTS, ALLOC, LOAD, READONLY, CODE
  2 .rodata       0000014c  0800755c  0800755c  0001755c  2**2
                  CONTENTS, ALLOC, LOAD, READONLY, DATA
  3 .ARM.extab    00000000  080076a8  080076a8  00020074  2**0
                  CONTENTS
  4 .ARM          00000008  080076a8  080076a8  000176a8  2**2
                  CONTENTS, ALLOC, LOAD, READONLY, DATA
  5 .preinit_array 00000000  080076b0  080076b0  00020074  2**0
                  CONTENTS, ALLOC, LOAD, DATA
  6 .init_array   00000004  080076b0  080076b0  000176b0  2**2
                  CONTENTS, ALLOC, LOAD, DATA
  7 .fini_array   00000004  080076b4  080076b4  000176b4  2**2
                  CONTENTS, ALLOC, LOAD, DATA
  8 .data         00000074  24000000  080076b8  00020000  2**2
                  CONTENTS, ALLOC, LOAD, DATA
  9 .bss          000001f4  24000074  0800772c  00020074  2**2
                  ALLOC
 10 ._user_heap_stack 00000600  24000268  0800772c  00020268  2**0
                  ALLOC
 11 .ARM.attributes 0000002e  00000000  00000000  00020074  2**0
                  CONTENTS, READONLY
 12 .debug_info   00019808  00000000  00000000  000200a2  2**0
                  CONTENTS, READONLY, DEBUGGING
 13 .debug_abbrev 000026de  00000000  00000000  000398aa  2**0
                  CONTENTS, READONLY, DEBUGGING
 14 .debug_aranges 00000db8  00000000  00000000  0003bf88  2**3
                  CONTENTS, READONLY, DEBUGGING
 15 .debug_ranges 00000cc0  00000000  00000000  0003cd40  2**3
                  CONTENTS, READONLY, DEBUGGING
 16 .debug_macro  00037549  00000000  00000000  0003da00  2**0
                  CONTENTS, READONLY, DEBUGGING
 17 .debug_line   0000afe5  00000000  00000000  00074f49  2**0
                  CONTENTS, READONLY, DEBUGGING
 18 .debug_str    0015f815  00000000  00000000  0007ff2e  2**0
                  CONTENTS, READONLY, DEBUGGING
 19 .comment      0000007b  00000000  00000000  001df743  2**0
                  CONTENTS, READONLY
 20 .debug_frame  000041bc  00000000  00000000  001df7c0  2**2
                  CONTENTS, READONLY, DEBUGGING

Disassembly of section .text:

080002a0 <__do_global_dtors_aux>:
 80002a0:	b510      	push	{r4, lr}
 80002a2:	4c05      	ldr	r4, [pc, #20]	; (80002b8 <__do_global_dtors_aux+0x18>)
 80002a4:	7823      	ldrb	r3, [r4, #0]
 80002a6:	b933      	cbnz	r3, 80002b6 <__do_global_dtors_aux+0x16>
 80002a8:	4b04      	ldr	r3, [pc, #16]	; (80002bc <__do_global_dtors_aux+0x1c>)
 80002aa:	b113      	cbz	r3, 80002b2 <__do_global_dtors_aux+0x12>
 80002ac:	4804      	ldr	r0, [pc, #16]	; (80002c0 <__do_global_dtors_aux+0x20>)
 80002ae:	f3af 8000 	nop.w
 80002b2:	2301      	movs	r3, #1
 80002b4:	7023      	strb	r3, [r4, #0]
 80002b6:	bd10      	pop	{r4, pc}
 80002b8:	24000074 	.word	0x24000074
 80002bc:	00000000 	.word	0x00000000
 80002c0:	08007544 	.word	0x08007544

080002c4 <frame_dummy>:
 80002c4:	b508      	push	{r3, lr}
 80002c6:	4b03      	ldr	r3, [pc, #12]	; (80002d4 <frame_dummy+0x10>)
 80002c8:	b11b      	cbz	r3, 80002d2 <frame_dummy+0xe>
 80002ca:	4903      	ldr	r1, [pc, #12]	; (80002d8 <frame_dummy+0x14>)
 80002cc:	4803      	ldr	r0, [pc, #12]	; (80002dc <frame_dummy+0x18>)
 80002ce:	f3af 8000 	nop.w
 80002d2:	bd08      	pop	{r3, pc}
 80002d4:	00000000 	.word	0x00000000
 80002d8:	24000078 	.word	0x24000078
 80002dc:	08007544 	.word	0x08007544

080002e0 <memchr>:
 80002e0:	f001 01ff 	and.w	r1, r1, #255	; 0xff
 80002e4:	2a10      	cmp	r2, #16
 80002e6:	db2b      	blt.n	8000340 <memchr+0x60>
 80002e8:	f010 0f07 	tst.w	r0, #7
 80002ec:	d008      	beq.n	8000300 <memchr+0x20>
 80002ee:	f810 3b01 	ldrb.w	r3, [r0], #1
 80002f2:	3a01      	subs	r2, #1
 80002f4:	428b      	cmp	r3, r1
 80002f6:	d02d      	beq.n	8000354 <memchr+0x74>
 80002f8:	f010 0f07 	tst.w	r0, #7
 80002fc:	b342      	cbz	r2, 8000350 <memchr+0x70>
 80002fe:	d1f6      	bne.n	80002ee <memchr+0xe>
 8000300:	b4f0      	push	{r4, r5, r6, r7}
 8000302:	ea41 2101 	orr.w	r1, r1, r1, lsl #8
 8000306:	ea41 4101 	orr.w	r1, r1, r1, lsl #16
 800030a:	f022 0407 	bic.w	r4, r2, #7
 800030e:	f07f 0700 	mvns.w	r7, #0
 8000312:	2300      	movs	r3, #0
 8000314:	e8f0 5602 	ldrd	r5, r6, [r0], #8
 8000318:	3c08      	subs	r4, #8
 800031a:	ea85 0501 	eor.w	r5, r5, r1
 800031e:	ea86 0601 	eor.w	r6, r6, r1
 8000322:	fa85 f547 	uadd8	r5, r5, r7
 8000326:	faa3 f587 	sel	r5, r3, r7
 800032a:	fa86 f647 	uadd8	r6, r6, r7
 800032e:	faa5 f687 	sel	r6, r5, r7
 8000332:	b98e      	cbnz	r6, 8000358 <memchr+0x78>
 8000334:	d1ee      	bne.n	8000314 <memchr+0x34>
 8000336:	bcf0      	pop	{r4, r5, r6, r7}
 8000338:	f001 01ff 	and.w	r1, r1, #255	; 0xff
 800033c:	f002 0207 	and.w	r2, r2, #7
 8000340:	b132      	cbz	r2, 8000350 <memchr+0x70>
 8000342:	f810 3b01 	ldrb.w	r3, [r0], #1
 8000346:	3a01      	subs	r2, #1
 8000348:	ea83 0301 	eor.w	r3, r3, r1
 800034c:	b113      	cbz	r3, 8000354 <memchr+0x74>
 800034e:	d1f8      	bne.n	8000342 <memchr+0x62>
 8000350:	2000      	movs	r0, #0
 8000352:	4770      	bx	lr
 8000354:	3801      	subs	r0, #1
 8000356:	4770      	bx	lr
 8000358:	2d00      	cmp	r5, #0
 800035a:	bf06      	itte	eq
 800035c:	4635      	moveq	r5, r6
 800035e:	3803      	subeq	r0, #3
 8000360:	3807      	subne	r0, #7
 8000362:	f015 0f01 	tst.w	r5, #1
 8000366:	d107      	bne.n	8000378 <memchr+0x98>
 8000368:	3001      	adds	r0, #1
 800036a:	f415 7f80 	tst.w	r5, #256	; 0x100
 800036e:	bf02      	ittt	eq
 8000370:	3001      	addeq	r0, #1
 8000372:	f415 3fc0 	tsteq.w	r5, #98304	; 0x18000
 8000376:	3001      	addeq	r0, #1
 8000378:	bcf0      	pop	{r4, r5, r6, r7}
 800037a:	3801      	subs	r0, #1
 800037c:	4770      	bx	lr
 800037e:	bf00      	nop

08000380 <__aeabi_uldivmod>:
 8000380:	b953      	cbnz	r3, 8000398 <__aeabi_uldivmod+0x18>
 8000382:	b94a      	cbnz	r2, 8000398 <__aeabi_uldivmod+0x18>
 8000384:	2900      	cmp	r1, #0
 8000386:	bf08      	it	eq
 8000388:	2800      	cmpeq	r0, #0
 800038a:	bf1c      	itt	ne
 800038c:	f04f 31ff 	movne.w	r1, #4294967295
 8000390:	f04f 30ff 	movne.w	r0, #4294967295
 8000394:	f000 b972 	b.w	800067c <__aeabi_idiv0>
 8000398:	f1ad 0c08 	sub.w	ip, sp, #8
 800039c:	e96d ce04 	strd	ip, lr, [sp, #-16]!
 80003a0:	f000 f806 	bl	80003b0 <__udivmoddi4>
 80003a4:	f8dd e004 	ldr.w	lr, [sp, #4]
 80003a8:	e9dd 2302 	ldrd	r2, r3, [sp, #8]
 80003ac:	b004      	add	sp, #16
 80003ae:	4770      	bx	lr

080003b0 <__udivmoddi4>:
 80003b0:	e92d 47f0 	stmdb	sp!, {r4, r5, r6, r7, r8, r9, sl, lr}
 80003b4:	9e08      	ldr	r6, [sp, #32]
 80003b6:	4604      	mov	r4, r0
 80003b8:	4688      	mov	r8, r1
 80003ba:	2b00      	cmp	r3, #0
 80003bc:	d14b      	bne.n	8000456 <__udivmoddi4+0xa6>
 80003be:	428a      	cmp	r2, r1
 80003c0:	4615      	mov	r5, r2
 80003c2:	d967      	bls.n	8000494 <__udivmoddi4+0xe4>
 80003c4:	fab2 f282 	clz	r2, r2
 80003c8:	b14a      	cbz	r2, 80003de <__udivmoddi4+0x2e>
 80003ca:	f1c2 0720 	rsb	r7, r2, #32
 80003ce:	fa01 f302 	lsl.w	r3, r1, r2
 80003d2:	fa20 f707 	lsr.w	r7, r0, r7
 80003d6:	4095      	lsls	r5, r2
 80003d8:	ea47 0803 	orr.w	r8, r7, r3
 80003dc:	4094      	lsls	r4, r2
 80003de:	ea4f 4e15 	mov.w	lr, r5, lsr #16
 80003e2:	0c23      	lsrs	r3, r4, #16
 80003e4:	fbb8 f7fe 	udiv	r7, r8, lr
 80003e8:	fa1f fc85 	uxth.w	ip, r5
 80003ec:	fb0e 8817 	mls	r8, lr, r7, r8
 80003f0:	ea43 4308 	orr.w	r3, r3, r8, lsl #16
 80003f4:	fb07 f10c 	mul.w	r1, r7, ip
 80003f8:	4299      	cmp	r1, r3
 80003fa:	d909      	bls.n	8000410 <__udivmoddi4+0x60>
 80003fc:	18eb      	adds	r3, r5, r3
 80003fe:	f107 30ff 	add.w	r0, r7, #4294967295
 8000402:	f080 811b 	bcs.w	800063c <__udivmoddi4+0x28c>
 8000406:	4299      	cmp	r1, r3
 8000408:	f240 8118 	bls.w	800063c <__udivmoddi4+0x28c>
 800040c:	3f02      	subs	r7, #2
 800040e:	442b      	add	r3, r5
 8000410:	1a5b      	subs	r3, r3, r1
 8000412:	b2a4      	uxth	r4, r4
 8000414:	fbb3 f0fe 	udiv	r0, r3, lr
 8000418:	fb0e 3310 	mls	r3, lr, r0, r3
 800041c:	ea44 4403 	orr.w	r4, r4, r3, lsl #16
 8000420:	fb00 fc0c 	mul.w	ip, r0, ip
 8000424:	45a4      	cmp	ip, r4
 8000426:	d909      	bls.n	800043c <__udivmoddi4+0x8c>
 8000428:	192c      	adds	r4, r5, r4
 800042a:	f100 33ff 	add.w	r3, r0, #4294967295
 800042e:	f080 8107 	bcs.w	8000640 <__udivmoddi4+0x290>
 8000432:	45a4      	cmp	ip, r4
 8000434:	f240 8104 	bls.w	8000640 <__udivmoddi4+0x290>
 8000438:	3802      	subs	r0, #2
 800043a:	442c      	add	r4, r5
 800043c:	ea40 4007 	orr.w	r0, r0, r7, lsl #16
 8000440:	eba4 040c 	sub.w	r4, r4, ip
 8000444:	2700      	movs	r7, #0
 8000446:	b11e      	cbz	r6, 8000450 <__udivmoddi4+0xa0>
 8000448:	40d4      	lsrs	r4, r2
 800044a:	2300      	movs	r3, #0
 800044c:	e9c6 4300 	strd	r4, r3, [r6]
 8000450:	4639      	mov	r1, r7
 8000452:	e8bd 87f0 	ldmia.w	sp!, {r4, r5, r6, r7, r8, r9, sl, pc}
 8000456:	428b      	cmp	r3, r1
 8000458:	d909      	bls.n	800046e <__udivmoddi4+0xbe>
 800045a:	2e00      	cmp	r6, #0
 800045c:	f000 80eb 	beq.w	8000636 <__udivmoddi4+0x286>
 8000460:	2700      	movs	r7, #0
 8000462:	e9c6 0100 	strd	r0, r1, [r6]
 8000466:	4638      	mov	r0, r7
 8000468:	4639      	mov	r1, r7
 800046a:	e8bd 87f0 	ldmia.w	sp!, {r4, r5, r6, r7, r8, r9, sl, pc}
 800046e:	fab3 f783 	clz	r7, r3
 8000472:	2f00      	cmp	r7, #0
 8000474:	d147      	bne.n	8000506 <__udivmoddi4+0x156>
 8000476:	428b      	cmp	r3, r1
 8000478:	d302      	bcc.n	8000480 <__udivmoddi4+0xd0>
 800047a:	4282      	cmp	r2, r0
 800047c:	f200 80fa 	bhi.w	8000674 <__udivmoddi4+0x2c4>
 8000480:	1a84      	subs	r4, r0, r2
 8000482:	eb61 0303 	sbc.w	r3, r1, r3
 8000486:	2001      	movs	r0, #1
 8000488:	4698      	mov	r8, r3
 800048a:	2e00      	cmp	r6, #0
 800048c:	d0e0      	beq.n	8000450 <__udivmoddi4+0xa0>
 800048e:	e9c6 4800 	strd	r4, r8, [r6]
 8000492:	e7dd      	b.n	8000450 <__udivmoddi4+0xa0>
 8000494:	b902      	cbnz	r2, 8000498 <__udivmoddi4+0xe8>
 8000496:	deff      	udf	#255	; 0xff
 8000498:	fab2 f282 	clz	r2, r2
 800049c:	2a00      	cmp	r2, #0
 800049e:	f040 808f 	bne.w	80005c0 <__udivmoddi4+0x210>
 80004a2:	1b49      	subs	r1, r1, r5
 80004a4:	ea4f 4e15 	mov.w	lr, r5, lsr #16
 80004a8:	fa1f f885 	uxth.w	r8, r5
 80004ac:	2701      	movs	r7, #1
 80004ae:	fbb1 fcfe 	udiv	ip, r1, lr
 80004b2:	0c23      	lsrs	r3, r4, #16
 80004b4:	fb0e 111c 	mls	r1, lr, ip, r1
 80004b8:	ea43 4301 	orr.w	r3, r3, r1, lsl #16
 80004bc:	fb08 f10c 	mul.w	r1, r8, ip
 80004c0:	4299      	cmp	r1, r3
 80004c2:	d907      	bls.n	80004d4 <__udivmoddi4+0x124>
 80004c4:	18eb      	adds	r3, r5, r3
 80004c6:	f10c 30ff 	add.w	r0, ip, #4294967295
 80004ca:	d202      	bcs.n	80004d2 <__udivmoddi4+0x122>
 80004cc:	4299      	cmp	r1, r3
 80004ce:	f200 80cd 	bhi.w	800066c <__udivmoddi4+0x2bc>
 80004d2:	4684      	mov	ip, r0
 80004d4:	1a59      	subs	r1, r3, r1
 80004d6:	b2a3      	uxth	r3, r4
 80004d8:	fbb1 f0fe 	udiv	r0, r1, lr
 80004dc:	fb0e 1410 	mls	r4, lr, r0, r1
 80004e0:	ea43 4404 	orr.w	r4, r3, r4, lsl #16
 80004e4:	fb08 f800 	mul.w	r8, r8, r0
 80004e8:	45a0      	cmp	r8, r4
 80004ea:	d907      	bls.n	80004fc <__udivmoddi4+0x14c>
 80004ec:	192c      	adds	r4, r5, r4
 80004ee:	f100 33ff 	add.w	r3, r0, #4294967295
 80004f2:	d202      	bcs.n	80004fa <__udivmoddi4+0x14a>
 80004f4:	45a0      	cmp	r8, r4
 80004f6:	f200 80b6 	bhi.w	8000666 <__udivmoddi4+0x2b6>
 80004fa:	4618      	mov	r0, r3
 80004fc:	eba4 0408 	sub.w	r4, r4, r8
 8000500:	ea40 400c 	orr.w	r0, r0, ip, lsl #16
 8000504:	e79f      	b.n	8000446 <__udivmoddi4+0x96>
 8000506:	f1c7 0c20 	rsb	ip, r7, #32
 800050a:	40bb      	lsls	r3, r7
 800050c:	fa22 fe0c 	lsr.w	lr, r2, ip
 8000510:	ea4e 0e03 	orr.w	lr, lr, r3
 8000514:	fa01 f407 	lsl.w	r4, r1, r7
 8000518:	fa20 f50c 	lsr.w	r5, r0, ip
 800051c:	fa21 f30c 	lsr.w	r3, r1, ip
 8000520:	ea4f 481e 	mov.w	r8, lr, lsr #16
 8000524:	4325      	orrs	r5, r4
 8000526:	fbb3 f9f8 	udiv	r9, r3, r8
 800052a:	0c2c      	lsrs	r4, r5, #16
 800052c:	fb08 3319 	mls	r3, r8, r9, r3
 8000530:	fa1f fa8e 	uxth.w	sl, lr
 8000534:	ea44 4303 	orr.w	r3, r4, r3, lsl #16
 8000538:	fb09 f40a 	mul.w	r4, r9, sl
 800053c:	429c      	cmp	r4, r3
 800053e:	fa02 f207 	lsl.w	r2, r2, r7
 8000542:	fa00 f107 	lsl.w	r1, r0, r7
 8000546:	d90b      	bls.n	8000560 <__udivmoddi4+0x1b0>
 8000548:	eb1e 0303 	adds.w	r3, lr, r3
 800054c:	f109 30ff 	add.w	r0, r9, #4294967295
 8000550:	f080 8087 	bcs.w	8000662 <__udivmoddi4+0x2b2>
 8000554:	429c      	cmp	r4, r3
 8000556:	f240 8084 	bls.w	8000662 <__udivmoddi4+0x2b2>
 800055a:	f1a9 0902 	sub.w	r9, r9, #2
 800055e:	4473      	add	r3, lr
 8000560:	1b1b      	subs	r3, r3, r4
 8000562:	b2ad      	uxth	r5, r5
 8000564:	fbb3 f0f8 	udiv	r0, r3, r8
 8000568:	fb08 3310 	mls	r3, r8, r0, r3
 800056c:	ea45 4403 	orr.w	r4, r5, r3, lsl #16
 8000570:	fb00 fa0a 	mul.w	sl, r0, sl
 8000574:	45a2      	cmp	sl, r4
 8000576:	d908      	bls.n	800058a <__udivmoddi4+0x1da>
 8000578:	eb1e 0404 	adds.w	r4, lr, r4
 800057c:	f100 33ff 	add.w	r3, r0, #4294967295
 8000580:	d26b      	bcs.n	800065a <__udivmoddi4+0x2aa>
 8000582:	45a2      	cmp	sl, r4
 8000584:	d969      	bls.n	800065a <__udivmoddi4+0x2aa>
 8000586:	3802      	subs	r0, #2
 8000588:	4474      	add	r4, lr
 800058a:	ea40 4009 	orr.w	r0, r0, r9, lsl #16
 800058e:	fba0 8902 	umull	r8, r9, r0, r2
 8000592:	eba4 040a 	sub.w	r4, r4, sl
 8000596:	454c      	cmp	r4, r9
 8000598:	46c2      	mov	sl, r8
 800059a:	464b      	mov	r3, r9
 800059c:	d354      	bcc.n	8000648 <__udivmoddi4+0x298>
 800059e:	d051      	beq.n	8000644 <__udivmoddi4+0x294>
 80005a0:	2e00      	cmp	r6, #0
 80005a2:	d069      	beq.n	8000678 <__udivmoddi4+0x2c8>
 80005a4:	ebb1 050a 	subs.w	r5, r1, sl
 80005a8:	eb64 0403 	sbc.w	r4, r4, r3
 80005ac:	fa04 fc0c 	lsl.w	ip, r4, ip
 80005b0:	40fd      	lsrs	r5, r7
 80005b2:	40fc      	lsrs	r4, r7
 80005b4:	ea4c 0505 	orr.w	r5, ip, r5
 80005b8:	e9c6 5400 	strd	r5, r4, [r6]
 80005bc:	2700      	movs	r7, #0
 80005be:	e747      	b.n	8000450 <__udivmoddi4+0xa0>
 80005c0:	f1c2 0320 	rsb	r3, r2, #32
 80005c4:	fa20 f703 	lsr.w	r7, r0, r3
 80005c8:	4095      	lsls	r5, r2
 80005ca:	fa01 f002 	lsl.w	r0, r1, r2
 80005ce:	fa21 f303 	lsr.w	r3, r1, r3
 80005d2:	ea4f 4e15 	mov.w	lr, r5, lsr #16
 80005d6:	4338      	orrs	r0, r7
 80005d8:	0c01      	lsrs	r1, r0, #16
 80005da:	fbb3 f7fe 	udiv	r7, r3, lr
 80005de:	fa1f f885 	uxth.w	r8, r5
 80005e2:	fb0e 3317 	mls	r3, lr, r7, r3
 80005e6:	ea41 4103 	orr.w	r1, r1, r3, lsl #16
 80005ea:	fb07 f308 	mul.w	r3, r7, r8
 80005ee:	428b      	cmp	r3, r1
 80005f0:	fa04 f402 	lsl.w	r4, r4, r2
 80005f4:	d907      	bls.n	8000606 <__udivmoddi4+0x256>
 80005f6:	1869      	adds	r1, r5, r1
 80005f8:	f107 3cff 	add.w	ip, r7, #4294967295
 80005fc:	d22f      	bcs.n	800065e <__udivmoddi4+0x2ae>
 80005fe:	428b      	cmp	r3, r1
 8000600:	d92d      	bls.n	800065e <__udivmoddi4+0x2ae>
 8000602:	3f02      	subs	r7, #2
 8000604:	4429      	add	r1, r5
 8000606:	1acb      	subs	r3, r1, r3
 8000608:	b281      	uxth	r1, r0
 800060a:	fbb3 f0fe 	udiv	r0, r3, lr
 800060e:	fb0e 3310 	mls	r3, lr, r0, r3
 8000612:	ea41 4103 	orr.w	r1, r1, r3, lsl #16
 8000616:	fb00 f308 	mul.w	r3, r0, r8
 800061a:	428b      	cmp	r3, r1
 800061c:	d907      	bls.n	800062e <__udivmoddi4+0x27e>
 800061e:	1869      	adds	r1, r5, r1
 8000620:	f100 3cff 	add.w	ip, r0, #4294967295
 8000624:	d217      	bcs.n	8000656 <__udivmoddi4+0x2a6>
 8000626:	428b      	cmp	r3, r1
 8000628:	d915      	bls.n	8000656 <__udivmoddi4+0x2a6>
 800062a:	3802      	subs	r0, #2
 800062c:	4429      	add	r1, r5
 800062e:	1ac9      	subs	r1, r1, r3
 8000630:	ea40 4707 	orr.w	r7, r0, r7, lsl #16
 8000634:	e73b      	b.n	80004ae <__udivmoddi4+0xfe>
 8000636:	4637      	mov	r7, r6
 8000638:	4630      	mov	r0, r6
 800063a:	e709      	b.n	8000450 <__udivmoddi4+0xa0>
 800063c:	4607      	mov	r7, r0
 800063e:	e6e7      	b.n	8000410 <__udivmoddi4+0x60>
 8000640:	4618      	mov	r0, r3
 8000642:	e6fb      	b.n	800043c <__udivmoddi4+0x8c>
 8000644:	4541      	cmp	r1, r8
 8000646:	d2ab      	bcs.n	80005a0 <__udivmoddi4+0x1f0>
 8000648:	ebb8 0a02 	subs.w	sl, r8, r2
 800064c:	eb69 020e 	sbc.w	r2, r9, lr
 8000650:	3801      	subs	r0, #1
 8000652:	4613      	mov	r3, r2
 8000654:	e7a4      	b.n	80005a0 <__udivmoddi4+0x1f0>
 8000656:	4660      	mov	r0, ip
 8000658:	e7e9      	b.n	800062e <__udivmoddi4+0x27e>
 800065a:	4618      	mov	r0, r3
 800065c:	e795      	b.n	800058a <__udivmoddi4+0x1da>
 800065e:	4667      	mov	r7, ip
 8000660:	e7d1      	b.n	8000606 <__udivmoddi4+0x256>
 8000662:	4681      	mov	r9, r0
 8000664:	e77c      	b.n	8000560 <__udivmoddi4+0x1b0>
 8000666:	3802      	subs	r0, #2
 8000668:	442c      	add	r4, r5
 800066a:	e747      	b.n	80004fc <__udivmoddi4+0x14c>
 800066c:	f1ac 0c02 	sub.w	ip, ip, #2
 8000670:	442b      	add	r3, r5
 8000672:	e72f      	b.n	80004d4 <__udivmoddi4+0x124>
 8000674:	4638      	mov	r0, r7
 8000676:	e708      	b.n	800048a <__udivmoddi4+0xda>
 8000678:	4637      	mov	r7, r6
 800067a:	e6e9      	b.n	8000450 <__udivmoddi4+0xa0>

0800067c <__aeabi_idiv0>:
 800067c:	4770      	bx	lr
 800067e:	bf00      	nop

08000680 <main>:
/**
  * @brief  The application entry point.
  * @retval int
  */
int main(void)
{
 8000680:	b580      	push	{r7, lr}
 8000682:	af00      	add	r7, sp, #0
  /* USER CODE BEGIN 1 */
	printf("Starting!");
 8000684:	480b      	ldr	r0, [pc, #44]	; (80006b4 <main+0x34>)
 8000686:	f005 ff79 	bl	800657c <iprintf>
  /* USER CODE END 1 */

  /* MCU Configuration--------------------------------------------------------*/

  /* Reset of all peripherals, Initializes the Flash interface and the Systick. */
  HAL_Init();
 800068a:	f000 fdcb 	bl	8001224 <HAL_Init>
  /* USER CODE BEGIN Init */

  /* USER CODE END Init */

  /* Configure the system clock */
  SystemClock_Config();
 800068e:	f000 f815 	bl	80006bc <SystemClock_Config>
  /* USER CODE BEGIN SysInit */

  /* USER CODE END SysInit */

  /* Initialize all configured peripherals */
  MX_GPIO_Init();
 8000692:	f000 f97f 	bl	8000994 <MX_GPIO_Init>
  MX_USART3_UART_Init();
 8000696:	f000 f931 	bl	80008fc <MX_USART3_UART_Init>
  MX_FDCAN1_Init();
 800069a:	f000 f8c9 	bl	8000830 <MX_FDCAN1_Init>
  /* USER CODE BEGIN 2 */
  FDCAN_Config();
 800069e:	f000 faab 	bl	8000bf8 <FDCAN_Config>
  RetargetInit(&huart3);
 80006a2:	4805      	ldr	r0, [pc, #20]	; (80006b8 <main+0x38>)
 80006a4:	f000 fb1e 	bl	8000ce4 <RetargetInit>
  /* Infinite loop */
  /* USER CODE BEGIN WHILE */
  while (1)
  {

	  HAL_Delay(500);
 80006a8:	f44f 70fa 	mov.w	r0, #500	; 0x1f4
 80006ac:	f000 fe4c 	bl	8001348 <HAL_Delay>
 80006b0:	e7fa      	b.n	80006a8 <main+0x28>
 80006b2:	bf00      	nop
 80006b4:	0800755c 	.word	0x0800755c
 80006b8:	2400009c 	.word	0x2400009c

080006bc <SystemClock_Config>:
/**
  * @brief System Clock Configuration
  * @retval None
  */
void SystemClock_Config(void)
{
 80006bc:	b580      	push	{r7, lr}
 80006be:	b0cc      	sub	sp, #304	; 0x130
 80006c0:	af00      	add	r7, sp, #0
  RCC_OscInitTypeDef RCC_OscInitStruct = {0};
 80006c2:	f107 03e4 	add.w	r3, r7, #228	; 0xe4
 80006c6:	224c      	movs	r2, #76	; 0x4c
 80006c8:	2100      	movs	r1, #0
 80006ca:	4618      	mov	r0, r3
 80006cc:	f005 ff4d 	bl	800656a <memset>
  RCC_ClkInitTypeDef RCC_ClkInitStruct = {0};
 80006d0:	f107 03c4 	add.w	r3, r7, #196	; 0xc4
 80006d4:	2220      	movs	r2, #32
 80006d6:	2100      	movs	r1, #0
 80006d8:	4618      	mov	r0, r3
 80006da:	f005 ff46 	bl	800656a <memset>
  RCC_PeriphCLKInitTypeDef PeriphClkInitStruct = {0};
 80006de:	f107 0308 	add.w	r3, r7, #8
 80006e2:	4618      	mov	r0, r3
 80006e4:	23bc      	movs	r3, #188	; 0xbc
 80006e6:	461a      	mov	r2, r3
 80006e8:	2100      	movs	r1, #0
 80006ea:	f005 ff3e 	bl	800656a <memset>

  /** Supply configuration update enable
  */
  HAL_PWREx_ConfigSupply(PWR_LDO_SUPPLY);
 80006ee:	2002      	movs	r0, #2
 80006f0:	f002 fa4a 	bl	8002b88 <HAL_PWREx_ConfigSupply>
  /** Configure the main internal regulator output voltage
  */
  __HAL_PWR_VOLTAGESCALING_CONFIG(PWR_REGULATOR_VOLTAGE_SCALE3);
 80006f4:	1d3b      	adds	r3, r7, #4
 80006f6:	2200      	movs	r2, #0
 80006f8:	601a      	str	r2, [r3, #0]
 80006fa:	4b4b      	ldr	r3, [pc, #300]	; (8000828 <SystemClock_Config+0x16c>)
 80006fc:	6adb      	ldr	r3, [r3, #44]	; 0x2c
 80006fe:	4a4a      	ldr	r2, [pc, #296]	; (8000828 <SystemClock_Config+0x16c>)
 8000700:	f023 0301 	bic.w	r3, r3, #1
 8000704:	62d3      	str	r3, [r2, #44]	; 0x2c
 8000706:	4b48      	ldr	r3, [pc, #288]	; (8000828 <SystemClock_Config+0x16c>)
 8000708:	6adb      	ldr	r3, [r3, #44]	; 0x2c
 800070a:	f003 0201 	and.w	r2, r3, #1
 800070e:	1d3b      	adds	r3, r7, #4
 8000710:	601a      	str	r2, [r3, #0]
 8000712:	4b46      	ldr	r3, [pc, #280]	; (800082c <SystemClock_Config+0x170>)
 8000714:	699b      	ldr	r3, [r3, #24]
 8000716:	f423 4340 	bic.w	r3, r3, #49152	; 0xc000
 800071a:	4a44      	ldr	r2, [pc, #272]	; (800082c <SystemClock_Config+0x170>)
 800071c:	f443 4380 	orr.w	r3, r3, #16384	; 0x4000
 8000720:	6193      	str	r3, [r2, #24]
 8000722:	4b42      	ldr	r3, [pc, #264]	; (800082c <SystemClock_Config+0x170>)
 8000724:	699b      	ldr	r3, [r3, #24]
 8000726:	f403 4240 	and.w	r2, r3, #49152	; 0xc000
 800072a:	1d3b      	adds	r3, r7, #4
 800072c:	601a      	str	r2, [r3, #0]
 800072e:	1d3b      	adds	r3, r7, #4
 8000730:	681b      	ldr	r3, [r3, #0]

  while(!__HAL_PWR_GET_FLAG(PWR_FLAG_VOSRDY)) {}
 8000732:	bf00      	nop
 8000734:	4b3d      	ldr	r3, [pc, #244]	; (800082c <SystemClock_Config+0x170>)
 8000736:	699b      	ldr	r3, [r3, #24]
 8000738:	f403 5300 	and.w	r3, r3, #8192	; 0x2000
 800073c:	f5b3 5f00 	cmp.w	r3, #8192	; 0x2000
 8000740:	d1f8      	bne.n	8000734 <SystemClock_Config+0x78>
  /** Initializes the RCC Oscillators according to the specified parameters
  * in the RCC_OscInitTypeDef structure.
  */
  RCC_OscInitStruct.OscillatorType = RCC_OSCILLATORTYPE_HSI;
 8000742:	2302      	movs	r3, #2
 8000744:	f8c7 30e4 	str.w	r3, [r7, #228]	; 0xe4
  RCC_OscInitStruct.HSIState = RCC_HSI_DIV1;
 8000748:	2301      	movs	r3, #1
 800074a:	f8c7 30f0 	str.w	r3, [r7, #240]	; 0xf0
  RCC_OscInitStruct.HSICalibrationValue = RCC_HSICALIBRATION_DEFAULT;
 800074e:	2340      	movs	r3, #64	; 0x40
 8000750:	f8c7 30f4 	str.w	r3, [r7, #244]	; 0xf4
  RCC_OscInitStruct.PLL.PLLState = RCC_PLL_ON;
 8000754:	2302      	movs	r3, #2
 8000756:	f8c7 3108 	str.w	r3, [r7, #264]	; 0x108
  RCC_OscInitStruct.PLL.PLLSource = RCC_PLLSOURCE_HSI;
 800075a:	2300      	movs	r3, #0
 800075c:	f8c7 310c 	str.w	r3, [r7, #268]	; 0x10c
  RCC_OscInitStruct.PLL.PLLM = 4;
 8000760:	2304      	movs	r3, #4
 8000762:	f8c7 3110 	str.w	r3, [r7, #272]	; 0x110
  RCC_OscInitStruct.PLL.PLLN = 9;
 8000766:	2309      	movs	r3, #9
 8000768:	f8c7 3114 	str.w	r3, [r7, #276]	; 0x114
  RCC_OscInitStruct.PLL.PLLP = 2;
 800076c:	2302      	movs	r3, #2
 800076e:	f8c7 3118 	str.w	r3, [r7, #280]	; 0x118
  RCC_OscInitStruct.PLL.PLLQ = 2;
 8000772:	2302      	movs	r3, #2
 8000774:	f8c7 311c 	str.w	r3, [r7, #284]	; 0x11c
  RCC_OscInitStruct.PLL.PLLR = 2;
 8000778:	2302      	movs	r3, #2
 800077a:	f8c7 3120 	str.w	r3, [r7, #288]	; 0x120
  RCC_OscInitStruct.PLL.PLLRGE = RCC_PLL1VCIRANGE_3;
 800077e:	230c      	movs	r3, #12
 8000780:	f8c7 3124 	str.w	r3, [r7, #292]	; 0x124
  RCC_OscInitStruct.PLL.PLLVCOSEL = RCC_PLL1VCOMEDIUM;
 8000784:	2302      	movs	r3, #2
 8000786:	f8c7 3128 	str.w	r3, [r7, #296]	; 0x128
  RCC_OscInitStruct.PLL.PLLFRACN = 3072;
 800078a:	f44f 6340 	mov.w	r3, #3072	; 0xc00
 800078e:	f8c7 312c 	str.w	r3, [r7, #300]	; 0x12c
  if (HAL_RCC_OscConfig(&RCC_OscInitStruct) != HAL_OK)
 8000792:	f107 03e4 	add.w	r3, r7, #228	; 0xe4
 8000796:	4618      	mov	r0, r3
 8000798:	f002 fa30 	bl	8002bfc <HAL_RCC_OscConfig>
 800079c:	4603      	mov	r3, r0
 800079e:	2b00      	cmp	r3, #0
 80007a0:	d001      	beq.n	80007a6 <SystemClock_Config+0xea>
  {
    Error_Handler();
 80007a2:	f000 fa97 	bl	8000cd4 <Error_Handler>
  }
  /** Initializes the CPU, AHB and APB buses clocks
  */
  RCC_ClkInitStruct.ClockType = RCC_CLOCKTYPE_HCLK|RCC_CLOCKTYPE_SYSCLK
 80007a6:	233f      	movs	r3, #63	; 0x3f
 80007a8:	f8c7 30c4 	str.w	r3, [r7, #196]	; 0xc4
                              |RCC_CLOCKTYPE_PCLK1|RCC_CLOCKTYPE_PCLK2
                              |RCC_CLOCKTYPE_D3PCLK1|RCC_CLOCKTYPE_D1PCLK1;
  RCC_ClkInitStruct.SYSCLKSource = RCC_SYSCLKSOURCE_HSI;
 80007ac:	2300      	movs	r3, #0
 80007ae:	f8c7 30c8 	str.w	r3, [r7, #200]	; 0xc8
  RCC_ClkInitStruct.SYSCLKDivider = RCC_SYSCLK_DIV1;
 80007b2:	2300      	movs	r3, #0
 80007b4:	f8c7 30cc 	str.w	r3, [r7, #204]	; 0xcc
  RCC_ClkInitStruct.AHBCLKDivider = RCC_HCLK_DIV1;
 80007b8:	2300      	movs	r3, #0
 80007ba:	f8c7 30d0 	str.w	r3, [r7, #208]	; 0xd0
  RCC_ClkInitStruct.APB3CLKDivider = RCC_APB3_DIV1;
 80007be:	2300      	movs	r3, #0
 80007c0:	f8c7 30d4 	str.w	r3, [r7, #212]	; 0xd4
  RCC_ClkInitStruct.APB1CLKDivider = RCC_APB1_DIV1;
 80007c4:	2300      	movs	r3, #0
 80007c6:	f8c7 30d8 	str.w	r3, [r7, #216]	; 0xd8
  RCC_ClkInitStruct.APB2CLKDivider = RCC_APB2_DIV1;
 80007ca:	2300      	movs	r3, #0
 80007cc:	f8c7 30dc 	str.w	r3, [r7, #220]	; 0xdc
  RCC_ClkInitStruct.APB4CLKDivider = RCC_APB4_DIV1;
 80007d0:	2300      	movs	r3, #0
 80007d2:	f8c7 30e0 	str.w	r3, [r7, #224]	; 0xe0

  if (HAL_RCC_ClockConfig(&RCC_ClkInitStruct, FLASH_LATENCY_0) != HAL_OK)
 80007d6:	f107 03c4 	add.w	r3, r7, #196	; 0xc4
 80007da:	2100      	movs	r1, #0
 80007dc:	4618      	mov	r0, r3
 80007de:	f002 fe1d 	bl	800341c <HAL_RCC_ClockConfig>
 80007e2:	4603      	mov	r3, r0
 80007e4:	2b00      	cmp	r3, #0
 80007e6:	d001      	beq.n	80007ec <SystemClock_Config+0x130>
  {
    Error_Handler();
 80007e8:	f000 fa74 	bl	8000cd4 <Error_Handler>
  }
  PeriphClkInitStruct.PeriphClockSelection = RCC_PERIPHCLK_USART3|RCC_PERIPHCLK_FDCAN;
 80007ec:	f107 0308 	add.w	r3, r7, #8
 80007f0:	f248 0202 	movw	r2, #32770	; 0x8002
 80007f4:	601a      	str	r2, [r3, #0]
  PeriphClkInitStruct.FdcanClockSelection = RCC_FDCANCLKSOURCE_PLL;
 80007f6:	f107 0308 	add.w	r3, r7, #8
 80007fa:	f04f 5280 	mov.w	r2, #268435456	; 0x10000000
 80007fe:	66da      	str	r2, [r3, #108]	; 0x6c
  PeriphClkInitStruct.Usart234578ClockSelection = RCC_USART234578CLKSOURCE_D2PCLK1;
 8000800:	f107 0308 	add.w	r3, r7, #8
 8000804:	2200      	movs	r2, #0
 8000806:	675a      	str	r2, [r3, #116]	; 0x74
  if (HAL_RCCEx_PeriphCLKConfig(&PeriphClkInitStruct) != HAL_OK)
 8000808:	f107 0308 	add.w	r3, r7, #8
 800080c:	4618      	mov	r0, r3
 800080e:	f003 f989 	bl	8003b24 <HAL_RCCEx_PeriphCLKConfig>
 8000812:	4603      	mov	r3, r0
 8000814:	2b00      	cmp	r3, #0
 8000816:	d001      	beq.n	800081c <SystemClock_Config+0x160>
  {
    Error_Handler();
 8000818:	f000 fa5c 	bl	8000cd4 <Error_Handler>
  }
}
 800081c:	bf00      	nop
 800081e:	f507 7798 	add.w	r7, r7, #304	; 0x130
 8000822:	46bd      	mov	sp, r7
 8000824:	bd80      	pop	{r7, pc}
 8000826:	bf00      	nop
 8000828:	58000400 	.word	0x58000400
 800082c:	58024800 	.word	0x58024800

08000830 <MX_FDCAN1_Init>:
  * @brief FDCAN1 Initialization Function
  * @param None
  * @retval None
  */
static void MX_FDCAN1_Init(void)
{
 8000830:	b580      	push	{r7, lr}
 8000832:	af00      	add	r7, sp, #0
  /* USER CODE END FDCAN1_Init 0 */

  /* USER CODE BEGIN FDCAN1_Init 1 */

  /* USER CODE END FDCAN1_Init 1 */
  hfdcan1.Instance = FDCAN1;
 8000834:	4b2f      	ldr	r3, [pc, #188]	; (80008f4 <MX_FDCAN1_Init+0xc4>)
 8000836:	4a30      	ldr	r2, [pc, #192]	; (80008f8 <MX_FDCAN1_Init+0xc8>)
 8000838:	601a      	str	r2, [r3, #0]
  hfdcan1.Init.FrameFormat = FDCAN_FRAME_FD_BRS;
 800083a:	4b2e      	ldr	r3, [pc, #184]	; (80008f4 <MX_FDCAN1_Init+0xc4>)
 800083c:	f44f 7240 	mov.w	r2, #768	; 0x300
 8000840:	609a      	str	r2, [r3, #8]
  hfdcan1.Init.Mode = FDCAN_MODE_NORMAL;
 8000842:	4b2c      	ldr	r3, [pc, #176]	; (80008f4 <MX_FDCAN1_Init+0xc4>)
 8000844:	2200      	movs	r2, #0
 8000846:	60da      	str	r2, [r3, #12]
  hfdcan1.Init.AutoRetransmission = DISABLE;
 8000848:	4b2a      	ldr	r3, [pc, #168]	; (80008f4 <MX_FDCAN1_Init+0xc4>)
 800084a:	2200      	movs	r2, #0
 800084c:	741a      	strb	r2, [r3, #16]
  hfdcan1.Init.TransmitPause = DISABLE;
 800084e:	4b29      	ldr	r3, [pc, #164]	; (80008f4 <MX_FDCAN1_Init+0xc4>)
 8000850:	2200      	movs	r2, #0
 8000852:	745a      	strb	r2, [r3, #17]
  hfdcan1.Init.ProtocolException = DISABLE;
 8000854:	4b27      	ldr	r3, [pc, #156]	; (80008f4 <MX_FDCAN1_Init+0xc4>)
 8000856:	2200      	movs	r2, #0
 8000858:	749a      	strb	r2, [r3, #18]
  hfdcan1.Init.NominalPrescaler = 1;
 800085a:	4b26      	ldr	r3, [pc, #152]	; (80008f4 <MX_FDCAN1_Init+0xc4>)
 800085c:	2201      	movs	r2, #1
 800085e:	615a      	str	r2, [r3, #20]
  hfdcan1.Init.NominalSyncJumpWidth = 1;
 8000860:	4b24      	ldr	r3, [pc, #144]	; (80008f4 <MX_FDCAN1_Init+0xc4>)
 8000862:	2201      	movs	r2, #1
 8000864:	619a      	str	r2, [r3, #24]
  hfdcan1.Init.NominalTimeSeg1 = 63;
 8000866:	4b23      	ldr	r3, [pc, #140]	; (80008f4 <MX_FDCAN1_Init+0xc4>)
 8000868:	223f      	movs	r2, #63	; 0x3f
 800086a:	61da      	str	r2, [r3, #28]
  hfdcan1.Init.NominalTimeSeg2 = 16;
 800086c:	4b21      	ldr	r3, [pc, #132]	; (80008f4 <MX_FDCAN1_Init+0xc4>)
 800086e:	2210      	movs	r2, #16
 8000870:	621a      	str	r2, [r3, #32]
  hfdcan1.Init.DataPrescaler = 1;
 8000872:	4b20      	ldr	r3, [pc, #128]	; (80008f4 <MX_FDCAN1_Init+0xc4>)
 8000874:	2201      	movs	r2, #1
 8000876:	625a      	str	r2, [r3, #36]	; 0x24
  hfdcan1.Init.DataSyncJumpWidth = 1;
 8000878:	4b1e      	ldr	r3, [pc, #120]	; (80008f4 <MX_FDCAN1_Init+0xc4>)
 800087a:	2201      	movs	r2, #1
 800087c:	629a      	str	r2, [r3, #40]	; 0x28
  hfdcan1.Init.DataTimeSeg1 = 63;
 800087e:	4b1d      	ldr	r3, [pc, #116]	; (80008f4 <MX_FDCAN1_Init+0xc4>)
 8000880:	223f      	movs	r2, #63	; 0x3f
 8000882:	62da      	str	r2, [r3, #44]	; 0x2c
  hfdcan1.Init.DataTimeSeg2 = 16;
 8000884:	4b1b      	ldr	r3, [pc, #108]	; (80008f4 <MX_FDCAN1_Init+0xc4>)
 8000886:	2210      	movs	r2, #16
 8000888:	631a      	str	r2, [r3, #48]	; 0x30
  hfdcan1.Init.MessageRAMOffset = 0;
 800088a:	4b1a      	ldr	r3, [pc, #104]	; (80008f4 <MX_FDCAN1_Init+0xc4>)
 800088c:	2200      	movs	r2, #0
 800088e:	635a      	str	r2, [r3, #52]	; 0x34
  hfdcan1.Init.StdFiltersNbr = 2;
 8000890:	4b18      	ldr	r3, [pc, #96]	; (80008f4 <MX_FDCAN1_Init+0xc4>)
 8000892:	2202      	movs	r2, #2
 8000894:	639a      	str	r2, [r3, #56]	; 0x38
  hfdcan1.Init.ExtFiltersNbr = 2;
 8000896:	4b17      	ldr	r3, [pc, #92]	; (80008f4 <MX_FDCAN1_Init+0xc4>)
 8000898:	2202      	movs	r2, #2
 800089a:	63da      	str	r2, [r3, #60]	; 0x3c
  hfdcan1.Init.RxFifo0ElmtsNbr = 10;
 800089c:	4b15      	ldr	r3, [pc, #84]	; (80008f4 <MX_FDCAN1_Init+0xc4>)
 800089e:	220a      	movs	r2, #10
 80008a0:	641a      	str	r2, [r3, #64]	; 0x40
  hfdcan1.Init.RxFifo0ElmtSize = FDCAN_DATA_BYTES_64;
 80008a2:	4b14      	ldr	r3, [pc, #80]	; (80008f4 <MX_FDCAN1_Init+0xc4>)
 80008a4:	2212      	movs	r2, #18
 80008a6:	645a      	str	r2, [r3, #68]	; 0x44
  hfdcan1.Init.RxFifo1ElmtsNbr = 0;
 80008a8:	4b12      	ldr	r3, [pc, #72]	; (80008f4 <MX_FDCAN1_Init+0xc4>)
 80008aa:	2200      	movs	r2, #0
 80008ac:	649a      	str	r2, [r3, #72]	; 0x48
  hfdcan1.Init.RxFifo1ElmtSize = FDCAN_DATA_BYTES_8;
 80008ae:	4b11      	ldr	r3, [pc, #68]	; (80008f4 <MX_FDCAN1_Init+0xc4>)
 80008b0:	2204      	movs	r2, #4
 80008b2:	64da      	str	r2, [r3, #76]	; 0x4c
  hfdcan1.Init.RxBuffersNbr = 0;
 80008b4:	4b0f      	ldr	r3, [pc, #60]	; (80008f4 <MX_FDCAN1_Init+0xc4>)
 80008b6:	2200      	movs	r2, #0
 80008b8:	651a      	str	r2, [r3, #80]	; 0x50
  hfdcan1.Init.RxBufferSize = FDCAN_DATA_BYTES_8;
 80008ba:	4b0e      	ldr	r3, [pc, #56]	; (80008f4 <MX_FDCAN1_Init+0xc4>)
 80008bc:	2204      	movs	r2, #4
 80008be:	655a      	str	r2, [r3, #84]	; 0x54
  hfdcan1.Init.TxEventsNbr = 0;
 80008c0:	4b0c      	ldr	r3, [pc, #48]	; (80008f4 <MX_FDCAN1_Init+0xc4>)
 80008c2:	2200      	movs	r2, #0
 80008c4:	659a      	str	r2, [r3, #88]	; 0x58
  hfdcan1.Init.TxBuffersNbr = 0;
 80008c6:	4b0b      	ldr	r3, [pc, #44]	; (80008f4 <MX_FDCAN1_Init+0xc4>)
 80008c8:	2200      	movs	r2, #0
 80008ca:	65da      	str	r2, [r3, #92]	; 0x5c
  hfdcan1.Init.TxFifoQueueElmtsNbr = 0;
 80008cc:	4b09      	ldr	r3, [pc, #36]	; (80008f4 <MX_FDCAN1_Init+0xc4>)
 80008ce:	2200      	movs	r2, #0
 80008d0:	661a      	str	r2, [r3, #96]	; 0x60
  hfdcan1.Init.TxFifoQueueMode = FDCAN_TX_FIFO_OPERATION;
 80008d2:	4b08      	ldr	r3, [pc, #32]	; (80008f4 <MX_FDCAN1_Init+0xc4>)
 80008d4:	2200      	movs	r2, #0
 80008d6:	665a      	str	r2, [r3, #100]	; 0x64
  hfdcan1.Init.TxElmtSize = FDCAN_DATA_BYTES_8;
 80008d8:	4b06      	ldr	r3, [pc, #24]	; (80008f4 <MX_FDCAN1_Init+0xc4>)
 80008da:	2204      	movs	r2, #4
 80008dc:	669a      	str	r2, [r3, #104]	; 0x68
  if (HAL_FDCAN_Init(&hfdcan1) != HAL_OK)
 80008de:	4805      	ldr	r0, [pc, #20]	; (80008f4 <MX_FDCAN1_Init+0xc4>)
 80008e0:	f000 fe70 	bl	80015c4 <HAL_FDCAN_Init>
 80008e4:	4603      	mov	r3, r0
 80008e6:	2b00      	cmp	r3, #0
 80008e8:	d001      	beq.n	80008ee <MX_FDCAN1_Init+0xbe>
  {
    Error_Handler();
 80008ea:	f000 f9f3 	bl	8000cd4 <Error_Handler>
  }
  /* USER CODE BEGIN FDCAN1_Init 2 */

  /* USER CODE END FDCAN1_Init 2 */

}
 80008ee:	bf00      	nop
 80008f0:	bd80      	pop	{r7, pc}
 80008f2:	bf00      	nop
 80008f4:	24000128 	.word	0x24000128
 80008f8:	4000a000 	.word	0x4000a000

080008fc <MX_USART3_UART_Init>:
  * @brief USART3 Initialization Function
  * @param None
  * @retval None
  */
static void MX_USART3_UART_Init(void)
{
 80008fc:	b580      	push	{r7, lr}
 80008fe:	af00      	add	r7, sp, #0
  /* USER CODE END USART3_Init 0 */

  /* USER CODE BEGIN USART3_Init 1 */

  /* USER CODE END USART3_Init 1 */
  huart3.Instance = USART3;
 8000900:	4b22      	ldr	r3, [pc, #136]	; (800098c <MX_USART3_UART_Init+0x90>)
 8000902:	4a23      	ldr	r2, [pc, #140]	; (8000990 <MX_USART3_UART_Init+0x94>)
 8000904:	601a      	str	r2, [r3, #0]
  huart3.Init.BaudRate = 115200;
 8000906:	4b21      	ldr	r3, [pc, #132]	; (800098c <MX_USART3_UART_Init+0x90>)
 8000908:	f44f 32e1 	mov.w	r2, #115200	; 0x1c200
 800090c:	605a      	str	r2, [r3, #4]
  huart3.Init.WordLength = UART_WORDLENGTH_8B;
 800090e:	4b1f      	ldr	r3, [pc, #124]	; (800098c <MX_USART3_UART_Init+0x90>)
 8000910:	2200      	movs	r2, #0
 8000912:	609a      	str	r2, [r3, #8]
  huart3.Init.StopBits = UART_STOPBITS_1;
 8000914:	4b1d      	ldr	r3, [pc, #116]	; (800098c <MX_USART3_UART_Init+0x90>)
 8000916:	2200      	movs	r2, #0
 8000918:	60da      	str	r2, [r3, #12]
  huart3.Init.Parity = UART_PARITY_NONE;
 800091a:	4b1c      	ldr	r3, [pc, #112]	; (800098c <MX_USART3_UART_Init+0x90>)
 800091c:	2200      	movs	r2, #0
 800091e:	611a      	str	r2, [r3, #16]
  huart3.Init.Mode = UART_MODE_TX_RX;
 8000920:	4b1a      	ldr	r3, [pc, #104]	; (800098c <MX_USART3_UART_Init+0x90>)
 8000922:	220c      	movs	r2, #12
 8000924:	615a      	str	r2, [r3, #20]
  huart3.Init.HwFlowCtl = UART_HWCONTROL_NONE;
 8000926:	4b19      	ldr	r3, [pc, #100]	; (800098c <MX_USART3_UART_Init+0x90>)
 8000928:	2200      	movs	r2, #0
 800092a:	619a      	str	r2, [r3, #24]
  huart3.Init.OverSampling = UART_OVERSAMPLING_16;
 800092c:	4b17      	ldr	r3, [pc, #92]	; (800098c <MX_USART3_UART_Init+0x90>)
 800092e:	2200      	movs	r2, #0
 8000930:	61da      	str	r2, [r3, #28]
  huart3.Init.OneBitSampling = UART_ONE_BIT_SAMPLE_DISABLE;
 8000932:	4b16      	ldr	r3, [pc, #88]	; (800098c <MX_USART3_UART_Init+0x90>)
 8000934:	2200      	movs	r2, #0
 8000936:	621a      	str	r2, [r3, #32]
  huart3.Init.ClockPrescaler = UART_PRESCALER_DIV1;
 8000938:	4b14      	ldr	r3, [pc, #80]	; (800098c <MX_USART3_UART_Init+0x90>)
 800093a:	2200      	movs	r2, #0
 800093c:	625a      	str	r2, [r3, #36]	; 0x24
  huart3.AdvancedInit.AdvFeatureInit = UART_ADVFEATURE_NO_INIT;
 800093e:	4b13      	ldr	r3, [pc, #76]	; (800098c <MX_USART3_UART_Init+0x90>)
 8000940:	2200      	movs	r2, #0
 8000942:	629a      	str	r2, [r3, #40]	; 0x28
  if (HAL_UART_Init(&huart3) != HAL_OK)
 8000944:	4811      	ldr	r0, [pc, #68]	; (800098c <MX_USART3_UART_Init+0x90>)
 8000946:	f004 fbed 	bl	8005124 <HAL_UART_Init>
 800094a:	4603      	mov	r3, r0
 800094c:	2b00      	cmp	r3, #0
 800094e:	d001      	beq.n	8000954 <MX_USART3_UART_Init+0x58>
  {
    Error_Handler();
 8000950:	f000 f9c0 	bl	8000cd4 <Error_Handler>
  }
  if (HAL_UARTEx_SetTxFifoThreshold(&huart3, UART_TXFIFO_THRESHOLD_1_8) != HAL_OK)
 8000954:	2100      	movs	r1, #0
 8000956:	480d      	ldr	r0, [pc, #52]	; (800098c <MX_USART3_UART_Init+0x90>)
 8000958:	f005 fced 	bl	8006336 <HAL_UARTEx_SetTxFifoThreshold>
 800095c:	4603      	mov	r3, r0
 800095e:	2b00      	cmp	r3, #0
 8000960:	d001      	beq.n	8000966 <MX_USART3_UART_Init+0x6a>
  {
    Error_Handler();
 8000962:	f000 f9b7 	bl	8000cd4 <Error_Handler>
  }
  if (HAL_UARTEx_SetRxFifoThreshold(&huart3, UART_RXFIFO_THRESHOLD_1_8) != HAL_OK)
 8000966:	2100      	movs	r1, #0
 8000968:	4808      	ldr	r0, [pc, #32]	; (800098c <MX_USART3_UART_Init+0x90>)
 800096a:	f005 fd22 	bl	80063b2 <HAL_UARTEx_SetRxFifoThreshold>
 800096e:	4603      	mov	r3, r0
 8000970:	2b00      	cmp	r3, #0
 8000972:	d001      	beq.n	8000978 <MX_USART3_UART_Init+0x7c>
  {
    Error_Handler();
 8000974:	f000 f9ae 	bl	8000cd4 <Error_Handler>
  }
  if (HAL_UARTEx_DisableFifoMode(&huart3) != HAL_OK)
 8000978:	4804      	ldr	r0, [pc, #16]	; (800098c <MX_USART3_UART_Init+0x90>)
 800097a:	f005 fca3 	bl	80062c4 <HAL_UARTEx_DisableFifoMode>
 800097e:	4603      	mov	r3, r0
 8000980:	2b00      	cmp	r3, #0
 8000982:	d001      	beq.n	8000988 <MX_USART3_UART_Init+0x8c>
  {
    Error_Handler();
 8000984:	f000 f9a6 	bl	8000cd4 <Error_Handler>
  }
  /* USER CODE BEGIN USART3_Init 2 */

  /* USER CODE END USART3_Init 2 */

}
 8000988:	bf00      	nop
 800098a:	bd80      	pop	{r7, pc}
 800098c:	2400009c 	.word	0x2400009c
 8000990:	40004800 	.word	0x40004800

08000994 <MX_GPIO_Init>:
  * @brief GPIO Initialization Function
  * @param None
  * @retval None
  */
static void MX_GPIO_Init(void)
{
 8000994:	b580      	push	{r7, lr}
 8000996:	b08c      	sub	sp, #48	; 0x30
 8000998:	af00      	add	r7, sp, #0
  GPIO_InitTypeDef GPIO_InitStruct = {0};
 800099a:	f107 031c 	add.w	r3, r7, #28
 800099e:	2200      	movs	r2, #0
 80009a0:	601a      	str	r2, [r3, #0]
 80009a2:	605a      	str	r2, [r3, #4]
 80009a4:	609a      	str	r2, [r3, #8]
 80009a6:	60da      	str	r2, [r3, #12]
 80009a8:	611a      	str	r2, [r3, #16]

  /* GPIO Ports Clock Enable */
  __HAL_RCC_GPIOC_CLK_ENABLE();
 80009aa:	4b8b      	ldr	r3, [pc, #556]	; (8000bd8 <MX_GPIO_Init+0x244>)
 80009ac:	f8d3 30e0 	ldr.w	r3, [r3, #224]	; 0xe0
 80009b0:	4a89      	ldr	r2, [pc, #548]	; (8000bd8 <MX_GPIO_Init+0x244>)
 80009b2:	f043 0304 	orr.w	r3, r3, #4
 80009b6:	f8c2 30e0 	str.w	r3, [r2, #224]	; 0xe0
 80009ba:	4b87      	ldr	r3, [pc, #540]	; (8000bd8 <MX_GPIO_Init+0x244>)
 80009bc:	f8d3 30e0 	ldr.w	r3, [r3, #224]	; 0xe0
 80009c0:	f003 0304 	and.w	r3, r3, #4
 80009c4:	61bb      	str	r3, [r7, #24]
 80009c6:	69bb      	ldr	r3, [r7, #24]
  __HAL_RCC_GPIOH_CLK_ENABLE();
 80009c8:	4b83      	ldr	r3, [pc, #524]	; (8000bd8 <MX_GPIO_Init+0x244>)
 80009ca:	f8d3 30e0 	ldr.w	r3, [r3, #224]	; 0xe0
 80009ce:	4a82      	ldr	r2, [pc, #520]	; (8000bd8 <MX_GPIO_Init+0x244>)
 80009d0:	f043 0380 	orr.w	r3, r3, #128	; 0x80
 80009d4:	f8c2 30e0 	str.w	r3, [r2, #224]	; 0xe0
 80009d8:	4b7f      	ldr	r3, [pc, #508]	; (8000bd8 <MX_GPIO_Init+0x244>)
 80009da:	f8d3 30e0 	ldr.w	r3, [r3, #224]	; 0xe0
 80009de:	f003 0380 	and.w	r3, r3, #128	; 0x80
 80009e2:	617b      	str	r3, [r7, #20]
 80009e4:	697b      	ldr	r3, [r7, #20]
  __HAL_RCC_GPIOA_CLK_ENABLE();
 80009e6:	4b7c      	ldr	r3, [pc, #496]	; (8000bd8 <MX_GPIO_Init+0x244>)
 80009e8:	f8d3 30e0 	ldr.w	r3, [r3, #224]	; 0xe0
 80009ec:	4a7a      	ldr	r2, [pc, #488]	; (8000bd8 <MX_GPIO_Init+0x244>)
 80009ee:	f043 0301 	orr.w	r3, r3, #1
 80009f2:	f8c2 30e0 	str.w	r3, [r2, #224]	; 0xe0
 80009f6:	4b78      	ldr	r3, [pc, #480]	; (8000bd8 <MX_GPIO_Init+0x244>)
 80009f8:	f8d3 30e0 	ldr.w	r3, [r3, #224]	; 0xe0
 80009fc:	f003 0301 	and.w	r3, r3, #1
 8000a00:	613b      	str	r3, [r7, #16]
 8000a02:	693b      	ldr	r3, [r7, #16]
  __HAL_RCC_GPIOB_CLK_ENABLE();
 8000a04:	4b74      	ldr	r3, [pc, #464]	; (8000bd8 <MX_GPIO_Init+0x244>)
 8000a06:	f8d3 30e0 	ldr.w	r3, [r3, #224]	; 0xe0
 8000a0a:	4a73      	ldr	r2, [pc, #460]	; (8000bd8 <MX_GPIO_Init+0x244>)
 8000a0c:	f043 0302 	orr.w	r3, r3, #2
 8000a10:	f8c2 30e0 	str.w	r3, [r2, #224]	; 0xe0
 8000a14:	4b70      	ldr	r3, [pc, #448]	; (8000bd8 <MX_GPIO_Init+0x244>)
 8000a16:	f8d3 30e0 	ldr.w	r3, [r3, #224]	; 0xe0
 8000a1a:	f003 0302 	and.w	r3, r3, #2
 8000a1e:	60fb      	str	r3, [r7, #12]
 8000a20:	68fb      	ldr	r3, [r7, #12]
  __HAL_RCC_GPIOD_CLK_ENABLE();
 8000a22:	4b6d      	ldr	r3, [pc, #436]	; (8000bd8 <MX_GPIO_Init+0x244>)
 8000a24:	f8d3 30e0 	ldr.w	r3, [r3, #224]	; 0xe0
 8000a28:	4a6b      	ldr	r2, [pc, #428]	; (8000bd8 <MX_GPIO_Init+0x244>)
 8000a2a:	f043 0308 	orr.w	r3, r3, #8
 8000a2e:	f8c2 30e0 	str.w	r3, [r2, #224]	; 0xe0
 8000a32:	4b69      	ldr	r3, [pc, #420]	; (8000bd8 <MX_GPIO_Init+0x244>)
 8000a34:	f8d3 30e0 	ldr.w	r3, [r3, #224]	; 0xe0
 8000a38:	f003 0308 	and.w	r3, r3, #8
 8000a3c:	60bb      	str	r3, [r7, #8]
 8000a3e:	68bb      	ldr	r3, [r7, #8]
  __HAL_RCC_GPIOG_CLK_ENABLE();
 8000a40:	4b65      	ldr	r3, [pc, #404]	; (8000bd8 <MX_GPIO_Init+0x244>)
 8000a42:	f8d3 30e0 	ldr.w	r3, [r3, #224]	; 0xe0
 8000a46:	4a64      	ldr	r2, [pc, #400]	; (8000bd8 <MX_GPIO_Init+0x244>)
 8000a48:	f043 0340 	orr.w	r3, r3, #64	; 0x40
 8000a4c:	f8c2 30e0 	str.w	r3, [r2, #224]	; 0xe0
 8000a50:	4b61      	ldr	r3, [pc, #388]	; (8000bd8 <MX_GPIO_Init+0x244>)
 8000a52:	f8d3 30e0 	ldr.w	r3, [r3, #224]	; 0xe0
 8000a56:	f003 0340 	and.w	r3, r3, #64	; 0x40
 8000a5a:	607b      	str	r3, [r7, #4]
 8000a5c:	687b      	ldr	r3, [r7, #4]
  __HAL_RCC_GPIOE_CLK_ENABLE();
 8000a5e:	4b5e      	ldr	r3, [pc, #376]	; (8000bd8 <MX_GPIO_Init+0x244>)
 8000a60:	f8d3 30e0 	ldr.w	r3, [r3, #224]	; 0xe0
 8000a64:	4a5c      	ldr	r2, [pc, #368]	; (8000bd8 <MX_GPIO_Init+0x244>)
 8000a66:	f043 0310 	orr.w	r3, r3, #16
 8000a6a:	f8c2 30e0 	str.w	r3, [r2, #224]	; 0xe0
 8000a6e:	4b5a      	ldr	r3, [pc, #360]	; (8000bd8 <MX_GPIO_Init+0x244>)
 8000a70:	f8d3 30e0 	ldr.w	r3, [r3, #224]	; 0xe0
 8000a74:	f003 0310 	and.w	r3, r3, #16
 8000a78:	603b      	str	r3, [r7, #0]
 8000a7a:	683b      	ldr	r3, [r7, #0]

  /*Configure GPIO pin Output Level */
  HAL_GPIO_WritePin(GPIOB, LD1_Pin|LD3_Pin, GPIO_PIN_RESET);
 8000a7c:	2200      	movs	r2, #0
 8000a7e:	f244 0101 	movw	r1, #16385	; 0x4001
 8000a82:	4856      	ldr	r0, [pc, #344]	; (8000bdc <MX_GPIO_Init+0x248>)
 8000a84:	f002 f866 	bl	8002b54 <HAL_GPIO_WritePin>

  /*Configure GPIO pin Output Level */
  HAL_GPIO_WritePin(USB_OTG_FS_PWR_EN_GPIO_Port, USB_OTG_FS_PWR_EN_Pin, GPIO_PIN_RESET);
 8000a88:	2200      	movs	r2, #0
 8000a8a:	f44f 6180 	mov.w	r1, #1024	; 0x400
 8000a8e:	4854      	ldr	r0, [pc, #336]	; (8000be0 <MX_GPIO_Init+0x24c>)
 8000a90:	f002 f860 	bl	8002b54 <HAL_GPIO_WritePin>

  /*Configure GPIO pin Output Level */
  HAL_GPIO_WritePin(LD2_GPIO_Port, LD2_Pin, GPIO_PIN_RESET);
 8000a94:	2200      	movs	r2, #0
 8000a96:	2102      	movs	r1, #2
 8000a98:	4852      	ldr	r0, [pc, #328]	; (8000be4 <MX_GPIO_Init+0x250>)
 8000a9a:	f002 f85b 	bl	8002b54 <HAL_GPIO_WritePin>

  /*Configure GPIO pin : B1_Pin */
  GPIO_InitStruct.Pin = B1_Pin;
 8000a9e:	f44f 5300 	mov.w	r3, #8192	; 0x2000
 8000aa2:	61fb      	str	r3, [r7, #28]
  GPIO_InitStruct.Mode = GPIO_MODE_INPUT;
 8000aa4:	2300      	movs	r3, #0
 8000aa6:	623b      	str	r3, [r7, #32]
  GPIO_InitStruct.Pull = GPIO_NOPULL;
 8000aa8:	2300      	movs	r3, #0
 8000aaa:	627b      	str	r3, [r7, #36]	; 0x24
  HAL_GPIO_Init(B1_GPIO_Port, &GPIO_InitStruct);
 8000aac:	f107 031c 	add.w	r3, r7, #28
 8000ab0:	4619      	mov	r1, r3
 8000ab2:	484d      	ldr	r0, [pc, #308]	; (8000be8 <MX_GPIO_Init+0x254>)
 8000ab4:	f001 fe9e 	bl	80027f4 <HAL_GPIO_Init>

  /*Configure GPIO pins : PC1 PC4 PC5 */
  GPIO_InitStruct.Pin = GPIO_PIN_1|GPIO_PIN_4|GPIO_PIN_5;
 8000ab8:	2332      	movs	r3, #50	; 0x32
 8000aba:	61fb      	str	r3, [r7, #28]
  GPIO_InitStruct.Mode = GPIO_MODE_AF_PP;
 8000abc:	2302      	movs	r3, #2
 8000abe:	623b      	str	r3, [r7, #32]
  GPIO_InitStruct.Pull = GPIO_NOPULL;
 8000ac0:	2300      	movs	r3, #0
 8000ac2:	627b      	str	r3, [r7, #36]	; 0x24
  GPIO_InitStruct.Speed = GPIO_SPEED_FREQ_LOW;
 8000ac4:	2300      	movs	r3, #0
 8000ac6:	62bb      	str	r3, [r7, #40]	; 0x28
  GPIO_InitStruct.Alternate = GPIO_AF11_ETH;
 8000ac8:	230b      	movs	r3, #11
 8000aca:	62fb      	str	r3, [r7, #44]	; 0x2c
  HAL_GPIO_Init(GPIOC, &GPIO_InitStruct);
 8000acc:	f107 031c 	add.w	r3, r7, #28
 8000ad0:	4619      	mov	r1, r3
 8000ad2:	4845      	ldr	r0, [pc, #276]	; (8000be8 <MX_GPIO_Init+0x254>)
 8000ad4:	f001 fe8e 	bl	80027f4 <HAL_GPIO_Init>

  /*Configure GPIO pins : PA1 PA2 PA7 */
  GPIO_InitStruct.Pin = GPIO_PIN_1|GPIO_PIN_2|GPIO_PIN_7;
 8000ad8:	2386      	movs	r3, #134	; 0x86
 8000ada:	61fb      	str	r3, [r7, #28]
  GPIO_InitStruct.Mode = GPIO_MODE_AF_PP;
 8000adc:	2302      	movs	r3, #2
 8000ade:	623b      	str	r3, [r7, #32]
  GPIO_InitStruct.Pull = GPIO_NOPULL;
 8000ae0:	2300      	movs	r3, #0
 8000ae2:	627b      	str	r3, [r7, #36]	; 0x24
  GPIO_InitStruct.Speed = GPIO_SPEED_FREQ_LOW;
 8000ae4:	2300      	movs	r3, #0
 8000ae6:	62bb      	str	r3, [r7, #40]	; 0x28
  GPIO_InitStruct.Alternate = GPIO_AF11_ETH;
 8000ae8:	230b      	movs	r3, #11
 8000aea:	62fb      	str	r3, [r7, #44]	; 0x2c
  HAL_GPIO_Init(GPIOA, &GPIO_InitStruct);
 8000aec:	f107 031c 	add.w	r3, r7, #28
 8000af0:	4619      	mov	r1, r3
 8000af2:	483e      	ldr	r0, [pc, #248]	; (8000bec <MX_GPIO_Init+0x258>)
 8000af4:	f001 fe7e 	bl	80027f4 <HAL_GPIO_Init>

  /*Configure GPIO pins : LD1_Pin LD3_Pin */
  GPIO_InitStruct.Pin = LD1_Pin|LD3_Pin;
 8000af8:	f244 0301 	movw	r3, #16385	; 0x4001
 8000afc:	61fb      	str	r3, [r7, #28]
  GPIO_InitStruct.Mode = GPIO_MODE_OUTPUT_PP;
 8000afe:	2301      	movs	r3, #1
 8000b00:	623b      	str	r3, [r7, #32]
  GPIO_InitStruct.Pull = GPIO_NOPULL;
 8000b02:	2300      	movs	r3, #0
 8000b04:	627b      	str	r3, [r7, #36]	; 0x24
  GPIO_InitStruct.Speed = GPIO_SPEED_FREQ_LOW;
 8000b06:	2300      	movs	r3, #0
 8000b08:	62bb      	str	r3, [r7, #40]	; 0x28
  HAL_GPIO_Init(GPIOB, &GPIO_InitStruct);
 8000b0a:	f107 031c 	add.w	r3, r7, #28
 8000b0e:	4619      	mov	r1, r3
 8000b10:	4832      	ldr	r0, [pc, #200]	; (8000bdc <MX_GPIO_Init+0x248>)
 8000b12:	f001 fe6f 	bl	80027f4 <HAL_GPIO_Init>

  /*Configure GPIO pin : PB13 */
  GPIO_InitStruct.Pin = GPIO_PIN_13;
 8000b16:	f44f 5300 	mov.w	r3, #8192	; 0x2000
 8000b1a:	61fb      	str	r3, [r7, #28]
  GPIO_InitStruct.Mode = GPIO_MODE_AF_PP;
 8000b1c:	2302      	movs	r3, #2
 8000b1e:	623b      	str	r3, [r7, #32]
  GPIO_InitStruct.Pull = GPIO_NOPULL;
 8000b20:	2300      	movs	r3, #0
 8000b22:	627b      	str	r3, [r7, #36]	; 0x24
  GPIO_InitStruct.Speed = GPIO_SPEED_FREQ_LOW;
 8000b24:	2300      	movs	r3, #0
 8000b26:	62bb      	str	r3, [r7, #40]	; 0x28
  GPIO_InitStruct.Alternate = GPIO_AF11_ETH;
 8000b28:	230b      	movs	r3, #11
 8000b2a:	62fb      	str	r3, [r7, #44]	; 0x2c
  HAL_GPIO_Init(GPIOB, &GPIO_InitStruct);
 8000b2c:	f107 031c 	add.w	r3, r7, #28
 8000b30:	4619      	mov	r1, r3
 8000b32:	482a      	ldr	r0, [pc, #168]	; (8000bdc <MX_GPIO_Init+0x248>)
 8000b34:	f001 fe5e 	bl	80027f4 <HAL_GPIO_Init>

  /*Configure GPIO pin : USB_OTG_FS_PWR_EN_Pin */
  GPIO_InitStruct.Pin = USB_OTG_FS_PWR_EN_Pin;
 8000b38:	f44f 6380 	mov.w	r3, #1024	; 0x400
 8000b3c:	61fb      	str	r3, [r7, #28]
  GPIO_InitStruct.Mode = GPIO_MODE_OUTPUT_PP;
 8000b3e:	2301      	movs	r3, #1
 8000b40:	623b      	str	r3, [r7, #32]
  GPIO_InitStruct.Pull = GPIO_NOPULL;
 8000b42:	2300      	movs	r3, #0
 8000b44:	627b      	str	r3, [r7, #36]	; 0x24
  GPIO_InitStruct.Speed = GPIO_SPEED_FREQ_LOW;
 8000b46:	2300      	movs	r3, #0
 8000b48:	62bb      	str	r3, [r7, #40]	; 0x28
  HAL_GPIO_Init(USB_OTG_FS_PWR_EN_GPIO_Port, &GPIO_InitStruct);
 8000b4a:	f107 031c 	add.w	r3, r7, #28
 8000b4e:	4619      	mov	r1, r3
 8000b50:	4823      	ldr	r0, [pc, #140]	; (8000be0 <MX_GPIO_Init+0x24c>)
 8000b52:	f001 fe4f 	bl	80027f4 <HAL_GPIO_Init>

  /*Configure GPIO pin : USB_OTG_FS_OVCR_Pin */
  GPIO_InitStruct.Pin = USB_OTG_FS_OVCR_Pin;
 8000b56:	2380      	movs	r3, #128	; 0x80
 8000b58:	61fb      	str	r3, [r7, #28]
  GPIO_InitStruct.Mode = GPIO_MODE_IT_RISING;
 8000b5a:	4b25      	ldr	r3, [pc, #148]	; (8000bf0 <MX_GPIO_Init+0x25c>)
 8000b5c:	623b      	str	r3, [r7, #32]
  GPIO_InitStruct.Pull = GPIO_NOPULL;
 8000b5e:	2300      	movs	r3, #0
 8000b60:	627b      	str	r3, [r7, #36]	; 0x24
  HAL_GPIO_Init(USB_OTG_FS_OVCR_GPIO_Port, &GPIO_InitStruct);
 8000b62:	f107 031c 	add.w	r3, r7, #28
 8000b66:	4619      	mov	r1, r3
 8000b68:	4822      	ldr	r0, [pc, #136]	; (8000bf4 <MX_GPIO_Init+0x260>)
 8000b6a:	f001 fe43 	bl	80027f4 <HAL_GPIO_Init>

  /*Configure GPIO pins : PA8 PA11 PA12 */
  GPIO_InitStruct.Pin = GPIO_PIN_8|GPIO_PIN_11|GPIO_PIN_12;
 8000b6e:	f44f 53c8 	mov.w	r3, #6400	; 0x1900
 8000b72:	61fb      	str	r3, [r7, #28]
  GPIO_InitStruct.Mode = GPIO_MODE_AF_PP;
 8000b74:	2302      	movs	r3, #2
 8000b76:	623b      	str	r3, [r7, #32]
  GPIO_InitStruct.Pull = GPIO_NOPULL;
 8000b78:	2300      	movs	r3, #0
 8000b7a:	627b      	str	r3, [r7, #36]	; 0x24
  GPIO_InitStruct.Speed = GPIO_SPEED_FREQ_LOW;
 8000b7c:	2300      	movs	r3, #0
 8000b7e:	62bb      	str	r3, [r7, #40]	; 0x28
  GPIO_InitStruct.Alternate = GPIO_AF10_OTG1_FS;
 8000b80:	230a      	movs	r3, #10
 8000b82:	62fb      	str	r3, [r7, #44]	; 0x2c
  HAL_GPIO_Init(GPIOA, &GPIO_InitStruct);
 8000b84:	f107 031c 	add.w	r3, r7, #28
 8000b88:	4619      	mov	r1, r3
 8000b8a:	4818      	ldr	r0, [pc, #96]	; (8000bec <MX_GPIO_Init+0x258>)
 8000b8c:	f001 fe32 	bl	80027f4 <HAL_GPIO_Init>

  /*Configure GPIO pins : PG11 PG13 */
  GPIO_InitStruct.Pin = GPIO_PIN_11|GPIO_PIN_13;
 8000b90:	f44f 5320 	mov.w	r3, #10240	; 0x2800
 8000b94:	61fb      	str	r3, [r7, #28]
  GPIO_InitStruct.Mode = GPIO_MODE_AF_PP;
 8000b96:	2302      	movs	r3, #2
 8000b98:	623b      	str	r3, [r7, #32]
  GPIO_InitStruct.Pull = GPIO_NOPULL;
 8000b9a:	2300      	movs	r3, #0
 8000b9c:	627b      	str	r3, [r7, #36]	; 0x24
  GPIO_InitStruct.Speed = GPIO_SPEED_FREQ_LOW;
 8000b9e:	2300      	movs	r3, #0
 8000ba0:	62bb      	str	r3, [r7, #40]	; 0x28
  GPIO_InitStruct.Alternate = GPIO_AF11_ETH;
 8000ba2:	230b      	movs	r3, #11
 8000ba4:	62fb      	str	r3, [r7, #44]	; 0x2c
  HAL_GPIO_Init(GPIOG, &GPIO_InitStruct);
 8000ba6:	f107 031c 	add.w	r3, r7, #28
 8000baa:	4619      	mov	r1, r3
 8000bac:	4811      	ldr	r0, [pc, #68]	; (8000bf4 <MX_GPIO_Init+0x260>)
 8000bae:	f001 fe21 	bl	80027f4 <HAL_GPIO_Init>

  /*Configure GPIO pin : LD2_Pin */
  GPIO_InitStruct.Pin = LD2_Pin;
 8000bb2:	2302      	movs	r3, #2
 8000bb4:	61fb      	str	r3, [r7, #28]
  GPIO_InitStruct.Mode = GPIO_MODE_OUTPUT_PP;
 8000bb6:	2301      	movs	r3, #1
 8000bb8:	623b      	str	r3, [r7, #32]
  GPIO_InitStruct.Pull = GPIO_NOPULL;
 8000bba:	2300      	movs	r3, #0
 8000bbc:	627b      	str	r3, [r7, #36]	; 0x24
  GPIO_InitStruct.Speed = GPIO_SPEED_FREQ_LOW;
 8000bbe:	2300      	movs	r3, #0
 8000bc0:	62bb      	str	r3, [r7, #40]	; 0x28
  HAL_GPIO_Init(LD2_GPIO_Port, &GPIO_InitStruct);
 8000bc2:	f107 031c 	add.w	r3, r7, #28
 8000bc6:	4619      	mov	r1, r3
 8000bc8:	4806      	ldr	r0, [pc, #24]	; (8000be4 <MX_GPIO_Init+0x250>)
 8000bca:	f001 fe13 	bl	80027f4 <HAL_GPIO_Init>

}
 8000bce:	bf00      	nop
 8000bd0:	3730      	adds	r7, #48	; 0x30
 8000bd2:	46bd      	mov	sp, r7
 8000bd4:	bd80      	pop	{r7, pc}
 8000bd6:	bf00      	nop
 8000bd8:	58024400 	.word	0x58024400
 8000bdc:	58020400 	.word	0x58020400
 8000be0:	58020c00 	.word	0x58020c00
 8000be4:	58021000 	.word	0x58021000
 8000be8:	58020800 	.word	0x58020800
 8000bec:	58020000 	.word	0x58020000
 8000bf0:	11110000 	.word	0x11110000
 8000bf4:	58021800 	.word	0x58021800

08000bf8 <FDCAN_Config>:

/* USER CODE BEGIN 4 */
static void FDCAN_Config(void){
 8000bf8:	b580      	push	{r7, lr}
 8000bfa:	b08a      	sub	sp, #40	; 0x28
 8000bfc:	af02      	add	r7, sp, #8
	FDCAN_FilterTypeDef sFilterConfig;

	  /* Configure Rx filter */
	  sFilterConfig.IdType = FDCAN_STANDARD_ID;
 8000bfe:	2300      	movs	r3, #0
 8000c00:	603b      	str	r3, [r7, #0]
	  sFilterConfig.FilterIndex = 0;
 8000c02:	2300      	movs	r3, #0
 8000c04:	607b      	str	r3, [r7, #4]
	  sFilterConfig.FilterType = FDCAN_FILTER_MASK;
 8000c06:	2302      	movs	r3, #2
 8000c08:	60bb      	str	r3, [r7, #8]
	  sFilterConfig.FilterConfig = FDCAN_FILTER_TO_RXFIFO0;
 8000c0a:	2301      	movs	r3, #1
 8000c0c:	60fb      	str	r3, [r7, #12]
	  sFilterConfig.FilterID1 = 0x321;
 8000c0e:	f240 3321 	movw	r3, #801	; 0x321
 8000c12:	613b      	str	r3, [r7, #16]
	  sFilterConfig.FilterID2 = 0x7FF;
 8000c14:	f240 73ff 	movw	r3, #2047	; 0x7ff
 8000c18:	617b      	str	r3, [r7, #20]
	  if (HAL_FDCAN_ConfigFilter(&hfdcan1, &sFilterConfig) == HAL_OK)
 8000c1a:	463b      	mov	r3, r7
 8000c1c:	4619      	mov	r1, r3
 8000c1e:	4816      	ldr	r0, [pc, #88]	; (8000c78 <FDCAN_Config+0x80>)
 8000c20:	f000 feb2 	bl	8001988 <HAL_FDCAN_ConfigFilter>
 8000c24:	4603      	mov	r3, r0
 8000c26:	2b00      	cmp	r3, #0
 8000c28:	d102      	bne.n	8000c30 <FDCAN_Config+0x38>
	  {
	    printf("Filter configured");
 8000c2a:	4814      	ldr	r0, [pc, #80]	; (8000c7c <FDCAN_Config+0x84>)
 8000c2c:	f005 fca6 	bl	800657c <iprintf>
	  }

	  /* Configure global filter:
	     Filter all remote frames with STD and EXT ID
	     Reject non matching frames with STD ID and EXT ID */
	  if (HAL_FDCAN_ConfigGlobalFilter(&hfdcan1, FDCAN_REJECT, FDCAN_REJECT, FDCAN_FILTER_REMOTE, FDCAN_FILTER_REMOTE) != HAL_OK)
 8000c30:	2300      	movs	r3, #0
 8000c32:	9300      	str	r3, [sp, #0]
 8000c34:	2300      	movs	r3, #0
 8000c36:	2202      	movs	r2, #2
 8000c38:	2102      	movs	r1, #2
 8000c3a:	480f      	ldr	r0, [pc, #60]	; (8000c78 <FDCAN_Config+0x80>)
 8000c3c:	f000 ff1a 	bl	8001a74 <HAL_FDCAN_ConfigGlobalFilter>
 8000c40:	4603      	mov	r3, r0
 8000c42:	2b00      	cmp	r3, #0
 8000c44:	d001      	beq.n	8000c4a <FDCAN_Config+0x52>
	  {
	    Error_Handler();
 8000c46:	f000 f845 	bl	8000cd4 <Error_Handler>
	  }
	if (HAL_FDCAN_Start(&hfdcan1) != HAL_OK)
 8000c4a:	480b      	ldr	r0, [pc, #44]	; (8000c78 <FDCAN_Config+0x80>)
 8000c4c:	f000 ff3f 	bl	8001ace <HAL_FDCAN_Start>
 8000c50:	4603      	mov	r3, r0
 8000c52:	2b00      	cmp	r3, #0
 8000c54:	d001      	beq.n	8000c5a <FDCAN_Config+0x62>
	  {
	    Error_Handler();
 8000c56:	f000 f83d 	bl	8000cd4 <Error_Handler>
	  }
	if (HAL_FDCAN_ActivateNotification(&hfdcan1, FDCAN_IT_RX_FIFO0_NEW_MESSAGE, 0) != HAL_OK)
 8000c5a:	2200      	movs	r2, #0
 8000c5c:	2101      	movs	r1, #1
 8000c5e:	4806      	ldr	r0, [pc, #24]	; (8000c78 <FDCAN_Config+0x80>)
 8000c60:	f001 f8be 	bl	8001de0 <HAL_FDCAN_ActivateNotification>
 8000c64:	4603      	mov	r3, r0
 8000c66:	2b00      	cmp	r3, #0
 8000c68:	d001      	beq.n	8000c6e <FDCAN_Config+0x76>
	  {
	    /* Notification Error */
	    Error_Handler();
 8000c6a:	f000 f833 	bl	8000cd4 <Error_Handler>
	  }

}
 8000c6e:	bf00      	nop
 8000c70:	3720      	adds	r7, #32
 8000c72:	46bd      	mov	sp, r7
 8000c74:	bd80      	pop	{r7, pc}
 8000c76:	bf00      	nop
 8000c78:	24000128 	.word	0x24000128
 8000c7c:	08007568 	.word	0x08007568

08000c80 <HAL_FDCAN_RxFifo0Callback>:
void HAL_FDCAN_RxFifo0Callback(FDCAN_HandleTypeDef *hfdcan1, uint32_t RxFifo0ITs)
{
 8000c80:	b580      	push	{r7, lr}
 8000c82:	b084      	sub	sp, #16
 8000c84:	af00      	add	r7, sp, #0
 8000c86:	6078      	str	r0, [r7, #4]
 8000c88:	6039      	str	r1, [r7, #0]
	if (HAL_FDCAN_GetRxMessage(hfdcan1, FDCAN_RX_FIFO0, &RxHeader, RxData) == HAL_OK)
 8000c8a:	4b10      	ldr	r3, [pc, #64]	; (8000ccc <HAL_FDCAN_RxFifo0Callback+0x4c>)
 8000c8c:	4a10      	ldr	r2, [pc, #64]	; (8000cd0 <HAL_FDCAN_RxFifo0Callback+0x50>)
 8000c8e:	2140      	movs	r1, #64	; 0x40
 8000c90:	6878      	ldr	r0, [r7, #4]
 8000c92:	f000 ff47 	bl	8001b24 <HAL_FDCAN_GetRxMessage>
 8000c96:	4603      	mov	r3, r0
 8000c98:	2b00      	cmp	r3, #0
 8000c9a:	d112      	bne.n	8000cc2 <HAL_FDCAN_RxFifo0Callback+0x42>
			      {
				  	  for(int i=0;i<64;i++){
 8000c9c:	2300      	movs	r3, #0
 8000c9e:	60fb      	str	r3, [r7, #12]
 8000ca0:	e009      	b.n	8000cb6 <HAL_FDCAN_RxFifo0Callback+0x36>
				  			  printf("%c",RxData[i]);
 8000ca2:	4a0a      	ldr	r2, [pc, #40]	; (8000ccc <HAL_FDCAN_RxFifo0Callback+0x4c>)
 8000ca4:	68fb      	ldr	r3, [r7, #12]
 8000ca6:	4413      	add	r3, r2
 8000ca8:	781b      	ldrb	r3, [r3, #0]
 8000caa:	4618      	mov	r0, r3
 8000cac:	f005 fc7e 	bl	80065ac <putchar>
				  	  for(int i=0;i<64;i++){
 8000cb0:	68fb      	ldr	r3, [r7, #12]
 8000cb2:	3301      	adds	r3, #1
 8000cb4:	60fb      	str	r3, [r7, #12]
 8000cb6:	68fb      	ldr	r3, [r7, #12]
 8000cb8:	2b3f      	cmp	r3, #63	; 0x3f
 8000cba:	ddf2      	ble.n	8000ca2 <HAL_FDCAN_RxFifo0Callback+0x22>
				  	  }
				  	  printf("\n");
 8000cbc:	200a      	movs	r0, #10
 8000cbe:	f005 fc75 	bl	80065ac <putchar>
			      }
}
 8000cc2:	bf00      	nop
 8000cc4:	3710      	adds	r7, #16
 8000cc6:	46bd      	mov	sp, r7
 8000cc8:	bd80      	pop	{r7, pc}
 8000cca:	bf00      	nop
 8000ccc:	240001d0 	.word	0x240001d0
 8000cd0:	24000234 	.word	0x24000234

08000cd4 <Error_Handler>:
/**
  * @brief  This function is executed in case of error occurrence.
  * @retval None
  */
void Error_Handler(void)
{
 8000cd4:	b480      	push	{r7}
 8000cd6:	af00      	add	r7, sp, #0
  /* USER CODE BEGIN Error_Handler_Debug */
  /* User can add his own implementation to report the HAL error return state */

  /* USER CODE END Error_Handler_Debug */
}
 8000cd8:	bf00      	nop
 8000cda:	46bd      	mov	sp, r7
 8000cdc:	f85d 7b04 	ldr.w	r7, [sp], #4
 8000ce0:	4770      	bx	lr
	...

08000ce4 <RetargetInit>:
 8000ce4:	b580      	push	{r7, lr}
 8000ce6:	b082      	sub	sp, #8
 8000ce8:	af00      	add	r7, sp, #0
 8000cea:	6078      	str	r0, [r7, #4]
 8000cec:	4a07      	ldr	r2, [pc, #28]	; (8000d0c <RetargetInit+0x28>)
 8000cee:	687b      	ldr	r3, [r7, #4]
 8000cf0:	6013      	str	r3, [r2, #0]
 8000cf2:	4b07      	ldr	r3, [pc, #28]	; (8000d10 <RetargetInit+0x2c>)
 8000cf4:	681b      	ldr	r3, [r3, #0]
 8000cf6:	6898      	ldr	r0, [r3, #8]
 8000cf8:	2300      	movs	r3, #0
 8000cfa:	2202      	movs	r2, #2
 8000cfc:	2100      	movs	r1, #0
 8000cfe:	f005 fc69 	bl	80065d4 <setvbuf>
 8000d02:	bf00      	nop
 8000d04:	3708      	adds	r7, #8
 8000d06:	46bd      	mov	sp, r7
 8000d08:	bd80      	pop	{r7, pc}
 8000d0a:	bf00      	nop
 8000d0c:	2400025c 	.word	0x2400025c
 8000d10:	24000010 	.word	0x24000010

08000d14 <_isatty>:
 8000d14:	b580      	push	{r7, lr}
 8000d16:	b082      	sub	sp, #8
 8000d18:	af00      	add	r7, sp, #0
 8000d1a:	6078      	str	r0, [r7, #4]
 8000d1c:	687b      	ldr	r3, [r7, #4]
 8000d1e:	2b00      	cmp	r3, #0
 8000d20:	db04      	blt.n	8000d2c <_isatty+0x18>
 8000d22:	687b      	ldr	r3, [r7, #4]
 8000d24:	2b02      	cmp	r3, #2
 8000d26:	dc01      	bgt.n	8000d2c <_isatty+0x18>
 8000d28:	2301      	movs	r3, #1
 8000d2a:	e005      	b.n	8000d38 <_isatty+0x24>
 8000d2c:	f005 fbe8 	bl	8006500 <__errno>
 8000d30:	4602      	mov	r2, r0
 8000d32:	2309      	movs	r3, #9
 8000d34:	6013      	str	r3, [r2, #0]
 8000d36:	2300      	movs	r3, #0
 8000d38:	4618      	mov	r0, r3
 8000d3a:	3708      	adds	r7, #8
 8000d3c:	46bd      	mov	sp, r7
 8000d3e:	bd80      	pop	{r7, pc}

08000d40 <_write>:
 8000d40:	b580      	push	{r7, lr}
 8000d42:	b086      	sub	sp, #24
 8000d44:	af00      	add	r7, sp, #0
 8000d46:	60f8      	str	r0, [r7, #12]
 8000d48:	60b9      	str	r1, [r7, #8]
 8000d4a:	607a      	str	r2, [r7, #4]
 8000d4c:	68fb      	ldr	r3, [r7, #12]
 8000d4e:	2b01      	cmp	r3, #1
 8000d50:	d002      	beq.n	8000d58 <_write+0x18>
 8000d52:	68fb      	ldr	r3, [r7, #12]
 8000d54:	2b02      	cmp	r3, #2
 8000d56:	d111      	bne.n	8000d7c <_write+0x3c>
 8000d58:	4b0e      	ldr	r3, [pc, #56]	; (8000d94 <_write+0x54>)
 8000d5a:	6818      	ldr	r0, [r3, #0]
 8000d5c:	687b      	ldr	r3, [r7, #4]
 8000d5e:	b29a      	uxth	r2, r3
 8000d60:	f04f 33ff 	mov.w	r3, #4294967295
 8000d64:	68b9      	ldr	r1, [r7, #8]
 8000d66:	f004 fa2d 	bl	80051c4 <HAL_UART_Transmit>
 8000d6a:	4603      	mov	r3, r0
 8000d6c:	75fb      	strb	r3, [r7, #23]
 8000d6e:	7dfb      	ldrb	r3, [r7, #23]
 8000d70:	2b00      	cmp	r3, #0
 8000d72:	d101      	bne.n	8000d78 <_write+0x38>
 8000d74:	687b      	ldr	r3, [r7, #4]
 8000d76:	e008      	b.n	8000d8a <_write+0x4a>
 8000d78:	2305      	movs	r3, #5
 8000d7a:	e006      	b.n	8000d8a <_write+0x4a>
 8000d7c:	f005 fbc0 	bl	8006500 <__errno>
 8000d80:	4602      	mov	r2, r0
 8000d82:	2309      	movs	r3, #9
 8000d84:	6013      	str	r3, [r2, #0]
 8000d86:	f04f 33ff 	mov.w	r3, #4294967295
 8000d8a:	4618      	mov	r0, r3
 8000d8c:	3718      	adds	r7, #24
 8000d8e:	46bd      	mov	sp, r7
 8000d90:	bd80      	pop	{r7, pc}
 8000d92:	bf00      	nop
 8000d94:	2400025c 	.word	0x2400025c

08000d98 <_close>:
 8000d98:	b580      	push	{r7, lr}
 8000d9a:	b082      	sub	sp, #8
 8000d9c:	af00      	add	r7, sp, #0
 8000d9e:	6078      	str	r0, [r7, #4]
 8000da0:	687b      	ldr	r3, [r7, #4]
 8000da2:	2b00      	cmp	r3, #0
 8000da4:	db04      	blt.n	8000db0 <_close+0x18>
 8000da6:	687b      	ldr	r3, [r7, #4]
 8000da8:	2b02      	cmp	r3, #2
 8000daa:	dc01      	bgt.n	8000db0 <_close+0x18>
 8000dac:	2300      	movs	r3, #0
 8000dae:	e006      	b.n	8000dbe <_close+0x26>
 8000db0:	f005 fba6 	bl	8006500 <__errno>
 8000db4:	4602      	mov	r2, r0
 8000db6:	2309      	movs	r3, #9
 8000db8:	6013      	str	r3, [r2, #0]
 8000dba:	f04f 33ff 	mov.w	r3, #4294967295
 8000dbe:	4618      	mov	r0, r3
 8000dc0:	3708      	adds	r7, #8
 8000dc2:	46bd      	mov	sp, r7
 8000dc4:	bd80      	pop	{r7, pc}

08000dc6 <_lseek>:
 8000dc6:	b580      	push	{r7, lr}
 8000dc8:	b084      	sub	sp, #16
 8000dca:	af00      	add	r7, sp, #0
 8000dcc:	60f8      	str	r0, [r7, #12]
 8000dce:	60b9      	str	r1, [r7, #8]
 8000dd0:	607a      	str	r2, [r7, #4]
 8000dd2:	f005 fb95 	bl	8006500 <__errno>
 8000dd6:	4602      	mov	r2, r0
 8000dd8:	2309      	movs	r3, #9
 8000dda:	6013      	str	r3, [r2, #0]
 8000ddc:	f04f 33ff 	mov.w	r3, #4294967295
 8000de0:	4618      	mov	r0, r3
 8000de2:	3710      	adds	r7, #16
 8000de4:	46bd      	mov	sp, r7
 8000de6:	bd80      	pop	{r7, pc}

08000de8 <_read>:
 8000de8:	b580      	push	{r7, lr}
 8000dea:	b086      	sub	sp, #24
 8000dec:	af00      	add	r7, sp, #0
 8000dee:	60f8      	str	r0, [r7, #12]
 8000df0:	60b9      	str	r1, [r7, #8]
 8000df2:	607a      	str	r2, [r7, #4]
 8000df4:	68fb      	ldr	r3, [r7, #12]
 8000df6:	2b00      	cmp	r3, #0
 8000df8:	d110      	bne.n	8000e1c <_read+0x34>
 8000dfa:	4b0e      	ldr	r3, [pc, #56]	; (8000e34 <_read+0x4c>)
 8000dfc:	6818      	ldr	r0, [r3, #0]
 8000dfe:	f04f 33ff 	mov.w	r3, #4294967295
 8000e02:	2201      	movs	r2, #1
 8000e04:	68b9      	ldr	r1, [r7, #8]
 8000e06:	f004 fa73 	bl	80052f0 <HAL_UART_Receive>
 8000e0a:	4603      	mov	r3, r0
 8000e0c:	75fb      	strb	r3, [r7, #23]
 8000e0e:	7dfb      	ldrb	r3, [r7, #23]
 8000e10:	2b00      	cmp	r3, #0
 8000e12:	d101      	bne.n	8000e18 <_read+0x30>
 8000e14:	2301      	movs	r3, #1
 8000e16:	e008      	b.n	8000e2a <_read+0x42>
 8000e18:	2305      	movs	r3, #5
 8000e1a:	e006      	b.n	8000e2a <_read+0x42>
 8000e1c:	f005 fb70 	bl	8006500 <__errno>
 8000e20:	4602      	mov	r2, r0
 8000e22:	2309      	movs	r3, #9
 8000e24:	6013      	str	r3, [r2, #0]
 8000e26:	f04f 33ff 	mov.w	r3, #4294967295
 8000e2a:	4618      	mov	r0, r3
 8000e2c:	3718      	adds	r7, #24
 8000e2e:	46bd      	mov	sp, r7
 8000e30:	bd80      	pop	{r7, pc}
 8000e32:	bf00      	nop
 8000e34:	2400025c 	.word	0x2400025c

08000e38 <_fstat>:
 8000e38:	b580      	push	{r7, lr}
 8000e3a:	b082      	sub	sp, #8
 8000e3c:	af00      	add	r7, sp, #0
 8000e3e:	6078      	str	r0, [r7, #4]
 8000e40:	6039      	str	r1, [r7, #0]
 8000e42:	687b      	ldr	r3, [r7, #4]
 8000e44:	2b00      	cmp	r3, #0
 8000e46:	db08      	blt.n	8000e5a <_fstat+0x22>
 8000e48:	687b      	ldr	r3, [r7, #4]
 8000e4a:	2b02      	cmp	r3, #2
 8000e4c:	dc05      	bgt.n	8000e5a <_fstat+0x22>
 8000e4e:	683b      	ldr	r3, [r7, #0]
 8000e50:	f44f 5200 	mov.w	r2, #8192	; 0x2000
 8000e54:	605a      	str	r2, [r3, #4]
 8000e56:	2300      	movs	r3, #0
 8000e58:	e005      	b.n	8000e66 <_fstat+0x2e>
 8000e5a:	f005 fb51 	bl	8006500 <__errno>
 8000e5e:	4602      	mov	r2, r0
 8000e60:	2309      	movs	r3, #9
 8000e62:	6013      	str	r3, [r2, #0]
 8000e64:	2300      	movs	r3, #0
 8000e66:	4618      	mov	r0, r3
 8000e68:	3708      	adds	r7, #8
 8000e6a:	46bd      	mov	sp, r7
 8000e6c:	bd80      	pop	{r7, pc}
	...

08000e70 <HAL_MspInit>:
 8000e70:	b480      	push	{r7}
 8000e72:	b083      	sub	sp, #12
 8000e74:	af00      	add	r7, sp, #0
 8000e76:	4b0a      	ldr	r3, [pc, #40]	; (8000ea0 <HAL_MspInit+0x30>)
 8000e78:	f8d3 30f4 	ldr.w	r3, [r3, #244]	; 0xf4
 8000e7c:	4a08      	ldr	r2, [pc, #32]	; (8000ea0 <HAL_MspInit+0x30>)
 8000e7e:	f043 0302 	orr.w	r3, r3, #2
 8000e82:	f8c2 30f4 	str.w	r3, [r2, #244]	; 0xf4
 8000e86:	4b06      	ldr	r3, [pc, #24]	; (8000ea0 <HAL_MspInit+0x30>)
 8000e88:	f8d3 30f4 	ldr.w	r3, [r3, #244]	; 0xf4
 8000e8c:	f003 0302 	and.w	r3, r3, #2
 8000e90:	607b      	str	r3, [r7, #4]
 8000e92:	687b      	ldr	r3, [r7, #4]
 8000e94:	bf00      	nop
 8000e96:	370c      	adds	r7, #12
 8000e98:	46bd      	mov	sp, r7
 8000e9a:	f85d 7b04 	ldr.w	r7, [sp], #4
 8000e9e:	4770      	bx	lr
 8000ea0:	58024400 	.word	0x58024400

08000ea4 <HAL_FDCAN_MspInit>:
 8000ea4:	b580      	push	{r7, lr}
 8000ea6:	b08a      	sub	sp, #40	; 0x28
 8000ea8:	af00      	add	r7, sp, #0
 8000eaa:	6078      	str	r0, [r7, #4]
 8000eac:	f107 0314 	add.w	r3, r7, #20
 8000eb0:	2200      	movs	r2, #0
 8000eb2:	601a      	str	r2, [r3, #0]
 8000eb4:	605a      	str	r2, [r3, #4]
 8000eb6:	609a      	str	r2, [r3, #8]
 8000eb8:	60da      	str	r2, [r3, #12]
 8000eba:	611a      	str	r2, [r3, #16]
 8000ebc:	687b      	ldr	r3, [r7, #4]
 8000ebe:	681b      	ldr	r3, [r3, #0]
 8000ec0:	4a1e      	ldr	r2, [pc, #120]	; (8000f3c <HAL_FDCAN_MspInit+0x98>)
 8000ec2:	4293      	cmp	r3, r2
 8000ec4:	d135      	bne.n	8000f32 <HAL_FDCAN_MspInit+0x8e>
 8000ec6:	4b1e      	ldr	r3, [pc, #120]	; (8000f40 <HAL_FDCAN_MspInit+0x9c>)
 8000ec8:	f8d3 30ec 	ldr.w	r3, [r3, #236]	; 0xec
 8000ecc:	4a1c      	ldr	r2, [pc, #112]	; (8000f40 <HAL_FDCAN_MspInit+0x9c>)
 8000ece:	f443 7380 	orr.w	r3, r3, #256	; 0x100
 8000ed2:	f8c2 30ec 	str.w	r3, [r2, #236]	; 0xec
 8000ed6:	4b1a      	ldr	r3, [pc, #104]	; (8000f40 <HAL_FDCAN_MspInit+0x9c>)
 8000ed8:	f8d3 30ec 	ldr.w	r3, [r3, #236]	; 0xec
 8000edc:	f403 7380 	and.w	r3, r3, #256	; 0x100
 8000ee0:	613b      	str	r3, [r7, #16]
 8000ee2:	693b      	ldr	r3, [r7, #16]
 8000ee4:	4b16      	ldr	r3, [pc, #88]	; (8000f40 <HAL_FDCAN_MspInit+0x9c>)
 8000ee6:	f8d3 30e0 	ldr.w	r3, [r3, #224]	; 0xe0
 8000eea:	4a15      	ldr	r2, [pc, #84]	; (8000f40 <HAL_FDCAN_MspInit+0x9c>)
 8000eec:	f043 0308 	orr.w	r3, r3, #8
 8000ef0:	f8c2 30e0 	str.w	r3, [r2, #224]	; 0xe0
 8000ef4:	4b12      	ldr	r3, [pc, #72]	; (8000f40 <HAL_FDCAN_MspInit+0x9c>)
 8000ef6:	f8d3 30e0 	ldr.w	r3, [r3, #224]	; 0xe0
 8000efa:	f003 0308 	and.w	r3, r3, #8
 8000efe:	60fb      	str	r3, [r7, #12]
 8000f00:	68fb      	ldr	r3, [r7, #12]
 8000f02:	2303      	movs	r3, #3
 8000f04:	617b      	str	r3, [r7, #20]
 8000f06:	2302      	movs	r3, #2
 8000f08:	61bb      	str	r3, [r7, #24]
 8000f0a:	2300      	movs	r3, #0
 8000f0c:	61fb      	str	r3, [r7, #28]
 8000f0e:	2300      	movs	r3, #0
 8000f10:	623b      	str	r3, [r7, #32]
 8000f12:	2309      	movs	r3, #9
 8000f14:	627b      	str	r3, [r7, #36]	; 0x24
 8000f16:	f107 0314 	add.w	r3, r7, #20
 8000f1a:	4619      	mov	r1, r3
 8000f1c:	4809      	ldr	r0, [pc, #36]	; (8000f44 <HAL_FDCAN_MspInit+0xa0>)
 8000f1e:	f001 fc69 	bl	80027f4 <HAL_GPIO_Init>
 8000f22:	2200      	movs	r2, #0
 8000f24:	2100      	movs	r1, #0
 8000f26:	2013      	movs	r0, #19
 8000f28:	f000 fb17 	bl	800155a <HAL_NVIC_SetPriority>
 8000f2c:	2013      	movs	r0, #19
 8000f2e:	f000 fb2e 	bl	800158e <HAL_NVIC_EnableIRQ>
 8000f32:	bf00      	nop
 8000f34:	3728      	adds	r7, #40	; 0x28
 8000f36:	46bd      	mov	sp, r7
 8000f38:	bd80      	pop	{r7, pc}
 8000f3a:	bf00      	nop
 8000f3c:	4000a000 	.word	0x4000a000
 8000f40:	58024400 	.word	0x58024400
 8000f44:	58020c00 	.word	0x58020c00

08000f48 <HAL_UART_MspInit>:
 8000f48:	b580      	push	{r7, lr}
 8000f4a:	b08a      	sub	sp, #40	; 0x28
 8000f4c:	af00      	add	r7, sp, #0
 8000f4e:	6078      	str	r0, [r7, #4]
 8000f50:	f107 0314 	add.w	r3, r7, #20
 8000f54:	2200      	movs	r2, #0
 8000f56:	601a      	str	r2, [r3, #0]
 8000f58:	605a      	str	r2, [r3, #4]
 8000f5a:	609a      	str	r2, [r3, #8]
 8000f5c:	60da      	str	r2, [r3, #12]
 8000f5e:	611a      	str	r2, [r3, #16]
 8000f60:	687b      	ldr	r3, [r7, #4]
 8000f62:	681b      	ldr	r3, [r3, #0]
 8000f64:	4a1a      	ldr	r2, [pc, #104]	; (8000fd0 <HAL_UART_MspInit+0x88>)
 8000f66:	4293      	cmp	r3, r2
 8000f68:	d12e      	bne.n	8000fc8 <HAL_UART_MspInit+0x80>
 8000f6a:	4b1a      	ldr	r3, [pc, #104]	; (8000fd4 <HAL_UART_MspInit+0x8c>)
 8000f6c:	f8d3 30e8 	ldr.w	r3, [r3, #232]	; 0xe8
 8000f70:	4a18      	ldr	r2, [pc, #96]	; (8000fd4 <HAL_UART_MspInit+0x8c>)
 8000f72:	f443 2380 	orr.w	r3, r3, #262144	; 0x40000
 8000f76:	f8c2 30e8 	str.w	r3, [r2, #232]	; 0xe8
 8000f7a:	4b16      	ldr	r3, [pc, #88]	; (8000fd4 <HAL_UART_MspInit+0x8c>)
 8000f7c:	f8d3 30e8 	ldr.w	r3, [r3, #232]	; 0xe8
 8000f80:	f403 2380 	and.w	r3, r3, #262144	; 0x40000
 8000f84:	613b      	str	r3, [r7, #16]
 8000f86:	693b      	ldr	r3, [r7, #16]
 8000f88:	4b12      	ldr	r3, [pc, #72]	; (8000fd4 <HAL_UART_MspInit+0x8c>)
 8000f8a:	f8d3 30e0 	ldr.w	r3, [r3, #224]	; 0xe0
 8000f8e:	4a11      	ldr	r2, [pc, #68]	; (8000fd4 <HAL_UART_MspInit+0x8c>)
 8000f90:	f043 0308 	orr.w	r3, r3, #8
 8000f94:	f8c2 30e0 	str.w	r3, [r2, #224]	; 0xe0
 8000f98:	4b0e      	ldr	r3, [pc, #56]	; (8000fd4 <HAL_UART_MspInit+0x8c>)
 8000f9a:	f8d3 30e0 	ldr.w	r3, [r3, #224]	; 0xe0
 8000f9e:	f003 0308 	and.w	r3, r3, #8
 8000fa2:	60fb      	str	r3, [r7, #12]
 8000fa4:	68fb      	ldr	r3, [r7, #12]
 8000fa6:	f44f 7340 	mov.w	r3, #768	; 0x300
 8000faa:	617b      	str	r3, [r7, #20]
 8000fac:	2302      	movs	r3, #2
 8000fae:	61bb      	str	r3, [r7, #24]
 8000fb0:	2300      	movs	r3, #0
 8000fb2:	61fb      	str	r3, [r7, #28]
 8000fb4:	2300      	movs	r3, #0
 8000fb6:	623b      	str	r3, [r7, #32]
 8000fb8:	2307      	movs	r3, #7
 8000fba:	627b      	str	r3, [r7, #36]	; 0x24
 8000fbc:	f107 0314 	add.w	r3, r7, #20
 8000fc0:	4619      	mov	r1, r3
 8000fc2:	4805      	ldr	r0, [pc, #20]	; (8000fd8 <HAL_UART_MspInit+0x90>)
 8000fc4:	f001 fc16 	bl	80027f4 <HAL_GPIO_Init>
 8000fc8:	bf00      	nop
 8000fca:	3728      	adds	r7, #40	; 0x28
 8000fcc:	46bd      	mov	sp, r7
 8000fce:	bd80      	pop	{r7, pc}
 8000fd0:	40004800 	.word	0x40004800
 8000fd4:	58024400 	.word	0x58024400
 8000fd8:	58020c00 	.word	0x58020c00

08000fdc <NMI_Handler>:
 8000fdc:	b480      	push	{r7}
 8000fde:	af00      	add	r7, sp, #0
 8000fe0:	bf00      	nop
 8000fe2:	46bd      	mov	sp, r7
 8000fe4:	f85d 7b04 	ldr.w	r7, [sp], #4
 8000fe8:	4770      	bx	lr

08000fea <HardFault_Handler>:
 8000fea:	b480      	push	{r7}
 8000fec:	af00      	add	r7, sp, #0
 8000fee:	e7fe      	b.n	8000fee <HardFault_Handler+0x4>

08000ff0 <MemManage_Handler>:
 8000ff0:	b480      	push	{r7}
 8000ff2:	af00      	add	r7, sp, #0
 8000ff4:	e7fe      	b.n	8000ff4 <MemManage_Handler+0x4>

08000ff6 <BusFault_Handler>:
 8000ff6:	b480      	push	{r7}
 8000ff8:	af00      	add	r7, sp, #0
 8000ffa:	e7fe      	b.n	8000ffa <BusFault_Handler+0x4>

08000ffc <UsageFault_Handler>:
 8000ffc:	b480      	push	{r7}
 8000ffe:	af00      	add	r7, sp, #0
 8001000:	e7fe      	b.n	8001000 <UsageFault_Handler+0x4>

08001002 <SVC_Handler>:
 8001002:	b480      	push	{r7}
 8001004:	af00      	add	r7, sp, #0
 8001006:	bf00      	nop
 8001008:	46bd      	mov	sp, r7
 800100a:	f85d 7b04 	ldr.w	r7, [sp], #4
 800100e:	4770      	bx	lr

08001010 <DebugMon_Handler>:
 8001010:	b480      	push	{r7}
 8001012:	af00      	add	r7, sp, #0
 8001014:	bf00      	nop
 8001016:	46bd      	mov	sp, r7
 8001018:	f85d 7b04 	ldr.w	r7, [sp], #4
 800101c:	4770      	bx	lr

0800101e <PendSV_Handler>:
 800101e:	b480      	push	{r7}
 8001020:	af00      	add	r7, sp, #0
 8001022:	bf00      	nop
 8001024:	46bd      	mov	sp, r7
 8001026:	f85d 7b04 	ldr.w	r7, [sp], #4
 800102a:	4770      	bx	lr

0800102c <SysTick_Handler>:
 800102c:	b580      	push	{r7, lr}
 800102e:	af00      	add	r7, sp, #0
 8001030:	f000 f96a 	bl	8001308 <HAL_IncTick>
 8001034:	bf00      	nop
 8001036:	bd80      	pop	{r7, pc}

08001038 <FDCAN1_IT0_IRQHandler>:
 8001038:	b580      	push	{r7, lr}
 800103a:	af00      	add	r7, sp, #0
 800103c:	4802      	ldr	r0, [pc, #8]	; (8001048 <FDCAN1_IT0_IRQHandler+0x10>)
 800103e:	f000 ff49 	bl	8001ed4 <HAL_FDCAN_IRQHandler>
 8001042:	bf00      	nop
 8001044:	bd80      	pop	{r7, pc}
 8001046:	bf00      	nop
 8001048:	24000128 	.word	0x24000128

0800104c <_sbrk>:
 800104c:	b580      	push	{r7, lr}
 800104e:	b086      	sub	sp, #24
 8001050:	af00      	add	r7, sp, #0
 8001052:	6078      	str	r0, [r7, #4]
 8001054:	4a14      	ldr	r2, [pc, #80]	; (80010a8 <_sbrk+0x5c>)
 8001056:	4b15      	ldr	r3, [pc, #84]	; (80010ac <_sbrk+0x60>)
 8001058:	1ad3      	subs	r3, r2, r3
 800105a:	617b      	str	r3, [r7, #20]
 800105c:	697b      	ldr	r3, [r7, #20]
 800105e:	613b      	str	r3, [r7, #16]
 8001060:	4b13      	ldr	r3, [pc, #76]	; (80010b0 <_sbrk+0x64>)
 8001062:	681b      	ldr	r3, [r3, #0]
 8001064:	2b00      	cmp	r3, #0
 8001066:	d102      	bne.n	800106e <_sbrk+0x22>
 8001068:	4b11      	ldr	r3, [pc, #68]	; (80010b0 <_sbrk+0x64>)
 800106a:	4a12      	ldr	r2, [pc, #72]	; (80010b4 <_sbrk+0x68>)
 800106c:	601a      	str	r2, [r3, #0]
 800106e:	4b10      	ldr	r3, [pc, #64]	; (80010b0 <_sbrk+0x64>)
 8001070:	681a      	ldr	r2, [r3, #0]
 8001072:	687b      	ldr	r3, [r7, #4]
 8001074:	4413      	add	r3, r2
 8001076:	693a      	ldr	r2, [r7, #16]
 8001078:	429a      	cmp	r2, r3
 800107a:	d207      	bcs.n	800108c <_sbrk+0x40>
 800107c:	f005 fa40 	bl	8006500 <__errno>
 8001080:	4602      	mov	r2, r0
 8001082:	230c      	movs	r3, #12
 8001084:	6013      	str	r3, [r2, #0]
 8001086:	f04f 33ff 	mov.w	r3, #4294967295
 800108a:	e009      	b.n	80010a0 <_sbrk+0x54>
 800108c:	4b08      	ldr	r3, [pc, #32]	; (80010b0 <_sbrk+0x64>)
 800108e:	681b      	ldr	r3, [r3, #0]
 8001090:	60fb      	str	r3, [r7, #12]
 8001092:	4b07      	ldr	r3, [pc, #28]	; (80010b0 <_sbrk+0x64>)
 8001094:	681a      	ldr	r2, [r3, #0]
 8001096:	687b      	ldr	r3, [r7, #4]
 8001098:	4413      	add	r3, r2
 800109a:	4a05      	ldr	r2, [pc, #20]	; (80010b0 <_sbrk+0x64>)
 800109c:	6013      	str	r3, [r2, #0]
 800109e:	68fb      	ldr	r3, [r7, #12]
 80010a0:	4618      	mov	r0, r3
 80010a2:	3718      	adds	r7, #24
 80010a4:	46bd      	mov	sp, r7
 80010a6:	bd80      	pop	{r7, pc}
 80010a8:	24080000 	.word	0x24080000
 80010ac:	00000400 	.word	0x00000400
 80010b0:	24000090 	.word	0x24000090
 80010b4:	24000268 	.word	0x24000268

080010b8 <SystemInit>:
 80010b8:	b480      	push	{r7}
 80010ba:	af00      	add	r7, sp, #0
 80010bc:	4b39      	ldr	r3, [pc, #228]	; (80011a4 <SystemInit+0xec>)
 80010be:	f8d3 3088 	ldr.w	r3, [r3, #136]	; 0x88
 80010c2:	4a38      	ldr	r2, [pc, #224]	; (80011a4 <SystemInit+0xec>)
 80010c4:	f443 0370 	orr.w	r3, r3, #15728640	; 0xf00000
 80010c8:	f8c2 3088 	str.w	r3, [r2, #136]	; 0x88
 80010cc:	4b36      	ldr	r3, [pc, #216]	; (80011a8 <SystemInit+0xf0>)
 80010ce:	681b      	ldr	r3, [r3, #0]
 80010d0:	f003 030f 	and.w	r3, r3, #15
 80010d4:	2b06      	cmp	r3, #6
 80010d6:	d807      	bhi.n	80010e8 <SystemInit+0x30>
 80010d8:	4b33      	ldr	r3, [pc, #204]	; (80011a8 <SystemInit+0xf0>)
 80010da:	681b      	ldr	r3, [r3, #0]
 80010dc:	f023 030f 	bic.w	r3, r3, #15
 80010e0:	4a31      	ldr	r2, [pc, #196]	; (80011a8 <SystemInit+0xf0>)
 80010e2:	f043 0307 	orr.w	r3, r3, #7
 80010e6:	6013      	str	r3, [r2, #0]
 80010e8:	4b30      	ldr	r3, [pc, #192]	; (80011ac <SystemInit+0xf4>)
 80010ea:	681b      	ldr	r3, [r3, #0]
 80010ec:	4a2f      	ldr	r2, [pc, #188]	; (80011ac <SystemInit+0xf4>)
 80010ee:	f043 0301 	orr.w	r3, r3, #1
 80010f2:	6013      	str	r3, [r2, #0]
 80010f4:	4b2d      	ldr	r3, [pc, #180]	; (80011ac <SystemInit+0xf4>)
 80010f6:	2200      	movs	r2, #0
 80010f8:	611a      	str	r2, [r3, #16]
 80010fa:	4b2c      	ldr	r3, [pc, #176]	; (80011ac <SystemInit+0xf4>)
 80010fc:	681a      	ldr	r2, [r3, #0]
 80010fe:	492b      	ldr	r1, [pc, #172]	; (80011ac <SystemInit+0xf4>)
 8001100:	4b2b      	ldr	r3, [pc, #172]	; (80011b0 <SystemInit+0xf8>)
 8001102:	4013      	ands	r3, r2
 8001104:	600b      	str	r3, [r1, #0]
 8001106:	4b28      	ldr	r3, [pc, #160]	; (80011a8 <SystemInit+0xf0>)
 8001108:	681b      	ldr	r3, [r3, #0]
 800110a:	f003 030f 	and.w	r3, r3, #15
 800110e:	2b07      	cmp	r3, #7
 8001110:	d907      	bls.n	8001122 <SystemInit+0x6a>
 8001112:	4b25      	ldr	r3, [pc, #148]	; (80011a8 <SystemInit+0xf0>)
 8001114:	681b      	ldr	r3, [r3, #0]
 8001116:	f023 030f 	bic.w	r3, r3, #15
 800111a:	4a23      	ldr	r2, [pc, #140]	; (80011a8 <SystemInit+0xf0>)
 800111c:	f043 0307 	orr.w	r3, r3, #7
 8001120:	6013      	str	r3, [r2, #0]
 8001122:	4b22      	ldr	r3, [pc, #136]	; (80011ac <SystemInit+0xf4>)
 8001124:	2200      	movs	r2, #0
 8001126:	619a      	str	r2, [r3, #24]
 8001128:	4b20      	ldr	r3, [pc, #128]	; (80011ac <SystemInit+0xf4>)
 800112a:	2200      	movs	r2, #0
 800112c:	61da      	str	r2, [r3, #28]
 800112e:	4b1f      	ldr	r3, [pc, #124]	; (80011ac <SystemInit+0xf4>)
 8001130:	2200      	movs	r2, #0
 8001132:	621a      	str	r2, [r3, #32]
 8001134:	4b1d      	ldr	r3, [pc, #116]	; (80011ac <SystemInit+0xf4>)
 8001136:	4a1f      	ldr	r2, [pc, #124]	; (80011b4 <SystemInit+0xfc>)
 8001138:	629a      	str	r2, [r3, #40]	; 0x28
 800113a:	4b1c      	ldr	r3, [pc, #112]	; (80011ac <SystemInit+0xf4>)
 800113c:	4a1e      	ldr	r2, [pc, #120]	; (80011b8 <SystemInit+0x100>)
 800113e:	62da      	str	r2, [r3, #44]	; 0x2c
 8001140:	4b1a      	ldr	r3, [pc, #104]	; (80011ac <SystemInit+0xf4>)
 8001142:	4a1e      	ldr	r2, [pc, #120]	; (80011bc <SystemInit+0x104>)
 8001144:	631a      	str	r2, [r3, #48]	; 0x30
 8001146:	4b19      	ldr	r3, [pc, #100]	; (80011ac <SystemInit+0xf4>)
 8001148:	2200      	movs	r2, #0
 800114a:	635a      	str	r2, [r3, #52]	; 0x34
 800114c:	4b17      	ldr	r3, [pc, #92]	; (80011ac <SystemInit+0xf4>)
 800114e:	4a1b      	ldr	r2, [pc, #108]	; (80011bc <SystemInit+0x104>)
 8001150:	639a      	str	r2, [r3, #56]	; 0x38
 8001152:	4b16      	ldr	r3, [pc, #88]	; (80011ac <SystemInit+0xf4>)
 8001154:	2200      	movs	r2, #0
 8001156:	63da      	str	r2, [r3, #60]	; 0x3c
 8001158:	4b14      	ldr	r3, [pc, #80]	; (80011ac <SystemInit+0xf4>)
 800115a:	4a18      	ldr	r2, [pc, #96]	; (80011bc <SystemInit+0x104>)
 800115c:	641a      	str	r2, [r3, #64]	; 0x40
 800115e:	4b13      	ldr	r3, [pc, #76]	; (80011ac <SystemInit+0xf4>)
 8001160:	2200      	movs	r2, #0
 8001162:	645a      	str	r2, [r3, #68]	; 0x44
 8001164:	4b11      	ldr	r3, [pc, #68]	; (80011ac <SystemInit+0xf4>)
 8001166:	681b      	ldr	r3, [r3, #0]
 8001168:	4a10      	ldr	r2, [pc, #64]	; (80011ac <SystemInit+0xf4>)
 800116a:	f423 2380 	bic.w	r3, r3, #262144	; 0x40000
 800116e:	6013      	str	r3, [r2, #0]
 8001170:	4b0e      	ldr	r3, [pc, #56]	; (80011ac <SystemInit+0xf4>)
 8001172:	2200      	movs	r2, #0
 8001174:	661a      	str	r2, [r3, #96]	; 0x60
 8001176:	4b12      	ldr	r3, [pc, #72]	; (80011c0 <SystemInit+0x108>)
 8001178:	681a      	ldr	r2, [r3, #0]
 800117a:	4b12      	ldr	r3, [pc, #72]	; (80011c4 <SystemInit+0x10c>)
 800117c:	4013      	ands	r3, r2
 800117e:	f1b3 5f00 	cmp.w	r3, #536870912	; 0x20000000
 8001182:	d202      	bcs.n	800118a <SystemInit+0xd2>
 8001184:	4b10      	ldr	r3, [pc, #64]	; (80011c8 <SystemInit+0x110>)
 8001186:	2201      	movs	r2, #1
 8001188:	601a      	str	r2, [r3, #0]
 800118a:	4b10      	ldr	r3, [pc, #64]	; (80011cc <SystemInit+0x114>)
 800118c:	f243 02d2 	movw	r2, #12498	; 0x30d2
 8001190:	601a      	str	r2, [r3, #0]
 8001192:	4b04      	ldr	r3, [pc, #16]	; (80011a4 <SystemInit+0xec>)
 8001194:	f04f 6200 	mov.w	r2, #134217728	; 0x8000000
 8001198:	609a      	str	r2, [r3, #8]
 800119a:	bf00      	nop
 800119c:	46bd      	mov	sp, r7
 800119e:	f85d 7b04 	ldr.w	r7, [sp], #4
 80011a2:	4770      	bx	lr
 80011a4:	e000ed00 	.word	0xe000ed00
 80011a8:	52002000 	.word	0x52002000
 80011ac:	58024400 	.word	0x58024400
 80011b0:	eaf6ed7f 	.word	0xeaf6ed7f
 80011b4:	02020200 	.word	0x02020200
 80011b8:	01ff0000 	.word	0x01ff0000
 80011bc:	01010280 	.word	0x01010280
 80011c0:	5c001000 	.word	0x5c001000
 80011c4:	ffff0000 	.word	0xffff0000
 80011c8:	51008108 	.word	0x51008108
 80011cc:	52004000 	.word	0x52004000

080011d0 <Reset_Handler>:
 80011d0:	f8df d034 	ldr.w	sp, [pc, #52]	; 8001208 <LoopFillZerobss+0x10>
 80011d4:	f7ff ff70 	bl	80010b8 <SystemInit>
 80011d8:	2100      	movs	r1, #0
 80011da:	e003      	b.n	80011e4 <LoopCopyDataInit>

080011dc <CopyDataInit>:
 80011dc:	4b0b      	ldr	r3, [pc, #44]	; (800120c <LoopFillZerobss+0x14>)
 80011de:	585b      	ldr	r3, [r3, r1]
 80011e0:	5043      	str	r3, [r0, r1]
 80011e2:	3104      	adds	r1, #4

080011e4 <LoopCopyDataInit>:
 80011e4:	480a      	ldr	r0, [pc, #40]	; (8001210 <LoopFillZerobss+0x18>)
 80011e6:	4b0b      	ldr	r3, [pc, #44]	; (8001214 <LoopFillZerobss+0x1c>)
 80011e8:	1842      	adds	r2, r0, r1
 80011ea:	429a      	cmp	r2, r3
 80011ec:	d3f6      	bcc.n	80011dc <CopyDataInit>
 80011ee:	4a0a      	ldr	r2, [pc, #40]	; (8001218 <LoopFillZerobss+0x20>)
 80011f0:	e002      	b.n	80011f8 <LoopFillZerobss>

080011f2 <FillZerobss>:
 80011f2:	2300      	movs	r3, #0
 80011f4:	f842 3b04 	str.w	r3, [r2], #4

080011f8 <LoopFillZerobss>:
 80011f8:	4b08      	ldr	r3, [pc, #32]	; (800121c <LoopFillZerobss+0x24>)
 80011fa:	429a      	cmp	r2, r3
 80011fc:	d3f9      	bcc.n	80011f2 <FillZerobss>
 80011fe:	f005 f985 	bl	800650c <__libc_init_array>
 8001202:	f7ff fa3d 	bl	8000680 <main>
 8001206:	4770      	bx	lr
 8001208:	24080000 	.word	0x24080000
 800120c:	080076b8 	.word	0x080076b8
 8001210:	24000000 	.word	0x24000000
 8001214:	24000074 	.word	0x24000074
 8001218:	24000074 	.word	0x24000074
 800121c:	24000268 	.word	0x24000268

08001220 <ADC3_IRQHandler>:
 8001220:	e7fe      	b.n	8001220 <ADC3_IRQHandler>
	...

08001224 <HAL_Init>:
 8001224:	b580      	push	{r7, lr}
 8001226:	b082      	sub	sp, #8
 8001228:	af00      	add	r7, sp, #0
 800122a:	2003      	movs	r0, #3
 800122c:	f000 f98a 	bl	8001544 <HAL_NVIC_SetPriorityGrouping>
 8001230:	f002 faaa 	bl	8003788 <HAL_RCC_GetSysClockFreq>
 8001234:	4601      	mov	r1, r0
 8001236:	4b15      	ldr	r3, [pc, #84]	; (800128c <HAL_Init+0x68>)
 8001238:	699b      	ldr	r3, [r3, #24]
 800123a:	0a1b      	lsrs	r3, r3, #8
 800123c:	f003 030f 	and.w	r3, r3, #15
 8001240:	4a13      	ldr	r2, [pc, #76]	; (8001290 <HAL_Init+0x6c>)
 8001242:	5cd3      	ldrb	r3, [r2, r3]
 8001244:	f003 031f 	and.w	r3, r3, #31
 8001248:	fa21 f303 	lsr.w	r3, r1, r3
 800124c:	607b      	str	r3, [r7, #4]
 800124e:	4b0f      	ldr	r3, [pc, #60]	; (800128c <HAL_Init+0x68>)
 8001250:	699b      	ldr	r3, [r3, #24]
 8001252:	f003 030f 	and.w	r3, r3, #15
 8001256:	4a0e      	ldr	r2, [pc, #56]	; (8001290 <HAL_Init+0x6c>)
 8001258:	5cd3      	ldrb	r3, [r2, r3]
 800125a:	f003 031f 	and.w	r3, r3, #31
 800125e:	687a      	ldr	r2, [r7, #4]
 8001260:	fa22 f303 	lsr.w	r3, r2, r3
 8001264:	4a0b      	ldr	r2, [pc, #44]	; (8001294 <HAL_Init+0x70>)
 8001266:	6013      	str	r3, [r2, #0]
 8001268:	4a0b      	ldr	r2, [pc, #44]	; (8001298 <HAL_Init+0x74>)
 800126a:	687b      	ldr	r3, [r7, #4]
 800126c:	6013      	str	r3, [r2, #0]
 800126e:	2000      	movs	r0, #0
 8001270:	f000 f814 	bl	800129c <HAL_InitTick>
 8001274:	4603      	mov	r3, r0
 8001276:	2b00      	cmp	r3, #0
 8001278:	d001      	beq.n	800127e <HAL_Init+0x5a>
 800127a:	2301      	movs	r3, #1
 800127c:	e002      	b.n	8001284 <HAL_Init+0x60>
 800127e:	f7ff fdf7 	bl	8000e70 <HAL_MspInit>
 8001282:	2300      	movs	r3, #0
 8001284:	4618      	mov	r0, r3
 8001286:	3708      	adds	r7, #8
 8001288:	46bd      	mov	sp, r7
 800128a:	bd80      	pop	{r7, pc}
 800128c:	58024400 	.word	0x58024400
 8001290:	080075d8 	.word	0x080075d8
 8001294:	24000004 	.word	0x24000004
 8001298:	24000000 	.word	0x24000000

0800129c <HAL_InitTick>:
 800129c:	b580      	push	{r7, lr}
 800129e:	b082      	sub	sp, #8
 80012a0:	af00      	add	r7, sp, #0
 80012a2:	6078      	str	r0, [r7, #4]
 80012a4:	4b15      	ldr	r3, [pc, #84]	; (80012fc <HAL_InitTick+0x60>)
 80012a6:	781b      	ldrb	r3, [r3, #0]
 80012a8:	2b00      	cmp	r3, #0
 80012aa:	d101      	bne.n	80012b0 <HAL_InitTick+0x14>
 80012ac:	2301      	movs	r3, #1
 80012ae:	e021      	b.n	80012f4 <HAL_InitTick+0x58>
 80012b0:	4b13      	ldr	r3, [pc, #76]	; (8001300 <HAL_InitTick+0x64>)
 80012b2:	681a      	ldr	r2, [r3, #0]
 80012b4:	4b11      	ldr	r3, [pc, #68]	; (80012fc <HAL_InitTick+0x60>)
 80012b6:	781b      	ldrb	r3, [r3, #0]
 80012b8:	4619      	mov	r1, r3
 80012ba:	f44f 737a 	mov.w	r3, #1000	; 0x3e8
 80012be:	fbb3 f3f1 	udiv	r3, r3, r1
 80012c2:	fbb2 f3f3 	udiv	r3, r2, r3
 80012c6:	4618      	mov	r0, r3
 80012c8:	f000 f96f 	bl	80015aa <HAL_SYSTICK_Config>
 80012cc:	4603      	mov	r3, r0
 80012ce:	2b00      	cmp	r3, #0
 80012d0:	d001      	beq.n	80012d6 <HAL_InitTick+0x3a>
 80012d2:	2301      	movs	r3, #1
 80012d4:	e00e      	b.n	80012f4 <HAL_InitTick+0x58>
 80012d6:	687b      	ldr	r3, [r7, #4]
 80012d8:	2b0f      	cmp	r3, #15
 80012da:	d80a      	bhi.n	80012f2 <HAL_InitTick+0x56>
 80012dc:	2200      	movs	r2, #0
 80012de:	6879      	ldr	r1, [r7, #4]
 80012e0:	f04f 30ff 	mov.w	r0, #4294967295
 80012e4:	f000 f939 	bl	800155a <HAL_NVIC_SetPriority>
 80012e8:	4a06      	ldr	r2, [pc, #24]	; (8001304 <HAL_InitTick+0x68>)
 80012ea:	687b      	ldr	r3, [r7, #4]
 80012ec:	6013      	str	r3, [r2, #0]
 80012ee:	2300      	movs	r3, #0
 80012f0:	e000      	b.n	80012f4 <HAL_InitTick+0x58>
 80012f2:	2301      	movs	r3, #1
 80012f4:	4618      	mov	r0, r3
 80012f6:	3708      	adds	r7, #8
 80012f8:	46bd      	mov	sp, r7
 80012fa:	bd80      	pop	{r7, pc}
 80012fc:	2400000c 	.word	0x2400000c
 8001300:	24000000 	.word	0x24000000
 8001304:	24000008 	.word	0x24000008

08001308 <HAL_IncTick>:
 8001308:	b480      	push	{r7}
 800130a:	af00      	add	r7, sp, #0
 800130c:	4b06      	ldr	r3, [pc, #24]	; (8001328 <HAL_IncTick+0x20>)
 800130e:	781b      	ldrb	r3, [r3, #0]
 8001310:	461a      	mov	r2, r3
 8001312:	4b06      	ldr	r3, [pc, #24]	; (800132c <HAL_IncTick+0x24>)
 8001314:	681b      	ldr	r3, [r3, #0]
 8001316:	4413      	add	r3, r2
 8001318:	4a04      	ldr	r2, [pc, #16]	; (800132c <HAL_IncTick+0x24>)
 800131a:	6013      	str	r3, [r2, #0]
 800131c:	bf00      	nop
 800131e:	46bd      	mov	sp, r7
 8001320:	f85d 7b04 	ldr.w	r7, [sp], #4
 8001324:	4770      	bx	lr
 8001326:	bf00      	nop
 8001328:	2400000c 	.word	0x2400000c
 800132c:	24000260 	.word	0x24000260

08001330 <HAL_GetTick>:
 8001330:	b480      	push	{r7}
 8001332:	af00      	add	r7, sp, #0
 8001334:	4b03      	ldr	r3, [pc, #12]	; (8001344 <HAL_GetTick+0x14>)
 8001336:	681b      	ldr	r3, [r3, #0]
 8001338:	4618      	mov	r0, r3
 800133a:	46bd      	mov	sp, r7
 800133c:	f85d 7b04 	ldr.w	r7, [sp], #4
 8001340:	4770      	bx	lr
 8001342:	bf00      	nop
 8001344:	24000260 	.word	0x24000260

08001348 <HAL_Delay>:
 8001348:	b580      	push	{r7, lr}
 800134a:	b084      	sub	sp, #16
 800134c:	af00      	add	r7, sp, #0
 800134e:	6078      	str	r0, [r7, #4]
 8001350:	f7ff ffee 	bl	8001330 <HAL_GetTick>
 8001354:	60b8      	str	r0, [r7, #8]
 8001356:	687b      	ldr	r3, [r7, #4]
 8001358:	60fb      	str	r3, [r7, #12]
 800135a:	68fb      	ldr	r3, [r7, #12]
 800135c:	f1b3 3fff 	cmp.w	r3, #4294967295
 8001360:	d005      	beq.n	800136e <HAL_Delay+0x26>
 8001362:	4b09      	ldr	r3, [pc, #36]	; (8001388 <HAL_Delay+0x40>)
 8001364:	781b      	ldrb	r3, [r3, #0]
 8001366:	461a      	mov	r2, r3
 8001368:	68fb      	ldr	r3, [r7, #12]
 800136a:	4413      	add	r3, r2
 800136c:	60fb      	str	r3, [r7, #12]
 800136e:	bf00      	nop
 8001370:	f7ff ffde 	bl	8001330 <HAL_GetTick>
 8001374:	4602      	mov	r2, r0
 8001376:	68bb      	ldr	r3, [r7, #8]
 8001378:	1ad3      	subs	r3, r2, r3
 800137a:	68fa      	ldr	r2, [r7, #12]
 800137c:	429a      	cmp	r2, r3
 800137e:	d8f7      	bhi.n	8001370 <HAL_Delay+0x28>
 8001380:	bf00      	nop
 8001382:	3710      	adds	r7, #16
 8001384:	46bd      	mov	sp, r7
 8001386:	bd80      	pop	{r7, pc}
 8001388:	2400000c 	.word	0x2400000c

0800138c <HAL_GetREVID>:
 800138c:	b480      	push	{r7}
 800138e:	af00      	add	r7, sp, #0
 8001390:	4b03      	ldr	r3, [pc, #12]	; (80013a0 <HAL_GetREVID+0x14>)
 8001392:	681b      	ldr	r3, [r3, #0]
 8001394:	0c1b      	lsrs	r3, r3, #16
 8001396:	4618      	mov	r0, r3
 8001398:	46bd      	mov	sp, r7
 800139a:	f85d 7b04 	ldr.w	r7, [sp], #4
 800139e:	4770      	bx	lr
 80013a0:	5c001000 	.word	0x5c001000

080013a4 <__NVIC_SetPriorityGrouping>:
 80013a4:	b480      	push	{r7}
 80013a6:	b085      	sub	sp, #20
 80013a8:	af00      	add	r7, sp, #0
 80013aa:	6078      	str	r0, [r7, #4]
 80013ac:	687b      	ldr	r3, [r7, #4]
 80013ae:	f003 0307 	and.w	r3, r3, #7
 80013b2:	60fb      	str	r3, [r7, #12]
 80013b4:	4b0b      	ldr	r3, [pc, #44]	; (80013e4 <__NVIC_SetPriorityGrouping+0x40>)
 80013b6:	68db      	ldr	r3, [r3, #12]
 80013b8:	60bb      	str	r3, [r7, #8]
 80013ba:	68ba      	ldr	r2, [r7, #8]
 80013bc:	f64f 03ff 	movw	r3, #63743	; 0xf8ff
 80013c0:	4013      	ands	r3, r2
 80013c2:	60bb      	str	r3, [r7, #8]
 80013c4:	68fb      	ldr	r3, [r7, #12]
 80013c6:	021a      	lsls	r2, r3, #8
 80013c8:	68bb      	ldr	r3, [r7, #8]
 80013ca:	431a      	orrs	r2, r3
 80013cc:	4b06      	ldr	r3, [pc, #24]	; (80013e8 <__NVIC_SetPriorityGrouping+0x44>)
 80013ce:	4313      	orrs	r3, r2
 80013d0:	60bb      	str	r3, [r7, #8]
 80013d2:	4a04      	ldr	r2, [pc, #16]	; (80013e4 <__NVIC_SetPriorityGrouping+0x40>)
 80013d4:	68bb      	ldr	r3, [r7, #8]
 80013d6:	60d3      	str	r3, [r2, #12]
 80013d8:	bf00      	nop
 80013da:	3714      	adds	r7, #20
 80013dc:	46bd      	mov	sp, r7
 80013de:	f85d 7b04 	ldr.w	r7, [sp], #4
 80013e2:	4770      	bx	lr
 80013e4:	e000ed00 	.word	0xe000ed00
 80013e8:	05fa0000 	.word	0x05fa0000

080013ec <__NVIC_GetPriorityGrouping>:
 80013ec:	b480      	push	{r7}
 80013ee:	af00      	add	r7, sp, #0
 80013f0:	4b04      	ldr	r3, [pc, #16]	; (8001404 <__NVIC_GetPriorityGrouping+0x18>)
 80013f2:	68db      	ldr	r3, [r3, #12]
 80013f4:	0a1b      	lsrs	r3, r3, #8
 80013f6:	f003 0307 	and.w	r3, r3, #7
 80013fa:	4618      	mov	r0, r3
 80013fc:	46bd      	mov	sp, r7
 80013fe:	f85d 7b04 	ldr.w	r7, [sp], #4
 8001402:	4770      	bx	lr
 8001404:	e000ed00 	.word	0xe000ed00

08001408 <__NVIC_EnableIRQ>:
 8001408:	b480      	push	{r7}
 800140a:	b083      	sub	sp, #12
 800140c:	af00      	add	r7, sp, #0
 800140e:	4603      	mov	r3, r0
 8001410:	80fb      	strh	r3, [r7, #6]
 8001412:	f9b7 3006 	ldrsh.w	r3, [r7, #6]
 8001416:	2b00      	cmp	r3, #0
 8001418:	db0b      	blt.n	8001432 <__NVIC_EnableIRQ+0x2a>
 800141a:	88fb      	ldrh	r3, [r7, #6]
 800141c:	f003 021f 	and.w	r2, r3, #31
 8001420:	4907      	ldr	r1, [pc, #28]	; (8001440 <__NVIC_EnableIRQ+0x38>)
 8001422:	f9b7 3006 	ldrsh.w	r3, [r7, #6]
 8001426:	095b      	lsrs	r3, r3, #5
 8001428:	2001      	movs	r0, #1
 800142a:	fa00 f202 	lsl.w	r2, r0, r2
 800142e:	f841 2023 	str.w	r2, [r1, r3, lsl #2]
 8001432:	bf00      	nop
 8001434:	370c      	adds	r7, #12
 8001436:	46bd      	mov	sp, r7
 8001438:	f85d 7b04 	ldr.w	r7, [sp], #4
 800143c:	4770      	bx	lr
 800143e:	bf00      	nop
 8001440:	e000e100 	.word	0xe000e100

08001444 <__NVIC_SetPriority>:
 8001444:	b480      	push	{r7}
 8001446:	b083      	sub	sp, #12
 8001448:	af00      	add	r7, sp, #0
 800144a:	4603      	mov	r3, r0
 800144c:	6039      	str	r1, [r7, #0]
 800144e:	80fb      	strh	r3, [r7, #6]
 8001450:	f9b7 3006 	ldrsh.w	r3, [r7, #6]
 8001454:	2b00      	cmp	r3, #0
 8001456:	db0a      	blt.n	800146e <__NVIC_SetPriority+0x2a>
 8001458:	683b      	ldr	r3, [r7, #0]
 800145a:	b2da      	uxtb	r2, r3
 800145c:	490c      	ldr	r1, [pc, #48]	; (8001490 <__NVIC_SetPriority+0x4c>)
 800145e:	f9b7 3006 	ldrsh.w	r3, [r7, #6]
 8001462:	0112      	lsls	r2, r2, #4
 8001464:	b2d2      	uxtb	r2, r2
 8001466:	440b      	add	r3, r1
 8001468:	f883 2300 	strb.w	r2, [r3, #768]	; 0x300
 800146c:	e00a      	b.n	8001484 <__NVIC_SetPriority+0x40>
 800146e:	683b      	ldr	r3, [r7, #0]
 8001470:	b2da      	uxtb	r2, r3
 8001472:	4908      	ldr	r1, [pc, #32]	; (8001494 <__NVIC_SetPriority+0x50>)
 8001474:	88fb      	ldrh	r3, [r7, #6]
 8001476:	f003 030f 	and.w	r3, r3, #15
 800147a:	3b04      	subs	r3, #4
 800147c:	0112      	lsls	r2, r2, #4
 800147e:	b2d2      	uxtb	r2, r2
 8001480:	440b      	add	r3, r1
 8001482:	761a      	strb	r2, [r3, #24]
 8001484:	bf00      	nop
 8001486:	370c      	adds	r7, #12
 8001488:	46bd      	mov	sp, r7
 800148a:	f85d 7b04 	ldr.w	r7, [sp], #4
 800148e:	4770      	bx	lr
 8001490:	e000e100 	.word	0xe000e100
 8001494:	e000ed00 	.word	0xe000ed00

08001498 <NVIC_EncodePriority>:
 8001498:	b480      	push	{r7}
 800149a:	b089      	sub	sp, #36	; 0x24
 800149c:	af00      	add	r7, sp, #0
 800149e:	60f8      	str	r0, [r7, #12]
 80014a0:	60b9      	str	r1, [r7, #8]
 80014a2:	607a      	str	r2, [r7, #4]
 80014a4:	68fb      	ldr	r3, [r7, #12]
 80014a6:	f003 0307 	and.w	r3, r3, #7
 80014aa:	61fb      	str	r3, [r7, #28]
 80014ac:	69fb      	ldr	r3, [r7, #28]
 80014ae:	f1c3 0307 	rsb	r3, r3, #7
 80014b2:	2b04      	cmp	r3, #4
 80014b4:	bf28      	it	cs
 80014b6:	2304      	movcs	r3, #4
 80014b8:	61bb      	str	r3, [r7, #24]
 80014ba:	69fb      	ldr	r3, [r7, #28]
 80014bc:	3304      	adds	r3, #4
 80014be:	2b06      	cmp	r3, #6
 80014c0:	d902      	bls.n	80014c8 <NVIC_EncodePriority+0x30>
 80014c2:	69fb      	ldr	r3, [r7, #28]
 80014c4:	3b03      	subs	r3, #3
 80014c6:	e000      	b.n	80014ca <NVIC_EncodePriority+0x32>
 80014c8:	2300      	movs	r3, #0
 80014ca:	617b      	str	r3, [r7, #20]
 80014cc:	f04f 32ff 	mov.w	r2, #4294967295
 80014d0:	69bb      	ldr	r3, [r7, #24]
 80014d2:	fa02 f303 	lsl.w	r3, r2, r3
 80014d6:	43da      	mvns	r2, r3
 80014d8:	68bb      	ldr	r3, [r7, #8]
 80014da:	401a      	ands	r2, r3
 80014dc:	697b      	ldr	r3, [r7, #20]
 80014de:	409a      	lsls	r2, r3
 80014e0:	f04f 31ff 	mov.w	r1, #4294967295
 80014e4:	697b      	ldr	r3, [r7, #20]
 80014e6:	fa01 f303 	lsl.w	r3, r1, r3
 80014ea:	43d9      	mvns	r1, r3
 80014ec:	687b      	ldr	r3, [r7, #4]
 80014ee:	400b      	ands	r3, r1
 80014f0:	4313      	orrs	r3, r2
 80014f2:	4618      	mov	r0, r3
 80014f4:	3724      	adds	r7, #36	; 0x24
 80014f6:	46bd      	mov	sp, r7
 80014f8:	f85d 7b04 	ldr.w	r7, [sp], #4
 80014fc:	4770      	bx	lr
	...

08001500 <SysTick_Config>:
 8001500:	b580      	push	{r7, lr}
 8001502:	b082      	sub	sp, #8
 8001504:	af00      	add	r7, sp, #0
 8001506:	6078      	str	r0, [r7, #4]
 8001508:	687b      	ldr	r3, [r7, #4]
 800150a:	3b01      	subs	r3, #1
 800150c:	f1b3 7f80 	cmp.w	r3, #16777216	; 0x1000000
 8001510:	d301      	bcc.n	8001516 <SysTick_Config+0x16>
 8001512:	2301      	movs	r3, #1
 8001514:	e00f      	b.n	8001536 <SysTick_Config+0x36>
 8001516:	4a0a      	ldr	r2, [pc, #40]	; (8001540 <SysTick_Config+0x40>)
 8001518:	687b      	ldr	r3, [r7, #4]
 800151a:	3b01      	subs	r3, #1
 800151c:	6053      	str	r3, [r2, #4]
 800151e:	210f      	movs	r1, #15
 8001520:	f04f 30ff 	mov.w	r0, #4294967295
 8001524:	f7ff ff8e 	bl	8001444 <__NVIC_SetPriority>
 8001528:	4b05      	ldr	r3, [pc, #20]	; (8001540 <SysTick_Config+0x40>)
 800152a:	2200      	movs	r2, #0
 800152c:	609a      	str	r2, [r3, #8]
 800152e:	4b04      	ldr	r3, [pc, #16]	; (8001540 <SysTick_Config+0x40>)
 8001530:	2207      	movs	r2, #7
 8001532:	601a      	str	r2, [r3, #0]
 8001534:	2300      	movs	r3, #0
 8001536:	4618      	mov	r0, r3
 8001538:	3708      	adds	r7, #8
 800153a:	46bd      	mov	sp, r7
 800153c:	bd80      	pop	{r7, pc}
 800153e:	bf00      	nop
 8001540:	e000e010 	.word	0xe000e010

08001544 <HAL_NVIC_SetPriorityGrouping>:
 8001544:	b580      	push	{r7, lr}
 8001546:	b082      	sub	sp, #8
 8001548:	af00      	add	r7, sp, #0
 800154a:	6078      	str	r0, [r7, #4]
 800154c:	6878      	ldr	r0, [r7, #4]
 800154e:	f7ff ff29 	bl	80013a4 <__NVIC_SetPriorityGrouping>
 8001552:	bf00      	nop
 8001554:	3708      	adds	r7, #8
 8001556:	46bd      	mov	sp, r7
 8001558:	bd80      	pop	{r7, pc}

0800155a <HAL_NVIC_SetPriority>:
 800155a:	b580      	push	{r7, lr}
 800155c:	b086      	sub	sp, #24
 800155e:	af00      	add	r7, sp, #0
 8001560:	4603      	mov	r3, r0
 8001562:	60b9      	str	r1, [r7, #8]
 8001564:	607a      	str	r2, [r7, #4]
 8001566:	81fb      	strh	r3, [r7, #14]
 8001568:	f7ff ff40 	bl	80013ec <__NVIC_GetPriorityGrouping>
 800156c:	6178      	str	r0, [r7, #20]
 800156e:	687a      	ldr	r2, [r7, #4]
 8001570:	68b9      	ldr	r1, [r7, #8]
 8001572:	6978      	ldr	r0, [r7, #20]
 8001574:	f7ff ff90 	bl	8001498 <NVIC_EncodePriority>
 8001578:	4602      	mov	r2, r0
 800157a:	f9b7 300e 	ldrsh.w	r3, [r7, #14]
 800157e:	4611      	mov	r1, r2
 8001580:	4618      	mov	r0, r3
 8001582:	f7ff ff5f 	bl	8001444 <__NVIC_SetPriority>
 8001586:	bf00      	nop
 8001588:	3718      	adds	r7, #24
 800158a:	46bd      	mov	sp, r7
 800158c:	bd80      	pop	{r7, pc}

0800158e <HAL_NVIC_EnableIRQ>:
 800158e:	b580      	push	{r7, lr}
 8001590:	b082      	sub	sp, #8
 8001592:	af00      	add	r7, sp, #0
 8001594:	4603      	mov	r3, r0
 8001596:	80fb      	strh	r3, [r7, #6]
 8001598:	f9b7 3006 	ldrsh.w	r3, [r7, #6]
 800159c:	4618      	mov	r0, r3
 800159e:	f7ff ff33 	bl	8001408 <__NVIC_EnableIRQ>
 80015a2:	bf00      	nop
 80015a4:	3708      	adds	r7, #8
 80015a6:	46bd      	mov	sp, r7
 80015a8:	bd80      	pop	{r7, pc}

080015aa <HAL_SYSTICK_Config>:
 80015aa:	b580      	push	{r7, lr}
 80015ac:	b082      	sub	sp, #8
 80015ae:	af00      	add	r7, sp, #0
 80015b0:	6078      	str	r0, [r7, #4]
 80015b2:	6878      	ldr	r0, [r7, #4]
 80015b4:	f7ff ffa4 	bl	8001500 <SysTick_Config>
 80015b8:	4603      	mov	r3, r0
 80015ba:	4618      	mov	r0, r3
 80015bc:	3708      	adds	r7, #8
 80015be:	46bd      	mov	sp, r7
 80015c0:	bd80      	pop	{r7, pc}
	...

080015c4 <HAL_FDCAN_Init>:
 80015c4:	b580      	push	{r7, lr}
 80015c6:	b098      	sub	sp, #96	; 0x60
 80015c8:	af00      	add	r7, sp, #0
 80015ca:	6078      	str	r0, [r7, #4]
 80015cc:	4a84      	ldr	r2, [pc, #528]	; (80017e0 <HAL_FDCAN_Init+0x21c>)
 80015ce:	f107 030c 	add.w	r3, r7, #12
 80015d2:	4611      	mov	r1, r2
 80015d4:	224c      	movs	r2, #76	; 0x4c
 80015d6:	4618      	mov	r0, r3
 80015d8:	f004 ffbc 	bl	8006554 <memcpy>
 80015dc:	687b      	ldr	r3, [r7, #4]
 80015de:	2b00      	cmp	r3, #0
 80015e0:	d101      	bne.n	80015e6 <HAL_FDCAN_Init+0x22>
 80015e2:	2301      	movs	r3, #1
 80015e4:	e1ca      	b.n	800197c <HAL_FDCAN_Init+0x3b8>
 80015e6:	687b      	ldr	r3, [r7, #4]
 80015e8:	681b      	ldr	r3, [r3, #0]
 80015ea:	4a7e      	ldr	r2, [pc, #504]	; (80017e4 <HAL_FDCAN_Init+0x220>)
 80015ec:	4293      	cmp	r3, r2
 80015ee:	d106      	bne.n	80015fe <HAL_FDCAN_Init+0x3a>
 80015f0:	687b      	ldr	r3, [r7, #4]
 80015f2:	681b      	ldr	r3, [r3, #0]
 80015f4:	f503 7380 	add.w	r3, r3, #256	; 0x100
 80015f8:	461a      	mov	r2, r3
 80015fa:	687b      	ldr	r3, [r7, #4]
 80015fc:	605a      	str	r2, [r3, #4]
 80015fe:	687b      	ldr	r3, [r7, #4]
 8001600:	f893 3098 	ldrb.w	r3, [r3, #152]	; 0x98
 8001604:	b2db      	uxtb	r3, r3
 8001606:	2b00      	cmp	r3, #0
 8001608:	d106      	bne.n	8001618 <HAL_FDCAN_Init+0x54>
 800160a:	687b      	ldr	r3, [r7, #4]
 800160c:	2200      	movs	r2, #0
 800160e:	f883 2099 	strb.w	r2, [r3, #153]	; 0x99
 8001612:	6878      	ldr	r0, [r7, #4]
 8001614:	f7ff fc46 	bl	8000ea4 <HAL_FDCAN_MspInit>
 8001618:	687b      	ldr	r3, [r7, #4]
 800161a:	681b      	ldr	r3, [r3, #0]
 800161c:	699a      	ldr	r2, [r3, #24]
 800161e:	687b      	ldr	r3, [r7, #4]
 8001620:	681b      	ldr	r3, [r3, #0]
 8001622:	f022 0210 	bic.w	r2, r2, #16
 8001626:	619a      	str	r2, [r3, #24]
 8001628:	f7ff fe82 	bl	8001330 <HAL_GetTick>
 800162c:	65f8      	str	r0, [r7, #92]	; 0x5c
 800162e:	e014      	b.n	800165a <HAL_FDCAN_Init+0x96>
 8001630:	f7ff fe7e 	bl	8001330 <HAL_GetTick>
 8001634:	4602      	mov	r2, r0
 8001636:	6dfb      	ldr	r3, [r7, #92]	; 0x5c
 8001638:	1ad3      	subs	r3, r2, r3
 800163a:	2b0a      	cmp	r3, #10
 800163c:	d90d      	bls.n	800165a <HAL_FDCAN_Init+0x96>
 800163e:	687b      	ldr	r3, [r7, #4]
 8001640:	f8d3 309c 	ldr.w	r3, [r3, #156]	; 0x9c
 8001644:	f043 0201 	orr.w	r2, r3, #1
 8001648:	687b      	ldr	r3, [r7, #4]
 800164a:	f8c3 209c 	str.w	r2, [r3, #156]	; 0x9c
 800164e:	687b      	ldr	r3, [r7, #4]
 8001650:	2203      	movs	r2, #3
 8001652:	f883 2098 	strb.w	r2, [r3, #152]	; 0x98
 8001656:	2301      	movs	r3, #1
 8001658:	e190      	b.n	800197c <HAL_FDCAN_Init+0x3b8>
 800165a:	687b      	ldr	r3, [r7, #4]
 800165c:	681b      	ldr	r3, [r3, #0]
 800165e:	699b      	ldr	r3, [r3, #24]
 8001660:	f003 0308 	and.w	r3, r3, #8
 8001664:	2b08      	cmp	r3, #8
 8001666:	d0e3      	beq.n	8001630 <HAL_FDCAN_Init+0x6c>
 8001668:	687b      	ldr	r3, [r7, #4]
 800166a:	681b      	ldr	r3, [r3, #0]
 800166c:	699a      	ldr	r2, [r3, #24]
 800166e:	687b      	ldr	r3, [r7, #4]
 8001670:	681b      	ldr	r3, [r3, #0]
 8001672:	f042 0201 	orr.w	r2, r2, #1
 8001676:	619a      	str	r2, [r3, #24]
 8001678:	f7ff fe5a 	bl	8001330 <HAL_GetTick>
 800167c:	65f8      	str	r0, [r7, #92]	; 0x5c
 800167e:	e014      	b.n	80016aa <HAL_FDCAN_Init+0xe6>
 8001680:	f7ff fe56 	bl	8001330 <HAL_GetTick>
 8001684:	4602      	mov	r2, r0
 8001686:	6dfb      	ldr	r3, [r7, #92]	; 0x5c
 8001688:	1ad3      	subs	r3, r2, r3
 800168a:	2b0a      	cmp	r3, #10
 800168c:	d90d      	bls.n	80016aa <HAL_FDCAN_Init+0xe6>
 800168e:	687b      	ldr	r3, [r7, #4]
 8001690:	f8d3 309c 	ldr.w	r3, [r3, #156]	; 0x9c
 8001694:	f043 0201 	orr.w	r2, r3, #1
 8001698:	687b      	ldr	r3, [r7, #4]
 800169a:	f8c3 209c 	str.w	r2, [r3, #156]	; 0x9c
 800169e:	687b      	ldr	r3, [r7, #4]
 80016a0:	2203      	movs	r2, #3
 80016a2:	f883 2098 	strb.w	r2, [r3, #152]	; 0x98
 80016a6:	2301      	movs	r3, #1
 80016a8:	e168      	b.n	800197c <HAL_FDCAN_Init+0x3b8>
 80016aa:	687b      	ldr	r3, [r7, #4]
 80016ac:	681b      	ldr	r3, [r3, #0]
 80016ae:	699b      	ldr	r3, [r3, #24]
 80016b0:	f003 0301 	and.w	r3, r3, #1
 80016b4:	2b00      	cmp	r3, #0
 80016b6:	d0e3      	beq.n	8001680 <HAL_FDCAN_Init+0xbc>
 80016b8:	687b      	ldr	r3, [r7, #4]
 80016ba:	681b      	ldr	r3, [r3, #0]
 80016bc:	699a      	ldr	r2, [r3, #24]
 80016be:	687b      	ldr	r3, [r7, #4]
 80016c0:	681b      	ldr	r3, [r3, #0]
 80016c2:	f042 0202 	orr.w	r2, r2, #2
 80016c6:	619a      	str	r2, [r3, #24]
 80016c8:	687b      	ldr	r3, [r7, #4]
 80016ca:	7c1b      	ldrb	r3, [r3, #16]
 80016cc:	2b01      	cmp	r3, #1
 80016ce:	d108      	bne.n	80016e2 <HAL_FDCAN_Init+0x11e>
 80016d0:	687b      	ldr	r3, [r7, #4]
 80016d2:	681b      	ldr	r3, [r3, #0]
 80016d4:	699a      	ldr	r2, [r3, #24]
 80016d6:	687b      	ldr	r3, [r7, #4]
 80016d8:	681b      	ldr	r3, [r3, #0]
 80016da:	f022 0240 	bic.w	r2, r2, #64	; 0x40
 80016de:	619a      	str	r2, [r3, #24]
 80016e0:	e007      	b.n	80016f2 <HAL_FDCAN_Init+0x12e>
 80016e2:	687b      	ldr	r3, [r7, #4]
 80016e4:	681b      	ldr	r3, [r3, #0]
 80016e6:	699a      	ldr	r2, [r3, #24]
 80016e8:	687b      	ldr	r3, [r7, #4]
 80016ea:	681b      	ldr	r3, [r3, #0]
 80016ec:	f042 0240 	orr.w	r2, r2, #64	; 0x40
 80016f0:	619a      	str	r2, [r3, #24]
 80016f2:	687b      	ldr	r3, [r7, #4]
 80016f4:	7c5b      	ldrb	r3, [r3, #17]
 80016f6:	2b01      	cmp	r3, #1
 80016f8:	d108      	bne.n	800170c <HAL_FDCAN_Init+0x148>
 80016fa:	687b      	ldr	r3, [r7, #4]
 80016fc:	681b      	ldr	r3, [r3, #0]
 80016fe:	699a      	ldr	r2, [r3, #24]
 8001700:	687b      	ldr	r3, [r7, #4]
 8001702:	681b      	ldr	r3, [r3, #0]
 8001704:	f442 4280 	orr.w	r2, r2, #16384	; 0x4000
 8001708:	619a      	str	r2, [r3, #24]
 800170a:	e007      	b.n	800171c <HAL_FDCAN_Init+0x158>
 800170c:	687b      	ldr	r3, [r7, #4]
 800170e:	681b      	ldr	r3, [r3, #0]
 8001710:	699a      	ldr	r2, [r3, #24]
 8001712:	687b      	ldr	r3, [r7, #4]
 8001714:	681b      	ldr	r3, [r3, #0]
 8001716:	f422 4280 	bic.w	r2, r2, #16384	; 0x4000
 800171a:	619a      	str	r2, [r3, #24]
 800171c:	687b      	ldr	r3, [r7, #4]
 800171e:	7c9b      	ldrb	r3, [r3, #18]
 8001720:	2b01      	cmp	r3, #1
 8001722:	d108      	bne.n	8001736 <HAL_FDCAN_Init+0x172>
 8001724:	687b      	ldr	r3, [r7, #4]
 8001726:	681b      	ldr	r3, [r3, #0]
 8001728:	699a      	ldr	r2, [r3, #24]
 800172a:	687b      	ldr	r3, [r7, #4]
 800172c:	681b      	ldr	r3, [r3, #0]
 800172e:	f422 5280 	bic.w	r2, r2, #4096	; 0x1000
 8001732:	619a      	str	r2, [r3, #24]
 8001734:	e007      	b.n	8001746 <HAL_FDCAN_Init+0x182>
 8001736:	687b      	ldr	r3, [r7, #4]
 8001738:	681b      	ldr	r3, [r3, #0]
 800173a:	699a      	ldr	r2, [r3, #24]
 800173c:	687b      	ldr	r3, [r7, #4]
 800173e:	681b      	ldr	r3, [r3, #0]
 8001740:	f442 5280 	orr.w	r2, r2, #4096	; 0x1000
 8001744:	619a      	str	r2, [r3, #24]
 8001746:	687b      	ldr	r3, [r7, #4]
 8001748:	681b      	ldr	r3, [r3, #0]
 800174a:	699b      	ldr	r3, [r3, #24]
 800174c:	f423 7140 	bic.w	r1, r3, #768	; 0x300
 8001750:	687b      	ldr	r3, [r7, #4]
 8001752:	689a      	ldr	r2, [r3, #8]
 8001754:	687b      	ldr	r3, [r7, #4]
 8001756:	681b      	ldr	r3, [r3, #0]
 8001758:	430a      	orrs	r2, r1
 800175a:	619a      	str	r2, [r3, #24]
 800175c:	687b      	ldr	r3, [r7, #4]
 800175e:	681b      	ldr	r3, [r3, #0]
 8001760:	699a      	ldr	r2, [r3, #24]
 8001762:	687b      	ldr	r3, [r7, #4]
 8001764:	681b      	ldr	r3, [r3, #0]
 8001766:	f022 02a4 	bic.w	r2, r2, #164	; 0xa4
 800176a:	619a      	str	r2, [r3, #24]
 800176c:	687b      	ldr	r3, [r7, #4]
 800176e:	681b      	ldr	r3, [r3, #0]
 8001770:	691a      	ldr	r2, [r3, #16]
 8001772:	687b      	ldr	r3, [r7, #4]
 8001774:	681b      	ldr	r3, [r3, #0]
 8001776:	f022 0210 	bic.w	r2, r2, #16
 800177a:	611a      	str	r2, [r3, #16]
 800177c:	687b      	ldr	r3, [r7, #4]
 800177e:	68db      	ldr	r3, [r3, #12]
 8001780:	2b01      	cmp	r3, #1
 8001782:	d108      	bne.n	8001796 <HAL_FDCAN_Init+0x1d2>
 8001784:	687b      	ldr	r3, [r7, #4]
 8001786:	681b      	ldr	r3, [r3, #0]
 8001788:	699a      	ldr	r2, [r3, #24]
 800178a:	687b      	ldr	r3, [r7, #4]
 800178c:	681b      	ldr	r3, [r3, #0]
 800178e:	f042 0204 	orr.w	r2, r2, #4
 8001792:	619a      	str	r2, [r3, #24]
 8001794:	e030      	b.n	80017f8 <HAL_FDCAN_Init+0x234>
 8001796:	687b      	ldr	r3, [r7, #4]
 8001798:	68db      	ldr	r3, [r3, #12]
 800179a:	2b00      	cmp	r3, #0
 800179c:	d02c      	beq.n	80017f8 <HAL_FDCAN_Init+0x234>
 800179e:	687b      	ldr	r3, [r7, #4]
 80017a0:	68db      	ldr	r3, [r3, #12]
 80017a2:	2b02      	cmp	r3, #2
 80017a4:	d020      	beq.n	80017e8 <HAL_FDCAN_Init+0x224>
 80017a6:	687b      	ldr	r3, [r7, #4]
 80017a8:	681b      	ldr	r3, [r3, #0]
 80017aa:	699a      	ldr	r2, [r3, #24]
 80017ac:	687b      	ldr	r3, [r7, #4]
 80017ae:	681b      	ldr	r3, [r3, #0]
 80017b0:	f042 0280 	orr.w	r2, r2, #128	; 0x80
 80017b4:	619a      	str	r2, [r3, #24]
 80017b6:	687b      	ldr	r3, [r7, #4]
 80017b8:	681b      	ldr	r3, [r3, #0]
 80017ba:	691a      	ldr	r2, [r3, #16]
 80017bc:	687b      	ldr	r3, [r7, #4]
 80017be:	681b      	ldr	r3, [r3, #0]
 80017c0:	f042 0210 	orr.w	r2, r2, #16
 80017c4:	611a      	str	r2, [r3, #16]
 80017c6:	687b      	ldr	r3, [r7, #4]
 80017c8:	68db      	ldr	r3, [r3, #12]
 80017ca:	2b03      	cmp	r3, #3
 80017cc:	d114      	bne.n	80017f8 <HAL_FDCAN_Init+0x234>
 80017ce:	687b      	ldr	r3, [r7, #4]
 80017d0:	681b      	ldr	r3, [r3, #0]
 80017d2:	699a      	ldr	r2, [r3, #24]
 80017d4:	687b      	ldr	r3, [r7, #4]
 80017d6:	681b      	ldr	r3, [r3, #0]
 80017d8:	f042 0220 	orr.w	r2, r2, #32
 80017dc:	619a      	str	r2, [r3, #24]
 80017de:	e00b      	b.n	80017f8 <HAL_FDCAN_Init+0x234>
 80017e0:	0800757c 	.word	0x0800757c
 80017e4:	4000a000 	.word	0x4000a000
 80017e8:	687b      	ldr	r3, [r7, #4]
 80017ea:	681b      	ldr	r3, [r3, #0]
 80017ec:	699a      	ldr	r2, [r3, #24]
 80017ee:	687b      	ldr	r3, [r7, #4]
 80017f0:	681b      	ldr	r3, [r3, #0]
 80017f2:	f042 0220 	orr.w	r2, r2, #32
 80017f6:	619a      	str	r2, [r3, #24]
 80017f8:	687b      	ldr	r3, [r7, #4]
 80017fa:	699b      	ldr	r3, [r3, #24]
 80017fc:	3b01      	subs	r3, #1
 80017fe:	065a      	lsls	r2, r3, #25
 8001800:	687b      	ldr	r3, [r7, #4]
 8001802:	69db      	ldr	r3, [r3, #28]
 8001804:	3b01      	subs	r3, #1
 8001806:	021b      	lsls	r3, r3, #8
 8001808:	431a      	orrs	r2, r3
 800180a:	687b      	ldr	r3, [r7, #4]
 800180c:	6a1b      	ldr	r3, [r3, #32]
 800180e:	3b01      	subs	r3, #1
 8001810:	ea42 0103 	orr.w	r1, r2, r3
 8001814:	687b      	ldr	r3, [r7, #4]
 8001816:	695b      	ldr	r3, [r3, #20]
 8001818:	3b01      	subs	r3, #1
 800181a:	041a      	lsls	r2, r3, #16
 800181c:	687b      	ldr	r3, [r7, #4]
 800181e:	681b      	ldr	r3, [r3, #0]
 8001820:	430a      	orrs	r2, r1
 8001822:	61da      	str	r2, [r3, #28]
 8001824:	687b      	ldr	r3, [r7, #4]
 8001826:	689b      	ldr	r3, [r3, #8]
 8001828:	f5b3 7f40 	cmp.w	r3, #768	; 0x300
 800182c:	d115      	bne.n	800185a <HAL_FDCAN_Init+0x296>
 800182e:	687b      	ldr	r3, [r7, #4]
 8001830:	6a9b      	ldr	r3, [r3, #40]	; 0x28
 8001832:	1e5a      	subs	r2, r3, #1
 8001834:	687b      	ldr	r3, [r7, #4]
 8001836:	6adb      	ldr	r3, [r3, #44]	; 0x2c
 8001838:	3b01      	subs	r3, #1
 800183a:	021b      	lsls	r3, r3, #8
 800183c:	431a      	orrs	r2, r3
 800183e:	687b      	ldr	r3, [r7, #4]
 8001840:	6b1b      	ldr	r3, [r3, #48]	; 0x30
 8001842:	3b01      	subs	r3, #1
 8001844:	011b      	lsls	r3, r3, #4
 8001846:	ea42 0103 	orr.w	r1, r2, r3
 800184a:	687b      	ldr	r3, [r7, #4]
 800184c:	6a5b      	ldr	r3, [r3, #36]	; 0x24
 800184e:	3b01      	subs	r3, #1
 8001850:	041a      	lsls	r2, r3, #16
 8001852:	687b      	ldr	r3, [r7, #4]
 8001854:	681b      	ldr	r3, [r3, #0]
 8001856:	430a      	orrs	r2, r1
 8001858:	60da      	str	r2, [r3, #12]
 800185a:	687b      	ldr	r3, [r7, #4]
 800185c:	6e1b      	ldr	r3, [r3, #96]	; 0x60
 800185e:	2b00      	cmp	r3, #0
 8001860:	d00a      	beq.n	8001878 <HAL_FDCAN_Init+0x2b4>
 8001862:	687b      	ldr	r3, [r7, #4]
 8001864:	681b      	ldr	r3, [r3, #0]
 8001866:	f8d3 10c0 	ldr.w	r1, [r3, #192]	; 0xc0
 800186a:	687b      	ldr	r3, [r7, #4]
 800186c:	6e5a      	ldr	r2, [r3, #100]	; 0x64
 800186e:	687b      	ldr	r3, [r7, #4]
 8001870:	681b      	ldr	r3, [r3, #0]
 8001872:	430a      	orrs	r2, r1
 8001874:	f8c3 20c0 	str.w	r2, [r3, #192]	; 0xc0
 8001878:	687b      	ldr	r3, [r7, #4]
 800187a:	6dda      	ldr	r2, [r3, #92]	; 0x5c
 800187c:	687b      	ldr	r3, [r7, #4]
 800187e:	6e1b      	ldr	r3, [r3, #96]	; 0x60
 8001880:	4413      	add	r3, r2
 8001882:	2b00      	cmp	r3, #0
 8001884:	d012      	beq.n	80018ac <HAL_FDCAN_Init+0x2e8>
 8001886:	687b      	ldr	r3, [r7, #4]
 8001888:	681b      	ldr	r3, [r3, #0]
 800188a:	f8d3 30c8 	ldr.w	r3, [r3, #200]	; 0xc8
 800188e:	f023 0107 	bic.w	r1, r3, #7
 8001892:	687b      	ldr	r3, [r7, #4]
 8001894:	6e9b      	ldr	r3, [r3, #104]	; 0x68
 8001896:	009b      	lsls	r3, r3, #2
 8001898:	f107 0260 	add.w	r2, r7, #96	; 0x60
 800189c:	4413      	add	r3, r2
 800189e:	f853 2c54 	ldr.w	r2, [r3, #-84]
 80018a2:	687b      	ldr	r3, [r7, #4]
 80018a4:	681b      	ldr	r3, [r3, #0]
 80018a6:	430a      	orrs	r2, r1
 80018a8:	f8c3 20c8 	str.w	r2, [r3, #200]	; 0xc8
 80018ac:	687b      	ldr	r3, [r7, #4]
 80018ae:	6c1b      	ldr	r3, [r3, #64]	; 0x40
 80018b0:	2b00      	cmp	r3, #0
 80018b2:	d012      	beq.n	80018da <HAL_FDCAN_Init+0x316>
 80018b4:	687b      	ldr	r3, [r7, #4]
 80018b6:	681b      	ldr	r3, [r3, #0]
 80018b8:	f8d3 30bc 	ldr.w	r3, [r3, #188]	; 0xbc
 80018bc:	f023 0107 	bic.w	r1, r3, #7
 80018c0:	687b      	ldr	r3, [r7, #4]
 80018c2:	6c5b      	ldr	r3, [r3, #68]	; 0x44
 80018c4:	009b      	lsls	r3, r3, #2
 80018c6:	f107 0260 	add.w	r2, r7, #96	; 0x60
 80018ca:	4413      	add	r3, r2
 80018cc:	f853 2c54 	ldr.w	r2, [r3, #-84]
 80018d0:	687b      	ldr	r3, [r7, #4]
 80018d2:	681b      	ldr	r3, [r3, #0]
 80018d4:	430a      	orrs	r2, r1
 80018d6:	f8c3 20bc 	str.w	r2, [r3, #188]	; 0xbc
 80018da:	687b      	ldr	r3, [r7, #4]
 80018dc:	6c9b      	ldr	r3, [r3, #72]	; 0x48
 80018de:	2b00      	cmp	r3, #0
 80018e0:	d013      	beq.n	800190a <HAL_FDCAN_Init+0x346>
 80018e2:	687b      	ldr	r3, [r7, #4]
 80018e4:	681b      	ldr	r3, [r3, #0]
 80018e6:	f8d3 30bc 	ldr.w	r3, [r3, #188]	; 0xbc
 80018ea:	f023 0170 	bic.w	r1, r3, #112	; 0x70
 80018ee:	687b      	ldr	r3, [r7, #4]
 80018f0:	6cdb      	ldr	r3, [r3, #76]	; 0x4c
 80018f2:	009b      	lsls	r3, r3, #2
 80018f4:	f107 0260 	add.w	r2, r7, #96	; 0x60
 80018f8:	4413      	add	r3, r2
 80018fa:	f853 3c54 	ldr.w	r3, [r3, #-84]
 80018fe:	011a      	lsls	r2, r3, #4
 8001900:	687b      	ldr	r3, [r7, #4]
 8001902:	681b      	ldr	r3, [r3, #0]
 8001904:	430a      	orrs	r2, r1
 8001906:	f8c3 20bc 	str.w	r2, [r3, #188]	; 0xbc
 800190a:	687b      	ldr	r3, [r7, #4]
 800190c:	6d1b      	ldr	r3, [r3, #80]	; 0x50
 800190e:	2b00      	cmp	r3, #0
 8001910:	d013      	beq.n	800193a <HAL_FDCAN_Init+0x376>
 8001912:	687b      	ldr	r3, [r7, #4]
 8001914:	681b      	ldr	r3, [r3, #0]
 8001916:	f8d3 30bc 	ldr.w	r3, [r3, #188]	; 0xbc
 800191a:	f423 61e0 	bic.w	r1, r3, #1792	; 0x700
 800191e:	687b      	ldr	r3, [r7, #4]
 8001920:	6d5b      	ldr	r3, [r3, #84]	; 0x54
 8001922:	009b      	lsls	r3, r3, #2
 8001924:	f107 0260 	add.w	r2, r7, #96	; 0x60
 8001928:	4413      	add	r3, r2
 800192a:	f853 3c54 	ldr.w	r3, [r3, #-84]
 800192e:	021a      	lsls	r2, r3, #8
 8001930:	687b      	ldr	r3, [r7, #4]
 8001932:	681b      	ldr	r3, [r3, #0]
 8001934:	430a      	orrs	r2, r1
 8001936:	f8c3 20bc 	str.w	r2, [r3, #188]	; 0xbc
 800193a:	687b      	ldr	r3, [r7, #4]
 800193c:	681b      	ldr	r3, [r3, #0]
 800193e:	4a11      	ldr	r2, [pc, #68]	; (8001984 <HAL_FDCAN_Init+0x3c0>)
 8001940:	4293      	cmp	r3, r2
 8001942:	d107      	bne.n	8001954 <HAL_FDCAN_Init+0x390>
 8001944:	687b      	ldr	r3, [r7, #4]
 8001946:	685b      	ldr	r3, [r3, #4]
 8001948:	689a      	ldr	r2, [r3, #8]
 800194a:	687b      	ldr	r3, [r7, #4]
 800194c:	685b      	ldr	r3, [r3, #4]
 800194e:	f022 0203 	bic.w	r2, r2, #3
 8001952:	609a      	str	r2, [r3, #8]
 8001954:	687b      	ldr	r3, [r7, #4]
 8001956:	2200      	movs	r2, #0
 8001958:	f8c3 2094 	str.w	r2, [r3, #148]	; 0x94
 800195c:	687b      	ldr	r3, [r7, #4]
 800195e:	2200      	movs	r2, #0
 8001960:	f8c3 209c 	str.w	r2, [r3, #156]	; 0x9c
 8001964:	687b      	ldr	r3, [r7, #4]
 8001966:	2201      	movs	r2, #1
 8001968:	f883 2098 	strb.w	r2, [r3, #152]	; 0x98
 800196c:	6878      	ldr	r0, [r7, #4]
 800196e:	f000 fdbb 	bl	80024e8 <FDCAN_CalcultateRamBlockAddresses>
 8001972:	4603      	mov	r3, r0
 8001974:	f887 305b 	strb.w	r3, [r7, #91]	; 0x5b
 8001978:	f897 305b 	ldrb.w	r3, [r7, #91]	; 0x5b
 800197c:	4618      	mov	r0, r3
 800197e:	3760      	adds	r7, #96	; 0x60
 8001980:	46bd      	mov	sp, r7
 8001982:	bd80      	pop	{r7, pc}
 8001984:	4000a000 	.word	0x4000a000

08001988 <HAL_FDCAN_ConfigFilter>:
 8001988:	b480      	push	{r7}
 800198a:	b087      	sub	sp, #28
 800198c:	af00      	add	r7, sp, #0
 800198e:	6078      	str	r0, [r7, #4]
 8001990:	6039      	str	r1, [r7, #0]
 8001992:	687b      	ldr	r3, [r7, #4]
 8001994:	f893 3098 	ldrb.w	r3, [r3, #152]	; 0x98
 8001998:	73fb      	strb	r3, [r7, #15]
 800199a:	7bfb      	ldrb	r3, [r7, #15]
 800199c:	2b01      	cmp	r3, #1
 800199e:	d002      	beq.n	80019a6 <HAL_FDCAN_ConfigFilter+0x1e>
 80019a0:	7bfb      	ldrb	r3, [r7, #15]
 80019a2:	2b02      	cmp	r3, #2
 80019a4:	d157      	bne.n	8001a56 <HAL_FDCAN_ConfigFilter+0xce>
 80019a6:	683b      	ldr	r3, [r7, #0]
 80019a8:	681b      	ldr	r3, [r3, #0]
 80019aa:	2b00      	cmp	r3, #0
 80019ac:	d12b      	bne.n	8001a06 <HAL_FDCAN_ConfigFilter+0x7e>
 80019ae:	683b      	ldr	r3, [r7, #0]
 80019b0:	68db      	ldr	r3, [r3, #12]
 80019b2:	2b07      	cmp	r3, #7
 80019b4:	d10d      	bne.n	80019d2 <HAL_FDCAN_ConfigFilter+0x4a>
 80019b6:	683b      	ldr	r3, [r7, #0]
 80019b8:	691b      	ldr	r3, [r3, #16]
 80019ba:	041a      	lsls	r2, r3, #16
 80019bc:	683b      	ldr	r3, [r7, #0]
 80019be:	69db      	ldr	r3, [r3, #28]
 80019c0:	021b      	lsls	r3, r3, #8
 80019c2:	431a      	orrs	r2, r3
 80019c4:	683b      	ldr	r3, [r7, #0]
 80019c6:	699b      	ldr	r3, [r3, #24]
 80019c8:	4313      	orrs	r3, r2
 80019ca:	f043 5360 	orr.w	r3, r3, #939524096	; 0x38000000
 80019ce:	617b      	str	r3, [r7, #20]
 80019d0:	e00e      	b.n	80019f0 <HAL_FDCAN_ConfigFilter+0x68>
 80019d2:	683b      	ldr	r3, [r7, #0]
 80019d4:	689b      	ldr	r3, [r3, #8]
 80019d6:	079a      	lsls	r2, r3, #30
 80019d8:	683b      	ldr	r3, [r7, #0]
 80019da:	68db      	ldr	r3, [r3, #12]
 80019dc:	06db      	lsls	r3, r3, #27
 80019de:	431a      	orrs	r2, r3
 80019e0:	683b      	ldr	r3, [r7, #0]
 80019e2:	691b      	ldr	r3, [r3, #16]
 80019e4:	041b      	lsls	r3, r3, #16
 80019e6:	431a      	orrs	r2, r3
 80019e8:	683b      	ldr	r3, [r7, #0]
 80019ea:	695b      	ldr	r3, [r3, #20]
 80019ec:	4313      	orrs	r3, r2
 80019ee:	617b      	str	r3, [r7, #20]
 80019f0:	687b      	ldr	r3, [r7, #4]
 80019f2:	6eda      	ldr	r2, [r3, #108]	; 0x6c
 80019f4:	683b      	ldr	r3, [r7, #0]
 80019f6:	685b      	ldr	r3, [r3, #4]
 80019f8:	009b      	lsls	r3, r3, #2
 80019fa:	4413      	add	r3, r2
 80019fc:	60bb      	str	r3, [r7, #8]
 80019fe:	68bb      	ldr	r3, [r7, #8]
 8001a00:	697a      	ldr	r2, [r7, #20]
 8001a02:	601a      	str	r2, [r3, #0]
 8001a04:	e025      	b.n	8001a52 <HAL_FDCAN_ConfigFilter+0xca>
 8001a06:	683b      	ldr	r3, [r7, #0]
 8001a08:	68db      	ldr	r3, [r3, #12]
 8001a0a:	075a      	lsls	r2, r3, #29
 8001a0c:	683b      	ldr	r3, [r7, #0]
 8001a0e:	691b      	ldr	r3, [r3, #16]
 8001a10:	4313      	orrs	r3, r2
 8001a12:	617b      	str	r3, [r7, #20]
 8001a14:	683b      	ldr	r3, [r7, #0]
 8001a16:	68db      	ldr	r3, [r3, #12]
 8001a18:	2b07      	cmp	r3, #7
 8001a1a:	d103      	bne.n	8001a24 <HAL_FDCAN_ConfigFilter+0x9c>
 8001a1c:	683b      	ldr	r3, [r7, #0]
 8001a1e:	699b      	ldr	r3, [r3, #24]
 8001a20:	613b      	str	r3, [r7, #16]
 8001a22:	e006      	b.n	8001a32 <HAL_FDCAN_ConfigFilter+0xaa>
 8001a24:	683b      	ldr	r3, [r7, #0]
 8001a26:	689b      	ldr	r3, [r3, #8]
 8001a28:	079a      	lsls	r2, r3, #30
 8001a2a:	683b      	ldr	r3, [r7, #0]
 8001a2c:	695b      	ldr	r3, [r3, #20]
 8001a2e:	4313      	orrs	r3, r2
 8001a30:	613b      	str	r3, [r7, #16]
 8001a32:	687b      	ldr	r3, [r7, #4]
 8001a34:	6f1a      	ldr	r2, [r3, #112]	; 0x70
 8001a36:	683b      	ldr	r3, [r7, #0]
 8001a38:	685b      	ldr	r3, [r3, #4]
 8001a3a:	00db      	lsls	r3, r3, #3
 8001a3c:	4413      	add	r3, r2
 8001a3e:	60bb      	str	r3, [r7, #8]
 8001a40:	68bb      	ldr	r3, [r7, #8]
 8001a42:	697a      	ldr	r2, [r7, #20]
 8001a44:	601a      	str	r2, [r3, #0]
 8001a46:	68bb      	ldr	r3, [r7, #8]
 8001a48:	3304      	adds	r3, #4
 8001a4a:	60bb      	str	r3, [r7, #8]
 8001a4c:	68bb      	ldr	r3, [r7, #8]
 8001a4e:	693a      	ldr	r2, [r7, #16]
 8001a50:	601a      	str	r2, [r3, #0]
 8001a52:	2300      	movs	r3, #0
 8001a54:	e008      	b.n	8001a68 <HAL_FDCAN_ConfigFilter+0xe0>
 8001a56:	687b      	ldr	r3, [r7, #4]
 8001a58:	f8d3 309c 	ldr.w	r3, [r3, #156]	; 0x9c
 8001a5c:	f043 0202 	orr.w	r2, r3, #2
 8001a60:	687b      	ldr	r3, [r7, #4]
 8001a62:	f8c3 209c 	str.w	r2, [r3, #156]	; 0x9c
 8001a66:	2301      	movs	r3, #1
 8001a68:	4618      	mov	r0, r3
 8001a6a:	371c      	adds	r7, #28
 8001a6c:	46bd      	mov	sp, r7
 8001a6e:	f85d 7b04 	ldr.w	r7, [sp], #4
 8001a72:	4770      	bx	lr

08001a74 <HAL_FDCAN_ConfigGlobalFilter>:
 8001a74:	b480      	push	{r7}
 8001a76:	b085      	sub	sp, #20
 8001a78:	af00      	add	r7, sp, #0
 8001a7a:	60f8      	str	r0, [r7, #12]
 8001a7c:	60b9      	str	r1, [r7, #8]
 8001a7e:	607a      	str	r2, [r7, #4]
 8001a80:	603b      	str	r3, [r7, #0]
 8001a82:	68fb      	ldr	r3, [r7, #12]
 8001a84:	f893 3098 	ldrb.w	r3, [r3, #152]	; 0x98
 8001a88:	b2db      	uxtb	r3, r3
 8001a8a:	2b01      	cmp	r3, #1
 8001a8c:	d110      	bne.n	8001ab0 <HAL_FDCAN_ConfigGlobalFilter+0x3c>
 8001a8e:	68bb      	ldr	r3, [r7, #8]
 8001a90:	011a      	lsls	r2, r3, #4
 8001a92:	687b      	ldr	r3, [r7, #4]
 8001a94:	009b      	lsls	r3, r3, #2
 8001a96:	431a      	orrs	r2, r3
 8001a98:	683b      	ldr	r3, [r7, #0]
 8001a9a:	005b      	lsls	r3, r3, #1
 8001a9c:	ea42 0103 	orr.w	r1, r2, r3
 8001aa0:	68fb      	ldr	r3, [r7, #12]
 8001aa2:	681b      	ldr	r3, [r3, #0]
 8001aa4:	69ba      	ldr	r2, [r7, #24]
 8001aa6:	430a      	orrs	r2, r1
 8001aa8:	f8c3 2080 	str.w	r2, [r3, #128]	; 0x80
 8001aac:	2300      	movs	r3, #0
 8001aae:	e008      	b.n	8001ac2 <HAL_FDCAN_ConfigGlobalFilter+0x4e>
 8001ab0:	68fb      	ldr	r3, [r7, #12]
 8001ab2:	f8d3 309c 	ldr.w	r3, [r3, #156]	; 0x9c
 8001ab6:	f043 0204 	orr.w	r2, r3, #4
 8001aba:	68fb      	ldr	r3, [r7, #12]
 8001abc:	f8c3 209c 	str.w	r2, [r3, #156]	; 0x9c
 8001ac0:	2301      	movs	r3, #1
 8001ac2:	4618      	mov	r0, r3
 8001ac4:	3714      	adds	r7, #20
 8001ac6:	46bd      	mov	sp, r7
 8001ac8:	f85d 7b04 	ldr.w	r7, [sp], #4
 8001acc:	4770      	bx	lr

08001ace <HAL_FDCAN_Start>:
 8001ace:	b480      	push	{r7}
 8001ad0:	b083      	sub	sp, #12
 8001ad2:	af00      	add	r7, sp, #0
 8001ad4:	6078      	str	r0, [r7, #4]
 8001ad6:	687b      	ldr	r3, [r7, #4]
 8001ad8:	f893 3098 	ldrb.w	r3, [r3, #152]	; 0x98
 8001adc:	b2db      	uxtb	r3, r3
 8001ade:	2b01      	cmp	r3, #1
 8001ae0:	d111      	bne.n	8001b06 <HAL_FDCAN_Start+0x38>
 8001ae2:	687b      	ldr	r3, [r7, #4]
 8001ae4:	2202      	movs	r2, #2
 8001ae6:	f883 2098 	strb.w	r2, [r3, #152]	; 0x98
 8001aea:	687b      	ldr	r3, [r7, #4]
 8001aec:	681b      	ldr	r3, [r3, #0]
 8001aee:	699a      	ldr	r2, [r3, #24]
 8001af0:	687b      	ldr	r3, [r7, #4]
 8001af2:	681b      	ldr	r3, [r3, #0]
 8001af4:	f022 0201 	bic.w	r2, r2, #1
 8001af8:	619a      	str	r2, [r3, #24]
 8001afa:	687b      	ldr	r3, [r7, #4]
 8001afc:	2200      	movs	r2, #0
 8001afe:	f8c3 209c 	str.w	r2, [r3, #156]	; 0x9c
 8001b02:	2300      	movs	r3, #0
 8001b04:	e008      	b.n	8001b18 <HAL_FDCAN_Start+0x4a>
 8001b06:	687b      	ldr	r3, [r7, #4]
 8001b08:	f8d3 309c 	ldr.w	r3, [r3, #156]	; 0x9c
 8001b0c:	f043 0204 	orr.w	r2, r3, #4
 8001b10:	687b      	ldr	r3, [r7, #4]
 8001b12:	f8c3 209c 	str.w	r2, [r3, #156]	; 0x9c
 8001b16:	2301      	movs	r3, #1
 8001b18:	4618      	mov	r0, r3
 8001b1a:	370c      	adds	r7, #12
 8001b1c:	46bd      	mov	sp, r7
 8001b1e:	f85d 7b04 	ldr.w	r7, [sp], #4
 8001b22:	4770      	bx	lr

08001b24 <HAL_FDCAN_GetRxMessage>:
 8001b24:	b480      	push	{r7}
 8001b26:	b08b      	sub	sp, #44	; 0x2c
 8001b28:	af00      	add	r7, sp, #0
 8001b2a:	60f8      	str	r0, [r7, #12]
 8001b2c:	60b9      	str	r1, [r7, #8]
 8001b2e:	607a      	str	r2, [r7, #4]
 8001b30:	603b      	str	r3, [r7, #0]
 8001b32:	2300      	movs	r3, #0
 8001b34:	61fb      	str	r3, [r7, #28]
 8001b36:	68fb      	ldr	r3, [r7, #12]
 8001b38:	f893 3098 	ldrb.w	r3, [r3, #152]	; 0x98
 8001b3c:	76fb      	strb	r3, [r7, #27]
 8001b3e:	7efb      	ldrb	r3, [r7, #27]
 8001b40:	2b02      	cmp	r3, #2
 8001b42:	f040 813b 	bne.w	8001dbc <HAL_FDCAN_GetRxMessage+0x298>
 8001b46:	68bb      	ldr	r3, [r7, #8]
 8001b48:	2b40      	cmp	r3, #64	; 0x40
 8001b4a:	d145      	bne.n	8001bd8 <HAL_FDCAN_GetRxMessage+0xb4>
 8001b4c:	68fb      	ldr	r3, [r7, #12]
 8001b4e:	681b      	ldr	r3, [r3, #0]
 8001b50:	f8d3 30a0 	ldr.w	r3, [r3, #160]	; 0xa0
 8001b54:	f403 03fe 	and.w	r3, r3, #8323072	; 0x7f0000
 8001b58:	2b00      	cmp	r3, #0
 8001b5a:	d109      	bne.n	8001b70 <HAL_FDCAN_GetRxMessage+0x4c>
 8001b5c:	68fb      	ldr	r3, [r7, #12]
 8001b5e:	f8d3 309c 	ldr.w	r3, [r3, #156]	; 0x9c
 8001b62:	f043 0220 	orr.w	r2, r3, #32
 8001b66:	68fb      	ldr	r3, [r7, #12]
 8001b68:	f8c3 209c 	str.w	r2, [r3, #156]	; 0x9c
 8001b6c:	2301      	movs	r3, #1
 8001b6e:	e12e      	b.n	8001dce <HAL_FDCAN_GetRxMessage+0x2aa>
 8001b70:	68fb      	ldr	r3, [r7, #12]
 8001b72:	681b      	ldr	r3, [r3, #0]
 8001b74:	f8d3 30a4 	ldr.w	r3, [r3, #164]	; 0xa4
 8001b78:	f003 037f 	and.w	r3, r3, #127	; 0x7f
 8001b7c:	2b00      	cmp	r3, #0
 8001b7e:	d109      	bne.n	8001b94 <HAL_FDCAN_GetRxMessage+0x70>
 8001b80:	68fb      	ldr	r3, [r7, #12]
 8001b82:	f8d3 309c 	ldr.w	r3, [r3, #156]	; 0x9c
 8001b86:	f443 7280 	orr.w	r2, r3, #256	; 0x100
 8001b8a:	68fb      	ldr	r3, [r7, #12]
 8001b8c:	f8c3 209c 	str.w	r2, [r3, #156]	; 0x9c
 8001b90:	2301      	movs	r3, #1
 8001b92:	e11c      	b.n	8001dce <HAL_FDCAN_GetRxMessage+0x2aa>
 8001b94:	68fb      	ldr	r3, [r7, #12]
 8001b96:	681b      	ldr	r3, [r3, #0]
 8001b98:	f8d3 30a4 	ldr.w	r3, [r3, #164]	; 0xa4
 8001b9c:	0e1b      	lsrs	r3, r3, #24
 8001b9e:	f003 0301 	and.w	r3, r3, #1
 8001ba2:	2b01      	cmp	r3, #1
 8001ba4:	d103      	bne.n	8001bae <HAL_FDCAN_GetRxMessage+0x8a>
 8001ba6:	68fb      	ldr	r3, [r7, #12]
 8001ba8:	681b      	ldr	r3, [r3, #0]
 8001baa:	f8d3 30a0 	ldr.w	r3, [r3, #160]	; 0xa0
 8001bae:	68fb      	ldr	r3, [r7, #12]
 8001bb0:	681b      	ldr	r3, [r3, #0]
 8001bb2:	f8d3 30a4 	ldr.w	r3, [r3, #164]	; 0xa4
 8001bb6:	0a1b      	lsrs	r3, r3, #8
 8001bb8:	f003 033f 	and.w	r3, r3, #63	; 0x3f
 8001bbc:	69fa      	ldr	r2, [r7, #28]
 8001bbe:	4413      	add	r3, r2
 8001bc0:	61fb      	str	r3, [r7, #28]
 8001bc2:	68fb      	ldr	r3, [r7, #12]
 8001bc4:	6f5a      	ldr	r2, [r3, #116]	; 0x74
 8001bc6:	68fb      	ldr	r3, [r7, #12]
 8001bc8:	6c5b      	ldr	r3, [r3, #68]	; 0x44
 8001bca:	69f9      	ldr	r1, [r7, #28]
 8001bcc:	fb01 f303 	mul.w	r3, r1, r3
 8001bd0:	009b      	lsls	r3, r3, #2
 8001bd2:	4413      	add	r3, r2
 8001bd4:	627b      	str	r3, [r7, #36]	; 0x24
 8001bd6:	e061      	b.n	8001c9c <HAL_FDCAN_GetRxMessage+0x178>
 8001bd8:	68bb      	ldr	r3, [r7, #8]
 8001bda:	2b41      	cmp	r3, #65	; 0x41
 8001bdc:	d145      	bne.n	8001c6a <HAL_FDCAN_GetRxMessage+0x146>
 8001bde:	68fb      	ldr	r3, [r7, #12]
 8001be0:	681b      	ldr	r3, [r3, #0]
 8001be2:	f8d3 30b0 	ldr.w	r3, [r3, #176]	; 0xb0
 8001be6:	f403 03fe 	and.w	r3, r3, #8323072	; 0x7f0000
 8001bea:	2b00      	cmp	r3, #0
 8001bec:	d109      	bne.n	8001c02 <HAL_FDCAN_GetRxMessage+0xde>
 8001bee:	68fb      	ldr	r3, [r7, #12]
 8001bf0:	f8d3 309c 	ldr.w	r3, [r3, #156]	; 0x9c
 8001bf4:	f043 0220 	orr.w	r2, r3, #32
 8001bf8:	68fb      	ldr	r3, [r7, #12]
 8001bfa:	f8c3 209c 	str.w	r2, [r3, #156]	; 0x9c
 8001bfe:	2301      	movs	r3, #1
 8001c00:	e0e5      	b.n	8001dce <HAL_FDCAN_GetRxMessage+0x2aa>
 8001c02:	68fb      	ldr	r3, [r7, #12]
 8001c04:	681b      	ldr	r3, [r3, #0]
 8001c06:	f8d3 30b4 	ldr.w	r3, [r3, #180]	; 0xb4
 8001c0a:	f003 037f 	and.w	r3, r3, #127	; 0x7f
 8001c0e:	2b00      	cmp	r3, #0
 8001c10:	d109      	bne.n	8001c26 <HAL_FDCAN_GetRxMessage+0x102>
 8001c12:	68fb      	ldr	r3, [r7, #12]
 8001c14:	f8d3 309c 	ldr.w	r3, [r3, #156]	; 0x9c
 8001c18:	f443 7280 	orr.w	r2, r3, #256	; 0x100
 8001c1c:	68fb      	ldr	r3, [r7, #12]
 8001c1e:	f8c3 209c 	str.w	r2, [r3, #156]	; 0x9c
 8001c22:	2301      	movs	r3, #1
 8001c24:	e0d3      	b.n	8001dce <HAL_FDCAN_GetRxMessage+0x2aa>
 8001c26:	68fb      	ldr	r3, [r7, #12]
 8001c28:	681b      	ldr	r3, [r3, #0]
 8001c2a:	f8d3 30b4 	ldr.w	r3, [r3, #180]	; 0xb4
 8001c2e:	0e1b      	lsrs	r3, r3, #24
 8001c30:	f003 0301 	and.w	r3, r3, #1
 8001c34:	2b01      	cmp	r3, #1
 8001c36:	d103      	bne.n	8001c40 <HAL_FDCAN_GetRxMessage+0x11c>
 8001c38:	68fb      	ldr	r3, [r7, #12]
 8001c3a:	681b      	ldr	r3, [r3, #0]
 8001c3c:	f8d3 30b0 	ldr.w	r3, [r3, #176]	; 0xb0
 8001c40:	68fb      	ldr	r3, [r7, #12]
 8001c42:	681b      	ldr	r3, [r3, #0]
 8001c44:	f8d3 30b4 	ldr.w	r3, [r3, #180]	; 0xb4
 8001c48:	0a1b      	lsrs	r3, r3, #8
 8001c4a:	f003 033f 	and.w	r3, r3, #63	; 0x3f
 8001c4e:	69fa      	ldr	r2, [r7, #28]
 8001c50:	4413      	add	r3, r2
 8001c52:	61fb      	str	r3, [r7, #28]
 8001c54:	68fb      	ldr	r3, [r7, #12]
 8001c56:	6f9a      	ldr	r2, [r3, #120]	; 0x78
 8001c58:	68fb      	ldr	r3, [r7, #12]
 8001c5a:	6cdb      	ldr	r3, [r3, #76]	; 0x4c
 8001c5c:	69f9      	ldr	r1, [r7, #28]
 8001c5e:	fb01 f303 	mul.w	r3, r1, r3
 8001c62:	009b      	lsls	r3, r3, #2
 8001c64:	4413      	add	r3, r2
 8001c66:	627b      	str	r3, [r7, #36]	; 0x24
 8001c68:	e018      	b.n	8001c9c <HAL_FDCAN_GetRxMessage+0x178>
 8001c6a:	68fb      	ldr	r3, [r7, #12]
 8001c6c:	6d1b      	ldr	r3, [r3, #80]	; 0x50
 8001c6e:	68ba      	ldr	r2, [r7, #8]
 8001c70:	429a      	cmp	r2, r3
 8001c72:	d309      	bcc.n	8001c88 <HAL_FDCAN_GetRxMessage+0x164>
 8001c74:	68fb      	ldr	r3, [r7, #12]
 8001c76:	f8d3 309c 	ldr.w	r3, [r3, #156]	; 0x9c
 8001c7a:	f043 0220 	orr.w	r2, r3, #32
 8001c7e:	68fb      	ldr	r3, [r7, #12]
 8001c80:	f8c3 209c 	str.w	r2, [r3, #156]	; 0x9c
 8001c84:	2301      	movs	r3, #1
 8001c86:	e0a2      	b.n	8001dce <HAL_FDCAN_GetRxMessage+0x2aa>
 8001c88:	68fb      	ldr	r3, [r7, #12]
 8001c8a:	6fda      	ldr	r2, [r3, #124]	; 0x7c
 8001c8c:	68fb      	ldr	r3, [r7, #12]
 8001c8e:	6d5b      	ldr	r3, [r3, #84]	; 0x54
 8001c90:	68b9      	ldr	r1, [r7, #8]
 8001c92:	fb01 f303 	mul.w	r3, r1, r3
 8001c96:	009b      	lsls	r3, r3, #2
 8001c98:	4413      	add	r3, r2
 8001c9a:	627b      	str	r3, [r7, #36]	; 0x24
 8001c9c:	6a7b      	ldr	r3, [r7, #36]	; 0x24
 8001c9e:	681b      	ldr	r3, [r3, #0]
 8001ca0:	f003 4280 	and.w	r2, r3, #1073741824	; 0x40000000
 8001ca4:	687b      	ldr	r3, [r7, #4]
 8001ca6:	605a      	str	r2, [r3, #4]
 8001ca8:	687b      	ldr	r3, [r7, #4]
 8001caa:	685b      	ldr	r3, [r3, #4]
 8001cac:	2b00      	cmp	r3, #0
 8001cae:	d107      	bne.n	8001cc0 <HAL_FDCAN_GetRxMessage+0x19c>
 8001cb0:	6a7b      	ldr	r3, [r7, #36]	; 0x24
 8001cb2:	681b      	ldr	r3, [r3, #0]
 8001cb4:	0c9b      	lsrs	r3, r3, #18
 8001cb6:	f3c3 020a 	ubfx	r2, r3, #0, #11
 8001cba:	687b      	ldr	r3, [r7, #4]
 8001cbc:	601a      	str	r2, [r3, #0]
 8001cbe:	e005      	b.n	8001ccc <HAL_FDCAN_GetRxMessage+0x1a8>
 8001cc0:	6a7b      	ldr	r3, [r7, #36]	; 0x24
 8001cc2:	681b      	ldr	r3, [r3, #0]
 8001cc4:	f023 4260 	bic.w	r2, r3, #3758096384	; 0xe0000000
 8001cc8:	687b      	ldr	r3, [r7, #4]
 8001cca:	601a      	str	r2, [r3, #0]
 8001ccc:	6a7b      	ldr	r3, [r7, #36]	; 0x24
 8001cce:	681b      	ldr	r3, [r3, #0]
 8001cd0:	f003 5200 	and.w	r2, r3, #536870912	; 0x20000000
 8001cd4:	687b      	ldr	r3, [r7, #4]
 8001cd6:	609a      	str	r2, [r3, #8]
 8001cd8:	6a7b      	ldr	r3, [r7, #36]	; 0x24
 8001cda:	681b      	ldr	r3, [r3, #0]
 8001cdc:	f003 4200 	and.w	r2, r3, #2147483648	; 0x80000000
 8001ce0:	687b      	ldr	r3, [r7, #4]
 8001ce2:	611a      	str	r2, [r3, #16]
 8001ce4:	6a7b      	ldr	r3, [r7, #36]	; 0x24
 8001ce6:	3304      	adds	r3, #4
 8001ce8:	627b      	str	r3, [r7, #36]	; 0x24
 8001cea:	6a7b      	ldr	r3, [r7, #36]	; 0x24
 8001cec:	681b      	ldr	r3, [r3, #0]
 8001cee:	b29a      	uxth	r2, r3
 8001cf0:	687b      	ldr	r3, [r7, #4]
 8001cf2:	61da      	str	r2, [r3, #28]
 8001cf4:	6a7b      	ldr	r3, [r7, #36]	; 0x24
 8001cf6:	681b      	ldr	r3, [r3, #0]
 8001cf8:	f403 2270 	and.w	r2, r3, #983040	; 0xf0000
 8001cfc:	687b      	ldr	r3, [r7, #4]
 8001cfe:	60da      	str	r2, [r3, #12]
 8001d00:	6a7b      	ldr	r3, [r7, #36]	; 0x24
 8001d02:	681b      	ldr	r3, [r3, #0]
 8001d04:	f403 1280 	and.w	r2, r3, #1048576	; 0x100000
 8001d08:	687b      	ldr	r3, [r7, #4]
 8001d0a:	615a      	str	r2, [r3, #20]
 8001d0c:	6a7b      	ldr	r3, [r7, #36]	; 0x24
 8001d0e:	681b      	ldr	r3, [r3, #0]
 8001d10:	f403 1200 	and.w	r2, r3, #2097152	; 0x200000
 8001d14:	687b      	ldr	r3, [r7, #4]
 8001d16:	619a      	str	r2, [r3, #24]
 8001d18:	6a7b      	ldr	r3, [r7, #36]	; 0x24
 8001d1a:	681b      	ldr	r3, [r3, #0]
 8001d1c:	0e1b      	lsrs	r3, r3, #24
 8001d1e:	f003 027f 	and.w	r2, r3, #127	; 0x7f
 8001d22:	687b      	ldr	r3, [r7, #4]
 8001d24:	621a      	str	r2, [r3, #32]
 8001d26:	6a7b      	ldr	r3, [r7, #36]	; 0x24
 8001d28:	681b      	ldr	r3, [r3, #0]
 8001d2a:	0fda      	lsrs	r2, r3, #31
 8001d2c:	687b      	ldr	r3, [r7, #4]
 8001d2e:	625a      	str	r2, [r3, #36]	; 0x24
 8001d30:	6a7b      	ldr	r3, [r7, #36]	; 0x24
 8001d32:	3304      	adds	r3, #4
 8001d34:	627b      	str	r3, [r7, #36]	; 0x24
 8001d36:	6a7b      	ldr	r3, [r7, #36]	; 0x24
 8001d38:	617b      	str	r3, [r7, #20]
 8001d3a:	2300      	movs	r3, #0
 8001d3c:	623b      	str	r3, [r7, #32]
 8001d3e:	e00a      	b.n	8001d56 <HAL_FDCAN_GetRxMessage+0x232>
 8001d40:	697a      	ldr	r2, [r7, #20]
 8001d42:	6a3b      	ldr	r3, [r7, #32]
 8001d44:	441a      	add	r2, r3
 8001d46:	6839      	ldr	r1, [r7, #0]
 8001d48:	6a3b      	ldr	r3, [r7, #32]
 8001d4a:	440b      	add	r3, r1
 8001d4c:	7812      	ldrb	r2, [r2, #0]
 8001d4e:	701a      	strb	r2, [r3, #0]
 8001d50:	6a3b      	ldr	r3, [r7, #32]
 8001d52:	3301      	adds	r3, #1
 8001d54:	623b      	str	r3, [r7, #32]
 8001d56:	687b      	ldr	r3, [r7, #4]
 8001d58:	68db      	ldr	r3, [r3, #12]
 8001d5a:	0c1b      	lsrs	r3, r3, #16
 8001d5c:	4a1f      	ldr	r2, [pc, #124]	; (8001ddc <HAL_FDCAN_GetRxMessage+0x2b8>)
 8001d5e:	5cd3      	ldrb	r3, [r2, r3]
 8001d60:	461a      	mov	r2, r3
 8001d62:	6a3b      	ldr	r3, [r7, #32]
 8001d64:	4293      	cmp	r3, r2
 8001d66:	d3eb      	bcc.n	8001d40 <HAL_FDCAN_GetRxMessage+0x21c>
 8001d68:	68bb      	ldr	r3, [r7, #8]
 8001d6a:	2b40      	cmp	r3, #64	; 0x40
 8001d6c:	d105      	bne.n	8001d7a <HAL_FDCAN_GetRxMessage+0x256>
 8001d6e:	68fb      	ldr	r3, [r7, #12]
 8001d70:	681b      	ldr	r3, [r3, #0]
 8001d72:	69fa      	ldr	r2, [r7, #28]
 8001d74:	f8c3 20a8 	str.w	r2, [r3, #168]	; 0xa8
 8001d78:	e01e      	b.n	8001db8 <HAL_FDCAN_GetRxMessage+0x294>
 8001d7a:	68bb      	ldr	r3, [r7, #8]
 8001d7c:	2b41      	cmp	r3, #65	; 0x41
 8001d7e:	d105      	bne.n	8001d8c <HAL_FDCAN_GetRxMessage+0x268>
 8001d80:	68fb      	ldr	r3, [r7, #12]
 8001d82:	681b      	ldr	r3, [r3, #0]
 8001d84:	69fa      	ldr	r2, [r7, #28]
 8001d86:	f8c3 20b8 	str.w	r2, [r3, #184]	; 0xb8
 8001d8a:	e015      	b.n	8001db8 <HAL_FDCAN_GetRxMessage+0x294>
 8001d8c:	68bb      	ldr	r3, [r7, #8]
 8001d8e:	2b1f      	cmp	r3, #31
 8001d90:	d808      	bhi.n	8001da4 <HAL_FDCAN_GetRxMessage+0x280>
 8001d92:	68fb      	ldr	r3, [r7, #12]
 8001d94:	681b      	ldr	r3, [r3, #0]
 8001d96:	2101      	movs	r1, #1
 8001d98:	68ba      	ldr	r2, [r7, #8]
 8001d9a:	fa01 f202 	lsl.w	r2, r1, r2
 8001d9e:	f8c3 2098 	str.w	r2, [r3, #152]	; 0x98
 8001da2:	e009      	b.n	8001db8 <HAL_FDCAN_GetRxMessage+0x294>
 8001da4:	68bb      	ldr	r3, [r7, #8]
 8001da6:	f003 021f 	and.w	r2, r3, #31
 8001daa:	68fb      	ldr	r3, [r7, #12]
 8001dac:	681b      	ldr	r3, [r3, #0]
 8001dae:	2101      	movs	r1, #1
 8001db0:	fa01 f202 	lsl.w	r2, r1, r2
 8001db4:	f8c3 209c 	str.w	r2, [r3, #156]	; 0x9c
 8001db8:	2300      	movs	r3, #0
 8001dba:	e008      	b.n	8001dce <HAL_FDCAN_GetRxMessage+0x2aa>
 8001dbc:	68fb      	ldr	r3, [r7, #12]
 8001dbe:	f8d3 309c 	ldr.w	r3, [r3, #156]	; 0x9c
 8001dc2:	f043 0208 	orr.w	r2, r3, #8
 8001dc6:	68fb      	ldr	r3, [r7, #12]
 8001dc8:	f8c3 209c 	str.w	r2, [r3, #156]	; 0x9c
 8001dcc:	2301      	movs	r3, #1
 8001dce:	4618      	mov	r0, r3
 8001dd0:	372c      	adds	r7, #44	; 0x2c
 8001dd2:	46bd      	mov	sp, r7
 8001dd4:	f85d 7b04 	ldr.w	r7, [sp], #4
 8001dd8:	4770      	bx	lr
 8001dda:	bf00      	nop
 8001ddc:	080075e8 	.word	0x080075e8

08001de0 <HAL_FDCAN_ActivateNotification>:
 8001de0:	b480      	push	{r7}
 8001de2:	b087      	sub	sp, #28
 8001de4:	af00      	add	r7, sp, #0
 8001de6:	60f8      	str	r0, [r7, #12]
 8001de8:	60b9      	str	r1, [r7, #8]
 8001dea:	607a      	str	r2, [r7, #4]
 8001dec:	68fb      	ldr	r3, [r7, #12]
 8001dee:	f893 3098 	ldrb.w	r3, [r3, #152]	; 0x98
 8001df2:	75fb      	strb	r3, [r7, #23]
 8001df4:	7dfb      	ldrb	r3, [r7, #23]
 8001df6:	2b01      	cmp	r3, #1
 8001df8:	d002      	beq.n	8001e00 <HAL_FDCAN_ActivateNotification+0x20>
 8001dfa:	7dfb      	ldrb	r3, [r7, #23]
 8001dfc:	2b02      	cmp	r3, #2
 8001dfe:	d155      	bne.n	8001eac <HAL_FDCAN_ActivateNotification+0xcc>
 8001e00:	68fb      	ldr	r3, [r7, #12]
 8001e02:	681b      	ldr	r3, [r3, #0]
 8001e04:	6d9a      	ldr	r2, [r3, #88]	; 0x58
 8001e06:	68bb      	ldr	r3, [r7, #8]
 8001e08:	4013      	ands	r3, r2
 8001e0a:	2b00      	cmp	r3, #0
 8001e0c:	d108      	bne.n	8001e20 <HAL_FDCAN_ActivateNotification+0x40>
 8001e0e:	68fb      	ldr	r3, [r7, #12]
 8001e10:	681b      	ldr	r3, [r3, #0]
 8001e12:	6dda      	ldr	r2, [r3, #92]	; 0x5c
 8001e14:	68fb      	ldr	r3, [r7, #12]
 8001e16:	681b      	ldr	r3, [r3, #0]
 8001e18:	f042 0201 	orr.w	r2, r2, #1
 8001e1c:	65da      	str	r2, [r3, #92]	; 0x5c
 8001e1e:	e014      	b.n	8001e4a <HAL_FDCAN_ActivateNotification+0x6a>
 8001e20:	68fb      	ldr	r3, [r7, #12]
 8001e22:	681b      	ldr	r3, [r3, #0]
 8001e24:	6d9a      	ldr	r2, [r3, #88]	; 0x58
 8001e26:	68bb      	ldr	r3, [r7, #8]
 8001e28:	4013      	ands	r3, r2
 8001e2a:	68ba      	ldr	r2, [r7, #8]
 8001e2c:	429a      	cmp	r2, r3
 8001e2e:	d108      	bne.n	8001e42 <HAL_FDCAN_ActivateNotification+0x62>
 8001e30:	68fb      	ldr	r3, [r7, #12]
 8001e32:	681b      	ldr	r3, [r3, #0]
 8001e34:	6dda      	ldr	r2, [r3, #92]	; 0x5c
 8001e36:	68fb      	ldr	r3, [r7, #12]
 8001e38:	681b      	ldr	r3, [r3, #0]
 8001e3a:	f042 0202 	orr.w	r2, r2, #2
 8001e3e:	65da      	str	r2, [r3, #92]	; 0x5c
 8001e40:	e003      	b.n	8001e4a <HAL_FDCAN_ActivateNotification+0x6a>
 8001e42:	68fb      	ldr	r3, [r7, #12]
 8001e44:	681b      	ldr	r3, [r3, #0]
 8001e46:	2203      	movs	r2, #3
 8001e48:	65da      	str	r2, [r3, #92]	; 0x5c
 8001e4a:	68bb      	ldr	r3, [r7, #8]
 8001e4c:	f403 7300 	and.w	r3, r3, #512	; 0x200
 8001e50:	2b00      	cmp	r3, #0
 8001e52:	d009      	beq.n	8001e68 <HAL_FDCAN_ActivateNotification+0x88>
 8001e54:	68fb      	ldr	r3, [r7, #12]
 8001e56:	681b      	ldr	r3, [r3, #0]
 8001e58:	f8d3 10e0 	ldr.w	r1, [r3, #224]	; 0xe0
 8001e5c:	68fb      	ldr	r3, [r7, #12]
 8001e5e:	681b      	ldr	r3, [r3, #0]
 8001e60:	687a      	ldr	r2, [r7, #4]
 8001e62:	430a      	orrs	r2, r1
 8001e64:	f8c3 20e0 	str.w	r2, [r3, #224]	; 0xe0
 8001e68:	68bb      	ldr	r3, [r7, #8]
 8001e6a:	f403 6380 	and.w	r3, r3, #1024	; 0x400
 8001e6e:	2b00      	cmp	r3, #0
 8001e70:	d009      	beq.n	8001e86 <HAL_FDCAN_ActivateNotification+0xa6>
 8001e72:	68fb      	ldr	r3, [r7, #12]
 8001e74:	681b      	ldr	r3, [r3, #0]
 8001e76:	f8d3 10e4 	ldr.w	r1, [r3, #228]	; 0xe4
 8001e7a:	68fb      	ldr	r3, [r7, #12]
 8001e7c:	681b      	ldr	r3, [r3, #0]
 8001e7e:	687a      	ldr	r2, [r7, #4]
 8001e80:	430a      	orrs	r2, r1
 8001e82:	f8c3 20e4 	str.w	r2, [r3, #228]	; 0xe4
 8001e86:	68fb      	ldr	r3, [r7, #12]
 8001e88:	681b      	ldr	r3, [r3, #0]
 8001e8a:	6d59      	ldr	r1, [r3, #84]	; 0x54
 8001e8c:	68ba      	ldr	r2, [r7, #8]
 8001e8e:	4b0f      	ldr	r3, [pc, #60]	; (8001ecc <HAL_FDCAN_ActivateNotification+0xec>)
 8001e90:	4013      	ands	r3, r2
 8001e92:	68fa      	ldr	r2, [r7, #12]
 8001e94:	6812      	ldr	r2, [r2, #0]
 8001e96:	430b      	orrs	r3, r1
 8001e98:	6553      	str	r3, [r2, #84]	; 0x54
 8001e9a:	4b0d      	ldr	r3, [pc, #52]	; (8001ed0 <HAL_FDCAN_ActivateNotification+0xf0>)
 8001e9c:	695a      	ldr	r2, [r3, #20]
 8001e9e:	68bb      	ldr	r3, [r7, #8]
 8001ea0:	0f9b      	lsrs	r3, r3, #30
 8001ea2:	490b      	ldr	r1, [pc, #44]	; (8001ed0 <HAL_FDCAN_ActivateNotification+0xf0>)
 8001ea4:	4313      	orrs	r3, r2
 8001ea6:	614b      	str	r3, [r1, #20]
 8001ea8:	2300      	movs	r3, #0
 8001eaa:	e008      	b.n	8001ebe <HAL_FDCAN_ActivateNotification+0xde>
 8001eac:	68fb      	ldr	r3, [r7, #12]
 8001eae:	f8d3 309c 	ldr.w	r3, [r3, #156]	; 0x9c
 8001eb2:	f043 0202 	orr.w	r2, r3, #2
 8001eb6:	68fb      	ldr	r3, [r7, #12]
 8001eb8:	f8c3 209c 	str.w	r2, [r3, #156]	; 0x9c
 8001ebc:	2301      	movs	r3, #1
 8001ebe:	4618      	mov	r0, r3
 8001ec0:	371c      	adds	r7, #28
 8001ec2:	46bd      	mov	sp, r7
 8001ec4:	f85d 7b04 	ldr.w	r7, [sp], #4
 8001ec8:	4770      	bx	lr
 8001eca:	bf00      	nop
 8001ecc:	3fcfffff 	.word	0x3fcfffff
 8001ed0:	4000a800 	.word	0x4000a800

08001ed4 <HAL_FDCAN_IRQHandler>:
 8001ed4:	b580      	push	{r7, lr}
 8001ed6:	b092      	sub	sp, #72	; 0x48
 8001ed8:	af00      	add	r7, sp, #0
 8001eda:	6078      	str	r0, [r7, #4]
 8001edc:	4b90      	ldr	r3, [pc, #576]	; (8002120 <HAL_FDCAN_IRQHandler+0x24c>)
 8001ede:	691b      	ldr	r3, [r3, #16]
 8001ee0:	079b      	lsls	r3, r3, #30
 8001ee2:	647b      	str	r3, [r7, #68]	; 0x44
 8001ee4:	4b8e      	ldr	r3, [pc, #568]	; (8002120 <HAL_FDCAN_IRQHandler+0x24c>)
 8001ee6:	695b      	ldr	r3, [r3, #20]
 8001ee8:	079b      	lsls	r3, r3, #30
 8001eea:	6c7a      	ldr	r2, [r7, #68]	; 0x44
 8001eec:	4013      	ands	r3, r2
 8001eee:	647b      	str	r3, [r7, #68]	; 0x44
 8001ef0:	687b      	ldr	r3, [r7, #4]
 8001ef2:	681b      	ldr	r3, [r3, #0]
 8001ef4:	6d1b      	ldr	r3, [r3, #80]	; 0x50
 8001ef6:	f403 4370 	and.w	r3, r3, #61440	; 0xf000
 8001efa:	643b      	str	r3, [r7, #64]	; 0x40
 8001efc:	687b      	ldr	r3, [r7, #4]
 8001efe:	681b      	ldr	r3, [r3, #0]
 8001f00:	6d5b      	ldr	r3, [r3, #84]	; 0x54
 8001f02:	6c3a      	ldr	r2, [r7, #64]	; 0x40
 8001f04:	4013      	ands	r3, r2
 8001f06:	643b      	str	r3, [r7, #64]	; 0x40
 8001f08:	687b      	ldr	r3, [r7, #4]
 8001f0a:	681b      	ldr	r3, [r3, #0]
 8001f0c:	6d1b      	ldr	r3, [r3, #80]	; 0x50
 8001f0e:	f003 030f 	and.w	r3, r3, #15
 8001f12:	63fb      	str	r3, [r7, #60]	; 0x3c
 8001f14:	687b      	ldr	r3, [r7, #4]
 8001f16:	681b      	ldr	r3, [r3, #0]
 8001f18:	6d5b      	ldr	r3, [r3, #84]	; 0x54
 8001f1a:	6bfa      	ldr	r2, [r7, #60]	; 0x3c
 8001f1c:	4013      	ands	r3, r2
 8001f1e:	63fb      	str	r3, [r7, #60]	; 0x3c
 8001f20:	687b      	ldr	r3, [r7, #4]
 8001f22:	681b      	ldr	r3, [r3, #0]
 8001f24:	6d1b      	ldr	r3, [r3, #80]	; 0x50
 8001f26:	f003 03f0 	and.w	r3, r3, #240	; 0xf0
 8001f2a:	63bb      	str	r3, [r7, #56]	; 0x38
 8001f2c:	687b      	ldr	r3, [r7, #4]
 8001f2e:	681b      	ldr	r3, [r3, #0]
 8001f30:	6d5b      	ldr	r3, [r3, #84]	; 0x54
 8001f32:	6bba      	ldr	r2, [r7, #56]	; 0x38
 8001f34:	4013      	ands	r3, r2
 8001f36:	63bb      	str	r3, [r7, #56]	; 0x38
 8001f38:	687b      	ldr	r3, [r7, #4]
 8001f3a:	681b      	ldr	r3, [r3, #0]
 8001f3c:	6d1b      	ldr	r3, [r3, #80]	; 0x50
 8001f3e:	f003 5371 	and.w	r3, r3, #1010827264	; 0x3c400000
 8001f42:	637b      	str	r3, [r7, #52]	; 0x34
 8001f44:	687b      	ldr	r3, [r7, #4]
 8001f46:	681b      	ldr	r3, [r3, #0]
 8001f48:	6d5b      	ldr	r3, [r3, #84]	; 0x54
 8001f4a:	6b7a      	ldr	r2, [r7, #52]	; 0x34
 8001f4c:	4013      	ands	r3, r2
 8001f4e:	637b      	str	r3, [r7, #52]	; 0x34
 8001f50:	687b      	ldr	r3, [r7, #4]
 8001f52:	681b      	ldr	r3, [r3, #0]
 8001f54:	6d1b      	ldr	r3, [r3, #80]	; 0x50
 8001f56:	f003 7360 	and.w	r3, r3, #58720256	; 0x3800000
 8001f5a:	633b      	str	r3, [r7, #48]	; 0x30
 8001f5c:	687b      	ldr	r3, [r7, #4]
 8001f5e:	681b      	ldr	r3, [r3, #0]
 8001f60:	6d5b      	ldr	r3, [r3, #84]	; 0x54
 8001f62:	6b3a      	ldr	r2, [r7, #48]	; 0x30
 8001f64:	4013      	ands	r3, r2
 8001f66:	633b      	str	r3, [r7, #48]	; 0x30
 8001f68:	687b      	ldr	r3, [r7, #4]
 8001f6a:	681b      	ldr	r3, [r3, #0]
 8001f6c:	6d5b      	ldr	r3, [r3, #84]	; 0x54
 8001f6e:	f403 7380 	and.w	r3, r3, #256	; 0x100
 8001f72:	2b00      	cmp	r3, #0
 8001f74:	d011      	beq.n	8001f9a <HAL_FDCAN_IRQHandler+0xc6>
 8001f76:	687b      	ldr	r3, [r7, #4]
 8001f78:	681b      	ldr	r3, [r3, #0]
 8001f7a:	6d1b      	ldr	r3, [r3, #80]	; 0x50
 8001f7c:	f403 7380 	and.w	r3, r3, #256	; 0x100
 8001f80:	2b00      	cmp	r3, #0
 8001f82:	d00a      	beq.n	8001f9a <HAL_FDCAN_IRQHandler+0xc6>
 8001f84:	687b      	ldr	r3, [r7, #4]
 8001f86:	681b      	ldr	r3, [r3, #0]
 8001f88:	f44f 7280 	mov.w	r2, #256	; 0x100
 8001f8c:	651a      	str	r2, [r3, #80]	; 0x50
 8001f8e:	4b64      	ldr	r3, [pc, #400]	; (8002120 <HAL_FDCAN_IRQHandler+0x24c>)
 8001f90:	2200      	movs	r2, #0
 8001f92:	611a      	str	r2, [r3, #16]
 8001f94:	6878      	ldr	r0, [r7, #4]
 8001f96:	f000 fa5a 	bl	800244e <HAL_FDCAN_HighPriorityMessageCallback>
 8001f9a:	687b      	ldr	r3, [r7, #4]
 8001f9c:	681b      	ldr	r3, [r3, #0]
 8001f9e:	6d5b      	ldr	r3, [r3, #84]	; 0x54
 8001fa0:	f403 6380 	and.w	r3, r3, #1024	; 0x400
 8001fa4:	2b00      	cmp	r3, #0
 8001fa6:	d01e      	beq.n	8001fe6 <HAL_FDCAN_IRQHandler+0x112>
 8001fa8:	687b      	ldr	r3, [r7, #4]
 8001faa:	681b      	ldr	r3, [r3, #0]
 8001fac:	6d1b      	ldr	r3, [r3, #80]	; 0x50
 8001fae:	f403 6380 	and.w	r3, r3, #1024	; 0x400
 8001fb2:	2b00      	cmp	r3, #0
 8001fb4:	d017      	beq.n	8001fe6 <HAL_FDCAN_IRQHandler+0x112>
 8001fb6:	687b      	ldr	r3, [r7, #4]
 8001fb8:	681b      	ldr	r3, [r3, #0]
 8001fba:	f8d3 30dc 	ldr.w	r3, [r3, #220]	; 0xdc
 8001fbe:	62fb      	str	r3, [r7, #44]	; 0x2c
 8001fc0:	687b      	ldr	r3, [r7, #4]
 8001fc2:	681b      	ldr	r3, [r3, #0]
 8001fc4:	f8d3 30e4 	ldr.w	r3, [r3, #228]	; 0xe4
 8001fc8:	6afa      	ldr	r2, [r7, #44]	; 0x2c
 8001fca:	4013      	ands	r3, r2
 8001fcc:	62fb      	str	r3, [r7, #44]	; 0x2c
 8001fce:	687b      	ldr	r3, [r7, #4]
 8001fd0:	681b      	ldr	r3, [r3, #0]
 8001fd2:	f44f 6280 	mov.w	r2, #1024	; 0x400
 8001fd6:	651a      	str	r2, [r3, #80]	; 0x50
 8001fd8:	4b51      	ldr	r3, [pc, #324]	; (8002120 <HAL_FDCAN_IRQHandler+0x24c>)
 8001fda:	2200      	movs	r2, #0
 8001fdc:	611a      	str	r2, [r3, #16]
 8001fde:	6af9      	ldr	r1, [r7, #44]	; 0x2c
 8001fe0:	6878      	ldr	r0, [r7, #4]
 8001fe2:	f000 fa0b 	bl	80023fc <HAL_FDCAN_TxBufferAbortCallback>
 8001fe6:	6c7b      	ldr	r3, [r7, #68]	; 0x44
 8001fe8:	2b00      	cmp	r3, #0
 8001fea:	d00d      	beq.n	8002008 <HAL_FDCAN_IRQHandler+0x134>
 8001fec:	687b      	ldr	r3, [r7, #4]
 8001fee:	681a      	ldr	r2, [r3, #0]
 8001ff0:	6c79      	ldr	r1, [r7, #68]	; 0x44
 8001ff2:	4b4c      	ldr	r3, [pc, #304]	; (8002124 <HAL_FDCAN_IRQHandler+0x250>)
 8001ff4:	400b      	ands	r3, r1
 8001ff6:	6513      	str	r3, [r2, #80]	; 0x50
 8001ff8:	4a49      	ldr	r2, [pc, #292]	; (8002120 <HAL_FDCAN_IRQHandler+0x24c>)
 8001ffa:	6c7b      	ldr	r3, [r7, #68]	; 0x44
 8001ffc:	0f9b      	lsrs	r3, r3, #30
 8001ffe:	6113      	str	r3, [r2, #16]
 8002000:	6c79      	ldr	r1, [r7, #68]	; 0x44
 8002002:	6878      	ldr	r0, [r7, #4]
 8002004:	f000 f9c4 	bl	8002390 <HAL_FDCAN_ClockCalibrationCallback>
 8002008:	6c3b      	ldr	r3, [r7, #64]	; 0x40
 800200a:	2b00      	cmp	r3, #0
 800200c:	d00d      	beq.n	800202a <HAL_FDCAN_IRQHandler+0x156>
 800200e:	687b      	ldr	r3, [r7, #4]
 8002010:	681a      	ldr	r2, [r3, #0]
 8002012:	6c39      	ldr	r1, [r7, #64]	; 0x40
 8002014:	4b43      	ldr	r3, [pc, #268]	; (8002124 <HAL_FDCAN_IRQHandler+0x250>)
 8002016:	400b      	ands	r3, r1
 8002018:	6513      	str	r3, [r2, #80]	; 0x50
 800201a:	4a41      	ldr	r2, [pc, #260]	; (8002120 <HAL_FDCAN_IRQHandler+0x24c>)
 800201c:	6c3b      	ldr	r3, [r7, #64]	; 0x40
 800201e:	0f9b      	lsrs	r3, r3, #30
 8002020:	6113      	str	r3, [r2, #16]
 8002022:	6c39      	ldr	r1, [r7, #64]	; 0x40
 8002024:	6878      	ldr	r0, [r7, #4]
 8002026:	f000 f9be 	bl	80023a6 <HAL_FDCAN_TxEventFifoCallback>
 800202a:	6bfb      	ldr	r3, [r7, #60]	; 0x3c
 800202c:	2b00      	cmp	r3, #0
 800202e:	d00d      	beq.n	800204c <HAL_FDCAN_IRQHandler+0x178>
 8002030:	687b      	ldr	r3, [r7, #4]
 8002032:	681a      	ldr	r2, [r3, #0]
 8002034:	6bf9      	ldr	r1, [r7, #60]	; 0x3c
 8002036:	4b3b      	ldr	r3, [pc, #236]	; (8002124 <HAL_FDCAN_IRQHandler+0x250>)
 8002038:	400b      	ands	r3, r1
 800203a:	6513      	str	r3, [r2, #80]	; 0x50
 800203c:	4a38      	ldr	r2, [pc, #224]	; (8002120 <HAL_FDCAN_IRQHandler+0x24c>)
 800203e:	6bfb      	ldr	r3, [r7, #60]	; 0x3c
 8002040:	0f9b      	lsrs	r3, r3, #30
 8002042:	6113      	str	r3, [r2, #16]
 8002044:	6bf9      	ldr	r1, [r7, #60]	; 0x3c
 8002046:	6878      	ldr	r0, [r7, #4]
 8002048:	f7fe fe1a 	bl	8000c80 <HAL_FDCAN_RxFifo0Callback>
 800204c:	6bbb      	ldr	r3, [r7, #56]	; 0x38
 800204e:	2b00      	cmp	r3, #0
 8002050:	d00d      	beq.n	800206e <HAL_FDCAN_IRQHandler+0x19a>
 8002052:	687b      	ldr	r3, [r7, #4]
 8002054:	681a      	ldr	r2, [r3, #0]
 8002056:	6bb9      	ldr	r1, [r7, #56]	; 0x38
 8002058:	4b32      	ldr	r3, [pc, #200]	; (8002124 <HAL_FDCAN_IRQHandler+0x250>)
 800205a:	400b      	ands	r3, r1
 800205c:	6513      	str	r3, [r2, #80]	; 0x50
 800205e:	4a30      	ldr	r2, [pc, #192]	; (8002120 <HAL_FDCAN_IRQHandler+0x24c>)
 8002060:	6bbb      	ldr	r3, [r7, #56]	; 0x38
 8002062:	0f9b      	lsrs	r3, r3, #30
 8002064:	6113      	str	r3, [r2, #16]
 8002066:	6bb9      	ldr	r1, [r7, #56]	; 0x38
 8002068:	6878      	ldr	r0, [r7, #4]
 800206a:	f000 f9a7 	bl	80023bc <HAL_FDCAN_RxFifo1Callback>
 800206e:	687b      	ldr	r3, [r7, #4]
 8002070:	681b      	ldr	r3, [r3, #0]
 8002072:	6d5b      	ldr	r3, [r3, #84]	; 0x54
 8002074:	f403 6300 	and.w	r3, r3, #2048	; 0x800
 8002078:	2b00      	cmp	r3, #0
 800207a:	d011      	beq.n	80020a0 <HAL_FDCAN_IRQHandler+0x1cc>
 800207c:	687b      	ldr	r3, [r7, #4]
 800207e:	681b      	ldr	r3, [r3, #0]
 8002080:	6d1b      	ldr	r3, [r3, #80]	; 0x50
 8002082:	f403 6300 	and.w	r3, r3, #2048	; 0x800
 8002086:	2b00      	cmp	r3, #0
 8002088:	d00a      	beq.n	80020a0 <HAL_FDCAN_IRQHandler+0x1cc>
 800208a:	687b      	ldr	r3, [r7, #4]
 800208c:	681b      	ldr	r3, [r3, #0]
 800208e:	f44f 6200 	mov.w	r2, #2048	; 0x800
 8002092:	651a      	str	r2, [r3, #80]	; 0x50
 8002094:	4b22      	ldr	r3, [pc, #136]	; (8002120 <HAL_FDCAN_IRQHandler+0x24c>)
 8002096:	2200      	movs	r2, #0
 8002098:	611a      	str	r2, [r3, #16]
 800209a:	6878      	ldr	r0, [r7, #4]
 800209c:	f000 f999 	bl	80023d2 <HAL_FDCAN_TxFifoEmptyCallback>
 80020a0:	687b      	ldr	r3, [r7, #4]
 80020a2:	681b      	ldr	r3, [r3, #0]
 80020a4:	6d5b      	ldr	r3, [r3, #84]	; 0x54
 80020a6:	f403 7300 	and.w	r3, r3, #512	; 0x200
 80020aa:	2b00      	cmp	r3, #0
 80020ac:	d01e      	beq.n	80020ec <HAL_FDCAN_IRQHandler+0x218>
 80020ae:	687b      	ldr	r3, [r7, #4]
 80020b0:	681b      	ldr	r3, [r3, #0]
 80020b2:	6d1b      	ldr	r3, [r3, #80]	; 0x50
 80020b4:	f403 7300 	and.w	r3, r3, #512	; 0x200
 80020b8:	2b00      	cmp	r3, #0
 80020ba:	d017      	beq.n	80020ec <HAL_FDCAN_IRQHandler+0x218>
 80020bc:	687b      	ldr	r3, [r7, #4]
 80020be:	681b      	ldr	r3, [r3, #0]
 80020c0:	f8d3 30d8 	ldr.w	r3, [r3, #216]	; 0xd8
 80020c4:	62bb      	str	r3, [r7, #40]	; 0x28
 80020c6:	687b      	ldr	r3, [r7, #4]
 80020c8:	681b      	ldr	r3, [r3, #0]
 80020ca:	f8d3 30e0 	ldr.w	r3, [r3, #224]	; 0xe0
 80020ce:	6aba      	ldr	r2, [r7, #40]	; 0x28
 80020d0:	4013      	ands	r3, r2
 80020d2:	62bb      	str	r3, [r7, #40]	; 0x28
 80020d4:	687b      	ldr	r3, [r7, #4]
 80020d6:	681b      	ldr	r3, [r3, #0]
 80020d8:	f44f 7200 	mov.w	r2, #512	; 0x200
 80020dc:	651a      	str	r2, [r3, #80]	; 0x50
 80020de:	4b10      	ldr	r3, [pc, #64]	; (8002120 <HAL_FDCAN_IRQHandler+0x24c>)
 80020e0:	2200      	movs	r2, #0
 80020e2:	611a      	str	r2, [r3, #16]
 80020e4:	6ab9      	ldr	r1, [r7, #40]	; 0x28
 80020e6:	6878      	ldr	r0, [r7, #4]
 80020e8:	f000 f97d 	bl	80023e6 <HAL_FDCAN_TxBufferCompleteCallback>
 80020ec:	687b      	ldr	r3, [r7, #4]
 80020ee:	681b      	ldr	r3, [r3, #0]
 80020f0:	6d5b      	ldr	r3, [r3, #84]	; 0x54
 80020f2:	f403 2300 	and.w	r3, r3, #524288	; 0x80000
 80020f6:	2b00      	cmp	r3, #0
 80020f8:	d016      	beq.n	8002128 <HAL_FDCAN_IRQHandler+0x254>
 80020fa:	687b      	ldr	r3, [r7, #4]
 80020fc:	681b      	ldr	r3, [r3, #0]
 80020fe:	6d1b      	ldr	r3, [r3, #80]	; 0x50
 8002100:	f403 2300 	and.w	r3, r3, #524288	; 0x80000
 8002104:	2b00      	cmp	r3, #0
 8002106:	d00f      	beq.n	8002128 <HAL_FDCAN_IRQHandler+0x254>
 8002108:	687b      	ldr	r3, [r7, #4]
 800210a:	681b      	ldr	r3, [r3, #0]
 800210c:	f44f 2200 	mov.w	r2, #524288	; 0x80000
 8002110:	651a      	str	r2, [r3, #80]	; 0x50
 8002112:	4b03      	ldr	r3, [pc, #12]	; (8002120 <HAL_FDCAN_IRQHandler+0x24c>)
 8002114:	2200      	movs	r2, #0
 8002116:	611a      	str	r2, [r3, #16]
 8002118:	6878      	ldr	r0, [r7, #4]
 800211a:	f000 f97a 	bl	8002412 <HAL_FDCAN_RxBufferNewMessageCallback>
 800211e:	e003      	b.n	8002128 <HAL_FDCAN_IRQHandler+0x254>
 8002120:	4000a800 	.word	0x4000a800
 8002124:	3fcfffff 	.word	0x3fcfffff
 8002128:	687b      	ldr	r3, [r7, #4]
 800212a:	681b      	ldr	r3, [r3, #0]
 800212c:	6d5b      	ldr	r3, [r3, #84]	; 0x54
 800212e:	f403 3380 	and.w	r3, r3, #65536	; 0x10000
 8002132:	2b00      	cmp	r3, #0
 8002134:	d011      	beq.n	800215a <HAL_FDCAN_IRQHandler+0x286>
 8002136:	687b      	ldr	r3, [r7, #4]
 8002138:	681b      	ldr	r3, [r3, #0]
 800213a:	6d1b      	ldr	r3, [r3, #80]	; 0x50
 800213c:	f403 3380 	and.w	r3, r3, #65536	; 0x10000
 8002140:	2b00      	cmp	r3, #0
 8002142:	d00a      	beq.n	800215a <HAL_FDCAN_IRQHandler+0x286>
 8002144:	687b      	ldr	r3, [r7, #4]
 8002146:	681b      	ldr	r3, [r3, #0]
 8002148:	f44f 3280 	mov.w	r2, #65536	; 0x10000
 800214c:	651a      	str	r2, [r3, #80]	; 0x50
 800214e:	4b8d      	ldr	r3, [pc, #564]	; (8002384 <HAL_FDCAN_IRQHandler+0x4b0>)
 8002150:	2200      	movs	r2, #0
 8002152:	611a      	str	r2, [r3, #16]
 8002154:	6878      	ldr	r0, [r7, #4]
 8002156:	f000 f966 	bl	8002426 <HAL_FDCAN_TimestampWraparoundCallback>
 800215a:	687b      	ldr	r3, [r7, #4]
 800215c:	681b      	ldr	r3, [r3, #0]
 800215e:	6d5b      	ldr	r3, [r3, #84]	; 0x54
 8002160:	f403 2380 	and.w	r3, r3, #262144	; 0x40000
 8002164:	2b00      	cmp	r3, #0
 8002166:	d011      	beq.n	800218c <HAL_FDCAN_IRQHandler+0x2b8>
 8002168:	687b      	ldr	r3, [r7, #4]
 800216a:	681b      	ldr	r3, [r3, #0]
 800216c:	6d1b      	ldr	r3, [r3, #80]	; 0x50
 800216e:	f403 2380 	and.w	r3, r3, #262144	; 0x40000
 8002172:	2b00      	cmp	r3, #0
 8002174:	d00a      	beq.n	800218c <HAL_FDCAN_IRQHandler+0x2b8>
 8002176:	687b      	ldr	r3, [r7, #4]
 8002178:	681b      	ldr	r3, [r3, #0]
 800217a:	f44f 2280 	mov.w	r2, #262144	; 0x40000
 800217e:	651a      	str	r2, [r3, #80]	; 0x50
 8002180:	4b80      	ldr	r3, [pc, #512]	; (8002384 <HAL_FDCAN_IRQHandler+0x4b0>)
 8002182:	2200      	movs	r2, #0
 8002184:	611a      	str	r2, [r3, #16]
 8002186:	6878      	ldr	r0, [r7, #4]
 8002188:	f000 f957 	bl	800243a <HAL_FDCAN_TimeoutOccurredCallback>
 800218c:	687b      	ldr	r3, [r7, #4]
 800218e:	681b      	ldr	r3, [r3, #0]
 8002190:	6d5b      	ldr	r3, [r3, #84]	; 0x54
 8002192:	f403 3300 	and.w	r3, r3, #131072	; 0x20000
 8002196:	2b00      	cmp	r3, #0
 8002198:	d016      	beq.n	80021c8 <HAL_FDCAN_IRQHandler+0x2f4>
 800219a:	687b      	ldr	r3, [r7, #4]
 800219c:	681b      	ldr	r3, [r3, #0]
 800219e:	6d1b      	ldr	r3, [r3, #80]	; 0x50
 80021a0:	f403 3300 	and.w	r3, r3, #131072	; 0x20000
 80021a4:	2b00      	cmp	r3, #0
 80021a6:	d00f      	beq.n	80021c8 <HAL_FDCAN_IRQHandler+0x2f4>
 80021a8:	687b      	ldr	r3, [r7, #4]
 80021aa:	681b      	ldr	r3, [r3, #0]
 80021ac:	f44f 3200 	mov.w	r2, #131072	; 0x20000
 80021b0:	651a      	str	r2, [r3, #80]	; 0x50
 80021b2:	4b74      	ldr	r3, [pc, #464]	; (8002384 <HAL_FDCAN_IRQHandler+0x4b0>)
 80021b4:	2200      	movs	r2, #0
 80021b6:	611a      	str	r2, [r3, #16]
 80021b8:	687b      	ldr	r3, [r7, #4]
 80021ba:	f8d3 309c 	ldr.w	r3, [r3, #156]	; 0x9c
 80021be:	f043 0280 	orr.w	r2, r3, #128	; 0x80
 80021c2:	687b      	ldr	r3, [r7, #4]
 80021c4:	f8c3 209c 	str.w	r2, [r3, #156]	; 0x9c
 80021c8:	6b3b      	ldr	r3, [r7, #48]	; 0x30
 80021ca:	2b00      	cmp	r3, #0
 80021cc:	d00d      	beq.n	80021ea <HAL_FDCAN_IRQHandler+0x316>
 80021ce:	687b      	ldr	r3, [r7, #4]
 80021d0:	681a      	ldr	r2, [r3, #0]
 80021d2:	6b39      	ldr	r1, [r7, #48]	; 0x30
 80021d4:	4b6c      	ldr	r3, [pc, #432]	; (8002388 <HAL_FDCAN_IRQHandler+0x4b4>)
 80021d6:	400b      	ands	r3, r1
 80021d8:	6513      	str	r3, [r2, #80]	; 0x50
 80021da:	4a6a      	ldr	r2, [pc, #424]	; (8002384 <HAL_FDCAN_IRQHandler+0x4b0>)
 80021dc:	6b3b      	ldr	r3, [r7, #48]	; 0x30
 80021de:	0f9b      	lsrs	r3, r3, #30
 80021e0:	6113      	str	r3, [r2, #16]
 80021e2:	6b39      	ldr	r1, [r7, #48]	; 0x30
 80021e4:	6878      	ldr	r0, [r7, #4]
 80021e6:	f000 f946 	bl	8002476 <HAL_FDCAN_ErrorStatusCallback>
 80021ea:	6b7b      	ldr	r3, [r7, #52]	; 0x34
 80021ec:	2b00      	cmp	r3, #0
 80021ee:	d011      	beq.n	8002214 <HAL_FDCAN_IRQHandler+0x340>
 80021f0:	687b      	ldr	r3, [r7, #4]
 80021f2:	681a      	ldr	r2, [r3, #0]
 80021f4:	6b79      	ldr	r1, [r7, #52]	; 0x34
 80021f6:	4b64      	ldr	r3, [pc, #400]	; (8002388 <HAL_FDCAN_IRQHandler+0x4b4>)
 80021f8:	400b      	ands	r3, r1
 80021fa:	6513      	str	r3, [r2, #80]	; 0x50
 80021fc:	4a61      	ldr	r2, [pc, #388]	; (8002384 <HAL_FDCAN_IRQHandler+0x4b0>)
 80021fe:	6b7b      	ldr	r3, [r7, #52]	; 0x34
 8002200:	0f9b      	lsrs	r3, r3, #30
 8002202:	6113      	str	r3, [r2, #16]
 8002204:	687b      	ldr	r3, [r7, #4]
 8002206:	f8d3 209c 	ldr.w	r2, [r3, #156]	; 0x9c
 800220a:	6b7b      	ldr	r3, [r7, #52]	; 0x34
 800220c:	431a      	orrs	r2, r3
 800220e:	687b      	ldr	r3, [r7, #4]
 8002210:	f8c3 209c 	str.w	r2, [r3, #156]	; 0x9c
 8002214:	687b      	ldr	r3, [r7, #4]
 8002216:	681b      	ldr	r3, [r3, #0]
 8002218:	4a5c      	ldr	r2, [pc, #368]	; (800238c <HAL_FDCAN_IRQHandler+0x4b8>)
 800221a:	4293      	cmp	r3, r2
 800221c:	f040 80a6 	bne.w	800236c <HAL_FDCAN_IRQHandler+0x498>
 8002220:	687b      	ldr	r3, [r7, #4]
 8002222:	685b      	ldr	r3, [r3, #4]
 8002224:	689b      	ldr	r3, [r3, #8]
 8002226:	f003 0303 	and.w	r3, r3, #3
 800222a:	2b00      	cmp	r3, #0
 800222c:	f000 809e 	beq.w	800236c <HAL_FDCAN_IRQHandler+0x498>
 8002230:	687b      	ldr	r3, [r7, #4]
 8002232:	685b      	ldr	r3, [r3, #4]
 8002234:	6a1b      	ldr	r3, [r3, #32]
 8002236:	f003 030f 	and.w	r3, r3, #15
 800223a:	627b      	str	r3, [r7, #36]	; 0x24
 800223c:	687b      	ldr	r3, [r7, #4]
 800223e:	685b      	ldr	r3, [r3, #4]
 8002240:	6a5b      	ldr	r3, [r3, #36]	; 0x24
 8002242:	6a7a      	ldr	r2, [r7, #36]	; 0x24
 8002244:	4013      	ands	r3, r2
 8002246:	627b      	str	r3, [r7, #36]	; 0x24
 8002248:	687b      	ldr	r3, [r7, #4]
 800224a:	685b      	ldr	r3, [r3, #4]
 800224c:	6a1b      	ldr	r3, [r3, #32]
 800224e:	f003 0330 	and.w	r3, r3, #48	; 0x30
 8002252:	623b      	str	r3, [r7, #32]
 8002254:	687b      	ldr	r3, [r7, #4]
 8002256:	685b      	ldr	r3, [r3, #4]
 8002258:	6a5b      	ldr	r3, [r3, #36]	; 0x24
 800225a:	6a3a      	ldr	r2, [r7, #32]
 800225c:	4013      	ands	r3, r2
 800225e:	623b      	str	r3, [r7, #32]
 8002260:	687b      	ldr	r3, [r7, #4]
 8002262:	685b      	ldr	r3, [r3, #4]
 8002264:	6a1b      	ldr	r3, [r3, #32]
 8002266:	f403 73c0 	and.w	r3, r3, #384	; 0x180
 800226a:	61fb      	str	r3, [r7, #28]
 800226c:	687b      	ldr	r3, [r7, #4]
 800226e:	685b      	ldr	r3, [r3, #4]
 8002270:	6a5b      	ldr	r3, [r3, #36]	; 0x24
 8002272:	69fa      	ldr	r2, [r7, #28]
 8002274:	4013      	ands	r3, r2
 8002276:	61fb      	str	r3, [r7, #28]
 8002278:	687b      	ldr	r3, [r7, #4]
 800227a:	685b      	ldr	r3, [r3, #4]
 800227c:	6a1b      	ldr	r3, [r3, #32]
 800227e:	f403 43fc 	and.w	r3, r3, #32256	; 0x7e00
 8002282:	61bb      	str	r3, [r7, #24]
 8002284:	687b      	ldr	r3, [r7, #4]
 8002286:	685b      	ldr	r3, [r3, #4]
 8002288:	6a5b      	ldr	r3, [r3, #36]	; 0x24
 800228a:	69ba      	ldr	r2, [r7, #24]
 800228c:	4013      	ands	r3, r2
 800228e:	61bb      	str	r3, [r7, #24]
 8002290:	687b      	ldr	r3, [r7, #4]
 8002292:	685b      	ldr	r3, [r3, #4]
 8002294:	6a1b      	ldr	r3, [r3, #32]
 8002296:	f403 23f0 	and.w	r3, r3, #491520	; 0x78000
 800229a:	617b      	str	r3, [r7, #20]
 800229c:	687b      	ldr	r3, [r7, #4]
 800229e:	685b      	ldr	r3, [r3, #4]
 80022a0:	6a5b      	ldr	r3, [r3, #36]	; 0x24
 80022a2:	697a      	ldr	r2, [r7, #20]
 80022a4:	4013      	ands	r3, r2
 80022a6:	617b      	str	r3, [r7, #20]
 80022a8:	6a7b      	ldr	r3, [r7, #36]	; 0x24
 80022aa:	2b00      	cmp	r3, #0
 80022ac:	d007      	beq.n	80022be <HAL_FDCAN_IRQHandler+0x3ea>
 80022ae:	687b      	ldr	r3, [r7, #4]
 80022b0:	685b      	ldr	r3, [r3, #4]
 80022b2:	6a7a      	ldr	r2, [r7, #36]	; 0x24
 80022b4:	621a      	str	r2, [r3, #32]
 80022b6:	6a79      	ldr	r1, [r7, #36]	; 0x24
 80022b8:	6878      	ldr	r0, [r7, #4]
 80022ba:	f000 f8e7 	bl	800248c <HAL_FDCAN_TT_ScheduleSyncCallback>
 80022be:	6a3b      	ldr	r3, [r7, #32]
 80022c0:	2b00      	cmp	r3, #0
 80022c2:	d007      	beq.n	80022d4 <HAL_FDCAN_IRQHandler+0x400>
 80022c4:	687b      	ldr	r3, [r7, #4]
 80022c6:	685b      	ldr	r3, [r3, #4]
 80022c8:	6a3a      	ldr	r2, [r7, #32]
 80022ca:	621a      	str	r2, [r3, #32]
 80022cc:	6a39      	ldr	r1, [r7, #32]
 80022ce:	6878      	ldr	r0, [r7, #4]
 80022d0:	f000 f8e7 	bl	80024a2 <HAL_FDCAN_TT_TimeMarkCallback>
 80022d4:	687b      	ldr	r3, [r7, #4]
 80022d6:	685b      	ldr	r3, [r3, #4]
 80022d8:	6a5b      	ldr	r3, [r3, #36]	; 0x24
 80022da:	f003 0340 	and.w	r3, r3, #64	; 0x40
 80022de:	2b00      	cmp	r3, #0
 80022e0:	d01b      	beq.n	800231a <HAL_FDCAN_IRQHandler+0x446>
 80022e2:	687b      	ldr	r3, [r7, #4]
 80022e4:	685b      	ldr	r3, [r3, #4]
 80022e6:	6a1b      	ldr	r3, [r3, #32]
 80022e8:	f003 0340 	and.w	r3, r3, #64	; 0x40
 80022ec:	2b00      	cmp	r3, #0
 80022ee:	d014      	beq.n	800231a <HAL_FDCAN_IRQHandler+0x446>
 80022f0:	687b      	ldr	r3, [r7, #4]
 80022f2:	685b      	ldr	r3, [r3, #4]
 80022f4:	6bdb      	ldr	r3, [r3, #60]	; 0x3c
 80022f6:	0c1b      	lsrs	r3, r3, #16
 80022f8:	b29b      	uxth	r3, r3
 80022fa:	613b      	str	r3, [r7, #16]
 80022fc:	687b      	ldr	r3, [r7, #4]
 80022fe:	685b      	ldr	r3, [r3, #4]
 8002300:	6bdb      	ldr	r3, [r3, #60]	; 0x3c
 8002302:	f003 033f 	and.w	r3, r3, #63	; 0x3f
 8002306:	60fb      	str	r3, [r7, #12]
 8002308:	687b      	ldr	r3, [r7, #4]
 800230a:	685b      	ldr	r3, [r3, #4]
 800230c:	2240      	movs	r2, #64	; 0x40
 800230e:	621a      	str	r2, [r3, #32]
 8002310:	68fa      	ldr	r2, [r7, #12]
 8002312:	6939      	ldr	r1, [r7, #16]
 8002314:	6878      	ldr	r0, [r7, #4]
 8002316:	f000 f8cf 	bl	80024b8 <HAL_FDCAN_TT_StopWatchCallback>
 800231a:	69fb      	ldr	r3, [r7, #28]
 800231c:	2b00      	cmp	r3, #0
 800231e:	d007      	beq.n	8002330 <HAL_FDCAN_IRQHandler+0x45c>
 8002320:	687b      	ldr	r3, [r7, #4]
 8002322:	685b      	ldr	r3, [r3, #4]
 8002324:	69fa      	ldr	r2, [r7, #28]
 8002326:	621a      	str	r2, [r3, #32]
 8002328:	69f9      	ldr	r1, [r7, #28]
 800232a:	6878      	ldr	r0, [r7, #4]
 800232c:	f000 f8d0 	bl	80024d0 <HAL_FDCAN_TT_GlobalTimeCallback>
 8002330:	69bb      	ldr	r3, [r7, #24]
 8002332:	2b00      	cmp	r3, #0
 8002334:	d00b      	beq.n	800234e <HAL_FDCAN_IRQHandler+0x47a>
 8002336:	687b      	ldr	r3, [r7, #4]
 8002338:	685b      	ldr	r3, [r3, #4]
 800233a:	69ba      	ldr	r2, [r7, #24]
 800233c:	621a      	str	r2, [r3, #32]
 800233e:	687b      	ldr	r3, [r7, #4]
 8002340:	f8d3 209c 	ldr.w	r2, [r3, #156]	; 0x9c
 8002344:	69bb      	ldr	r3, [r7, #24]
 8002346:	431a      	orrs	r2, r3
 8002348:	687b      	ldr	r3, [r7, #4]
 800234a:	f8c3 209c 	str.w	r2, [r3, #156]	; 0x9c
 800234e:	697b      	ldr	r3, [r7, #20]
 8002350:	2b00      	cmp	r3, #0
 8002352:	d00b      	beq.n	800236c <HAL_FDCAN_IRQHandler+0x498>
 8002354:	687b      	ldr	r3, [r7, #4]
 8002356:	685b      	ldr	r3, [r3, #4]
 8002358:	697a      	ldr	r2, [r7, #20]
 800235a:	621a      	str	r2, [r3, #32]
 800235c:	687b      	ldr	r3, [r7, #4]
 800235e:	f8d3 209c 	ldr.w	r2, [r3, #156]	; 0x9c
 8002362:	697b      	ldr	r3, [r7, #20]
 8002364:	431a      	orrs	r2, r3
 8002366:	687b      	ldr	r3, [r7, #4]
 8002368:	f8c3 209c 	str.w	r2, [r3, #156]	; 0x9c
 800236c:	687b      	ldr	r3, [r7, #4]
 800236e:	f8d3 309c 	ldr.w	r3, [r3, #156]	; 0x9c
 8002372:	2b00      	cmp	r3, #0
 8002374:	d002      	beq.n	800237c <HAL_FDCAN_IRQHandler+0x4a8>
 8002376:	6878      	ldr	r0, [r7, #4]
 8002378:	f000 f873 	bl	8002462 <HAL_FDCAN_ErrorCallback>
 800237c:	bf00      	nop
 800237e:	3748      	adds	r7, #72	; 0x48
 8002380:	46bd      	mov	sp, r7
 8002382:	bd80      	pop	{r7, pc}
 8002384:	4000a800 	.word	0x4000a800
 8002388:	3fcfffff 	.word	0x3fcfffff
 800238c:	4000a000 	.word	0x4000a000

08002390 <HAL_FDCAN_ClockCalibrationCallback>:
 8002390:	b480      	push	{r7}
 8002392:	b083      	sub	sp, #12
 8002394:	af00      	add	r7, sp, #0
 8002396:	6078      	str	r0, [r7, #4]
 8002398:	6039      	str	r1, [r7, #0]
 800239a:	bf00      	nop
 800239c:	370c      	adds	r7, #12
 800239e:	46bd      	mov	sp, r7
 80023a0:	f85d 7b04 	ldr.w	r7, [sp], #4
 80023a4:	4770      	bx	lr

080023a6 <HAL_FDCAN_TxEventFifoCallback>:
 80023a6:	b480      	push	{r7}
 80023a8:	b083      	sub	sp, #12
 80023aa:	af00      	add	r7, sp, #0
 80023ac:	6078      	str	r0, [r7, #4]
 80023ae:	6039      	str	r1, [r7, #0]
 80023b0:	bf00      	nop
 80023b2:	370c      	adds	r7, #12
 80023b4:	46bd      	mov	sp, r7
 80023b6:	f85d 7b04 	ldr.w	r7, [sp], #4
 80023ba:	4770      	bx	lr

080023bc <HAL_FDCAN_RxFifo1Callback>:
 80023bc:	b480      	push	{r7}
 80023be:	b083      	sub	sp, #12
 80023c0:	af00      	add	r7, sp, #0
 80023c2:	6078      	str	r0, [r7, #4]
 80023c4:	6039      	str	r1, [r7, #0]
 80023c6:	bf00      	nop
 80023c8:	370c      	adds	r7, #12
 80023ca:	46bd      	mov	sp, r7
 80023cc:	f85d 7b04 	ldr.w	r7, [sp], #4
 80023d0:	4770      	bx	lr

080023d2 <HAL_FDCAN_TxFifoEmptyCallback>:
 80023d2:	b480      	push	{r7}
 80023d4:	b083      	sub	sp, #12
 80023d6:	af00      	add	r7, sp, #0
 80023d8:	6078      	str	r0, [r7, #4]
 80023da:	bf00      	nop
 80023dc:	370c      	adds	r7, #12
 80023de:	46bd      	mov	sp, r7
 80023e0:	f85d 7b04 	ldr.w	r7, [sp], #4
 80023e4:	4770      	bx	lr

080023e6 <HAL_FDCAN_TxBufferCompleteCallback>:
 80023e6:	b480      	push	{r7}
 80023e8:	b083      	sub	sp, #12
 80023ea:	af00      	add	r7, sp, #0
 80023ec:	6078      	str	r0, [r7, #4]
 80023ee:	6039      	str	r1, [r7, #0]
 80023f0:	bf00      	nop
 80023f2:	370c      	adds	r7, #12
 80023f4:	46bd      	mov	sp, r7
 80023f6:	f85d 7b04 	ldr.w	r7, [sp], #4
 80023fa:	4770      	bx	lr

080023fc <HAL_FDCAN_TxBufferAbortCallback>:
 80023fc:	b480      	push	{r7}
 80023fe:	b083      	sub	sp, #12
 8002400:	af00      	add	r7, sp, #0
 8002402:	6078      	str	r0, [r7, #4]
 8002404:	6039      	str	r1, [r7, #0]
 8002406:	bf00      	nop
 8002408:	370c      	adds	r7, #12
 800240a:	46bd      	mov	sp, r7
 800240c:	f85d 7b04 	ldr.w	r7, [sp], #4
 8002410:	4770      	bx	lr

08002412 <HAL_FDCAN_RxBufferNewMessageCallback>:
 8002412:	b480      	push	{r7}
 8002414:	b083      	sub	sp, #12
 8002416:	af00      	add	r7, sp, #0
 8002418:	6078      	str	r0, [r7, #4]
 800241a:	bf00      	nop
 800241c:	370c      	adds	r7, #12
 800241e:	46bd      	mov	sp, r7
 8002420:	f85d 7b04 	ldr.w	r7, [sp], #4
 8002424:	4770      	bx	lr

08002426 <HAL_FDCAN_TimestampWraparoundCallback>:
 8002426:	b480      	push	{r7}
 8002428:	b083      	sub	sp, #12
 800242a:	af00      	add	r7, sp, #0
 800242c:	6078      	str	r0, [r7, #4]
 800242e:	bf00      	nop
 8002430:	370c      	adds	r7, #12
 8002432:	46bd      	mov	sp, r7
 8002434:	f85d 7b04 	ldr.w	r7, [sp], #4
 8002438:	4770      	bx	lr

0800243a <HAL_FDCAN_TimeoutOccurredCallback>:
 800243a:	b480      	push	{r7}
 800243c:	b083      	sub	sp, #12
 800243e:	af00      	add	r7, sp, #0
 8002440:	6078      	str	r0, [r7, #4]
 8002442:	bf00      	nop
 8002444:	370c      	adds	r7, #12
 8002446:	46bd      	mov	sp, r7
 8002448:	f85d 7b04 	ldr.w	r7, [sp], #4
 800244c:	4770      	bx	lr

0800244e <HAL_FDCAN_HighPriorityMessageCallback>:
 800244e:	b480      	push	{r7}
 8002450:	b083      	sub	sp, #12
 8002452:	af00      	add	r7, sp, #0
 8002454:	6078      	str	r0, [r7, #4]
 8002456:	bf00      	nop
 8002458:	370c      	adds	r7, #12
 800245a:	46bd      	mov	sp, r7
 800245c:	f85d 7b04 	ldr.w	r7, [sp], #4
 8002460:	4770      	bx	lr

08002462 <HAL_FDCAN_ErrorCallback>:
 8002462:	b480      	push	{r7}
 8002464:	b083      	sub	sp, #12
 8002466:	af00      	add	r7, sp, #0
 8002468:	6078      	str	r0, [r7, #4]
 800246a:	bf00      	nop
 800246c:	370c      	adds	r7, #12
 800246e:	46bd      	mov	sp, r7
 8002470:	f85d 7b04 	ldr.w	r7, [sp], #4
 8002474:	4770      	bx	lr

08002476 <HAL_FDCAN_ErrorStatusCallback>:
 8002476:	b480      	push	{r7}
 8002478:	b083      	sub	sp, #12
 800247a:	af00      	add	r7, sp, #0
 800247c:	6078      	str	r0, [r7, #4]
 800247e:	6039      	str	r1, [r7, #0]
 8002480:	bf00      	nop
 8002482:	370c      	adds	r7, #12
 8002484:	46bd      	mov	sp, r7
 8002486:	f85d 7b04 	ldr.w	r7, [sp], #4
 800248a:	4770      	bx	lr

0800248c <HAL_FDCAN_TT_ScheduleSyncCallback>:
 800248c:	b480      	push	{r7}
 800248e:	b083      	sub	sp, #12
 8002490:	af00      	add	r7, sp, #0
 8002492:	6078      	str	r0, [r7, #4]
 8002494:	6039      	str	r1, [r7, #0]
 8002496:	bf00      	nop
 8002498:	370c      	adds	r7, #12
 800249a:	46bd      	mov	sp, r7
 800249c:	f85d 7b04 	ldr.w	r7, [sp], #4
 80024a0:	4770      	bx	lr

080024a2 <HAL_FDCAN_TT_TimeMarkCallback>:
 80024a2:	b480      	push	{r7}
 80024a4:	b083      	sub	sp, #12
 80024a6:	af00      	add	r7, sp, #0
 80024a8:	6078      	str	r0, [r7, #4]
 80024aa:	6039      	str	r1, [r7, #0]
 80024ac:	bf00      	nop
 80024ae:	370c      	adds	r7, #12
 80024b0:	46bd      	mov	sp, r7
 80024b2:	f85d 7b04 	ldr.w	r7, [sp], #4
 80024b6:	4770      	bx	lr

080024b8 <HAL_FDCAN_TT_StopWatchCallback>:
 80024b8:	b480      	push	{r7}
 80024ba:	b085      	sub	sp, #20
 80024bc:	af00      	add	r7, sp, #0
 80024be:	60f8      	str	r0, [r7, #12]
 80024c0:	60b9      	str	r1, [r7, #8]
 80024c2:	607a      	str	r2, [r7, #4]
 80024c4:	bf00      	nop
 80024c6:	3714      	adds	r7, #20
 80024c8:	46bd      	mov	sp, r7
 80024ca:	f85d 7b04 	ldr.w	r7, [sp], #4
 80024ce:	4770      	bx	lr

080024d0 <HAL_FDCAN_TT_GlobalTimeCallback>:
 80024d0:	b480      	push	{r7}
 80024d2:	b083      	sub	sp, #12
 80024d4:	af00      	add	r7, sp, #0
 80024d6:	6078      	str	r0, [r7, #4]
 80024d8:	6039      	str	r1, [r7, #0]
 80024da:	bf00      	nop
 80024dc:	370c      	adds	r7, #12
 80024de:	46bd      	mov	sp, r7
 80024e0:	f85d 7b04 	ldr.w	r7, [sp], #4
 80024e4:	4770      	bx	lr
	...

080024e8 <FDCAN_CalcultateRamBlockAddresses>:
 80024e8:	b480      	push	{r7}
 80024ea:	b085      	sub	sp, #20
 80024ec:	af00      	add	r7, sp, #0
 80024ee:	6078      	str	r0, [r7, #4]
 80024f0:	687b      	ldr	r3, [r7, #4]
 80024f2:	6b5b      	ldr	r3, [r3, #52]	; 0x34
 80024f4:	60bb      	str	r3, [r7, #8]
 80024f6:	687b      	ldr	r3, [r7, #4]
 80024f8:	681b      	ldr	r3, [r3, #0]
 80024fa:	f8d3 2084 	ldr.w	r2, [r3, #132]	; 0x84
 80024fe:	4ba7      	ldr	r3, [pc, #668]	; (800279c <FDCAN_CalcultateRamBlockAddresses+0x2b4>)
 8002500:	4013      	ands	r3, r2
 8002502:	68ba      	ldr	r2, [r7, #8]
 8002504:	0091      	lsls	r1, r2, #2
 8002506:	687a      	ldr	r2, [r7, #4]
 8002508:	6812      	ldr	r2, [r2, #0]
 800250a:	430b      	orrs	r3, r1
 800250c:	f8c2 3084 	str.w	r3, [r2, #132]	; 0x84
 8002510:	687b      	ldr	r3, [r7, #4]
 8002512:	681b      	ldr	r3, [r3, #0]
 8002514:	f8d3 3084 	ldr.w	r3, [r3, #132]	; 0x84
 8002518:	f423 017f 	bic.w	r1, r3, #16711680	; 0xff0000
 800251c:	687b      	ldr	r3, [r7, #4]
 800251e:	6b9b      	ldr	r3, [r3, #56]	; 0x38
 8002520:	041a      	lsls	r2, r3, #16
 8002522:	687b      	ldr	r3, [r7, #4]
 8002524:	681b      	ldr	r3, [r3, #0]
 8002526:	430a      	orrs	r2, r1
 8002528:	f8c3 2084 	str.w	r2, [r3, #132]	; 0x84
 800252c:	687b      	ldr	r3, [r7, #4]
 800252e:	6b9b      	ldr	r3, [r3, #56]	; 0x38
 8002530:	68ba      	ldr	r2, [r7, #8]
 8002532:	4413      	add	r3, r2
 8002534:	60bb      	str	r3, [r7, #8]
 8002536:	687b      	ldr	r3, [r7, #4]
 8002538:	681b      	ldr	r3, [r3, #0]
 800253a:	f8d3 2088 	ldr.w	r2, [r3, #136]	; 0x88
 800253e:	4b97      	ldr	r3, [pc, #604]	; (800279c <FDCAN_CalcultateRamBlockAddresses+0x2b4>)
 8002540:	4013      	ands	r3, r2
 8002542:	68ba      	ldr	r2, [r7, #8]
 8002544:	0091      	lsls	r1, r2, #2
 8002546:	687a      	ldr	r2, [r7, #4]
 8002548:	6812      	ldr	r2, [r2, #0]
 800254a:	430b      	orrs	r3, r1
 800254c:	f8c2 3088 	str.w	r3, [r2, #136]	; 0x88
 8002550:	687b      	ldr	r3, [r7, #4]
 8002552:	681b      	ldr	r3, [r3, #0]
 8002554:	f8d3 3088 	ldr.w	r3, [r3, #136]	; 0x88
 8002558:	f423 01fe 	bic.w	r1, r3, #8323072	; 0x7f0000
 800255c:	687b      	ldr	r3, [r7, #4]
 800255e:	6bdb      	ldr	r3, [r3, #60]	; 0x3c
 8002560:	041a      	lsls	r2, r3, #16
 8002562:	687b      	ldr	r3, [r7, #4]
 8002564:	681b      	ldr	r3, [r3, #0]
 8002566:	430a      	orrs	r2, r1
 8002568:	f8c3 2088 	str.w	r2, [r3, #136]	; 0x88
 800256c:	687b      	ldr	r3, [r7, #4]
 800256e:	6bdb      	ldr	r3, [r3, #60]	; 0x3c
 8002570:	005b      	lsls	r3, r3, #1
 8002572:	68ba      	ldr	r2, [r7, #8]
 8002574:	4413      	add	r3, r2
 8002576:	60bb      	str	r3, [r7, #8]
 8002578:	687b      	ldr	r3, [r7, #4]
 800257a:	681b      	ldr	r3, [r3, #0]
 800257c:	f8d3 20a0 	ldr.w	r2, [r3, #160]	; 0xa0
 8002580:	4b86      	ldr	r3, [pc, #536]	; (800279c <FDCAN_CalcultateRamBlockAddresses+0x2b4>)
 8002582:	4013      	ands	r3, r2
 8002584:	68ba      	ldr	r2, [r7, #8]
 8002586:	0091      	lsls	r1, r2, #2
 8002588:	687a      	ldr	r2, [r7, #4]
 800258a:	6812      	ldr	r2, [r2, #0]
 800258c:	430b      	orrs	r3, r1
 800258e:	f8c2 30a0 	str.w	r3, [r2, #160]	; 0xa0
 8002592:	687b      	ldr	r3, [r7, #4]
 8002594:	681b      	ldr	r3, [r3, #0]
 8002596:	f8d3 30a0 	ldr.w	r3, [r3, #160]	; 0xa0
 800259a:	f423 01fe 	bic.w	r1, r3, #8323072	; 0x7f0000
 800259e:	687b      	ldr	r3, [r7, #4]
 80025a0:	6c1b      	ldr	r3, [r3, #64]	; 0x40
 80025a2:	041a      	lsls	r2, r3, #16
 80025a4:	687b      	ldr	r3, [r7, #4]
 80025a6:	681b      	ldr	r3, [r3, #0]
 80025a8:	430a      	orrs	r2, r1
 80025aa:	f8c3 20a0 	str.w	r2, [r3, #160]	; 0xa0
 80025ae:	687b      	ldr	r3, [r7, #4]
 80025b0:	6c1b      	ldr	r3, [r3, #64]	; 0x40
 80025b2:	687a      	ldr	r2, [r7, #4]
 80025b4:	6c52      	ldr	r2, [r2, #68]	; 0x44
 80025b6:	fb02 f303 	mul.w	r3, r2, r3
 80025ba:	68ba      	ldr	r2, [r7, #8]
 80025bc:	4413      	add	r3, r2
 80025be:	60bb      	str	r3, [r7, #8]
 80025c0:	687b      	ldr	r3, [r7, #4]
 80025c2:	681b      	ldr	r3, [r3, #0]
 80025c4:	f8d3 20b0 	ldr.w	r2, [r3, #176]	; 0xb0
 80025c8:	4b74      	ldr	r3, [pc, #464]	; (800279c <FDCAN_CalcultateRamBlockAddresses+0x2b4>)
 80025ca:	4013      	ands	r3, r2
 80025cc:	68ba      	ldr	r2, [r7, #8]
 80025ce:	0091      	lsls	r1, r2, #2
 80025d0:	687a      	ldr	r2, [r7, #4]
 80025d2:	6812      	ldr	r2, [r2, #0]
 80025d4:	430b      	orrs	r3, r1
 80025d6:	f8c2 30b0 	str.w	r3, [r2, #176]	; 0xb0
 80025da:	687b      	ldr	r3, [r7, #4]
 80025dc:	681b      	ldr	r3, [r3, #0]
 80025de:	f8d3 30b0 	ldr.w	r3, [r3, #176]	; 0xb0
 80025e2:	f423 01fe 	bic.w	r1, r3, #8323072	; 0x7f0000
 80025e6:	687b      	ldr	r3, [r7, #4]
 80025e8:	6c9b      	ldr	r3, [r3, #72]	; 0x48
 80025ea:	041a      	lsls	r2, r3, #16
 80025ec:	687b      	ldr	r3, [r7, #4]
 80025ee:	681b      	ldr	r3, [r3, #0]
 80025f0:	430a      	orrs	r2, r1
 80025f2:	f8c3 20b0 	str.w	r2, [r3, #176]	; 0xb0
 80025f6:	687b      	ldr	r3, [r7, #4]
 80025f8:	6c9b      	ldr	r3, [r3, #72]	; 0x48
 80025fa:	687a      	ldr	r2, [r7, #4]
 80025fc:	6cd2      	ldr	r2, [r2, #76]	; 0x4c
 80025fe:	fb02 f303 	mul.w	r3, r2, r3
 8002602:	68ba      	ldr	r2, [r7, #8]
 8002604:	4413      	add	r3, r2
 8002606:	60bb      	str	r3, [r7, #8]
 8002608:	687b      	ldr	r3, [r7, #4]
 800260a:	681b      	ldr	r3, [r3, #0]
 800260c:	f8d3 20ac 	ldr.w	r2, [r3, #172]	; 0xac
 8002610:	4b62      	ldr	r3, [pc, #392]	; (800279c <FDCAN_CalcultateRamBlockAddresses+0x2b4>)
 8002612:	4013      	ands	r3, r2
 8002614:	68ba      	ldr	r2, [r7, #8]
 8002616:	0091      	lsls	r1, r2, #2
 8002618:	687a      	ldr	r2, [r7, #4]
 800261a:	6812      	ldr	r2, [r2, #0]
 800261c:	430b      	orrs	r3, r1
 800261e:	f8c2 30ac 	str.w	r3, [r2, #172]	; 0xac
 8002622:	687b      	ldr	r3, [r7, #4]
 8002624:	6d1b      	ldr	r3, [r3, #80]	; 0x50
 8002626:	687a      	ldr	r2, [r7, #4]
 8002628:	6d52      	ldr	r2, [r2, #84]	; 0x54
 800262a:	fb02 f303 	mul.w	r3, r2, r3
 800262e:	68ba      	ldr	r2, [r7, #8]
 8002630:	4413      	add	r3, r2
 8002632:	60bb      	str	r3, [r7, #8]
 8002634:	687b      	ldr	r3, [r7, #4]
 8002636:	681b      	ldr	r3, [r3, #0]
 8002638:	f8d3 20f0 	ldr.w	r2, [r3, #240]	; 0xf0
 800263c:	4b57      	ldr	r3, [pc, #348]	; (800279c <FDCAN_CalcultateRamBlockAddresses+0x2b4>)
 800263e:	4013      	ands	r3, r2
 8002640:	68ba      	ldr	r2, [r7, #8]
 8002642:	0091      	lsls	r1, r2, #2
 8002644:	687a      	ldr	r2, [r7, #4]
 8002646:	6812      	ldr	r2, [r2, #0]
 8002648:	430b      	orrs	r3, r1
 800264a:	f8c2 30f0 	str.w	r3, [r2, #240]	; 0xf0
 800264e:	687b      	ldr	r3, [r7, #4]
 8002650:	681b      	ldr	r3, [r3, #0]
 8002652:	f8d3 30f0 	ldr.w	r3, [r3, #240]	; 0xf0
 8002656:	f423 117c 	bic.w	r1, r3, #4128768	; 0x3f0000
 800265a:	687b      	ldr	r3, [r7, #4]
 800265c:	6d9b      	ldr	r3, [r3, #88]	; 0x58
 800265e:	041a      	lsls	r2, r3, #16
 8002660:	687b      	ldr	r3, [r7, #4]
 8002662:	681b      	ldr	r3, [r3, #0]
 8002664:	430a      	orrs	r2, r1
 8002666:	f8c3 20f0 	str.w	r2, [r3, #240]	; 0xf0
 800266a:	687b      	ldr	r3, [r7, #4]
 800266c:	6d9b      	ldr	r3, [r3, #88]	; 0x58
 800266e:	005b      	lsls	r3, r3, #1
 8002670:	68ba      	ldr	r2, [r7, #8]
 8002672:	4413      	add	r3, r2
 8002674:	60bb      	str	r3, [r7, #8]
 8002676:	687b      	ldr	r3, [r7, #4]
 8002678:	681b      	ldr	r3, [r3, #0]
 800267a:	f8d3 20c0 	ldr.w	r2, [r3, #192]	; 0xc0
 800267e:	4b47      	ldr	r3, [pc, #284]	; (800279c <FDCAN_CalcultateRamBlockAddresses+0x2b4>)
 8002680:	4013      	ands	r3, r2
 8002682:	68ba      	ldr	r2, [r7, #8]
 8002684:	0091      	lsls	r1, r2, #2
 8002686:	687a      	ldr	r2, [r7, #4]
 8002688:	6812      	ldr	r2, [r2, #0]
 800268a:	430b      	orrs	r3, r1
 800268c:	f8c2 30c0 	str.w	r3, [r2, #192]	; 0xc0
 8002690:	687b      	ldr	r3, [r7, #4]
 8002692:	681b      	ldr	r3, [r3, #0]
 8002694:	f8d3 30c0 	ldr.w	r3, [r3, #192]	; 0xc0
 8002698:	f423 117c 	bic.w	r1, r3, #4128768	; 0x3f0000
 800269c:	687b      	ldr	r3, [r7, #4]
 800269e:	6ddb      	ldr	r3, [r3, #92]	; 0x5c
 80026a0:	041a      	lsls	r2, r3, #16
 80026a2:	687b      	ldr	r3, [r7, #4]
 80026a4:	681b      	ldr	r3, [r3, #0]
 80026a6:	430a      	orrs	r2, r1
 80026a8:	f8c3 20c0 	str.w	r2, [r3, #192]	; 0xc0
 80026ac:	687b      	ldr	r3, [r7, #4]
 80026ae:	681b      	ldr	r3, [r3, #0]
 80026b0:	f8d3 30c0 	ldr.w	r3, [r3, #192]	; 0xc0
 80026b4:	f023 517c 	bic.w	r1, r3, #1056964608	; 0x3f000000
 80026b8:	687b      	ldr	r3, [r7, #4]
 80026ba:	6e1b      	ldr	r3, [r3, #96]	; 0x60
 80026bc:	061a      	lsls	r2, r3, #24
 80026be:	687b      	ldr	r3, [r7, #4]
 80026c0:	681b      	ldr	r3, [r3, #0]
 80026c2:	430a      	orrs	r2, r1
 80026c4:	f8c3 20c0 	str.w	r2, [r3, #192]	; 0xc0
 80026c8:	687b      	ldr	r3, [r7, #4]
 80026ca:	6b5a      	ldr	r2, [r3, #52]	; 0x34
 80026cc:	4b34      	ldr	r3, [pc, #208]	; (80027a0 <FDCAN_CalcultateRamBlockAddresses+0x2b8>)
 80026ce:	4413      	add	r3, r2
 80026d0:	009a      	lsls	r2, r3, #2
 80026d2:	687b      	ldr	r3, [r7, #4]
 80026d4:	66da      	str	r2, [r3, #108]	; 0x6c
 80026d6:	687b      	ldr	r3, [r7, #4]
 80026d8:	6eda      	ldr	r2, [r3, #108]	; 0x6c
 80026da:	687b      	ldr	r3, [r7, #4]
 80026dc:	6b9b      	ldr	r3, [r3, #56]	; 0x38
 80026de:	009b      	lsls	r3, r3, #2
 80026e0:	441a      	add	r2, r3
 80026e2:	687b      	ldr	r3, [r7, #4]
 80026e4:	671a      	str	r2, [r3, #112]	; 0x70
 80026e6:	687b      	ldr	r3, [r7, #4]
 80026e8:	6f1a      	ldr	r2, [r3, #112]	; 0x70
 80026ea:	687b      	ldr	r3, [r7, #4]
 80026ec:	6bdb      	ldr	r3, [r3, #60]	; 0x3c
 80026ee:	00db      	lsls	r3, r3, #3
 80026f0:	441a      	add	r2, r3
 80026f2:	687b      	ldr	r3, [r7, #4]
 80026f4:	675a      	str	r2, [r3, #116]	; 0x74
 80026f6:	687b      	ldr	r3, [r7, #4]
 80026f8:	6f5a      	ldr	r2, [r3, #116]	; 0x74
 80026fa:	687b      	ldr	r3, [r7, #4]
 80026fc:	6c1b      	ldr	r3, [r3, #64]	; 0x40
 80026fe:	6879      	ldr	r1, [r7, #4]
 8002700:	6c49      	ldr	r1, [r1, #68]	; 0x44
 8002702:	fb01 f303 	mul.w	r3, r1, r3
 8002706:	009b      	lsls	r3, r3, #2
 8002708:	441a      	add	r2, r3
 800270a:	687b      	ldr	r3, [r7, #4]
 800270c:	679a      	str	r2, [r3, #120]	; 0x78
 800270e:	687b      	ldr	r3, [r7, #4]
 8002710:	6f9a      	ldr	r2, [r3, #120]	; 0x78
 8002712:	687b      	ldr	r3, [r7, #4]
 8002714:	6c9b      	ldr	r3, [r3, #72]	; 0x48
 8002716:	6879      	ldr	r1, [r7, #4]
 8002718:	6cc9      	ldr	r1, [r1, #76]	; 0x4c
 800271a:	fb01 f303 	mul.w	r3, r1, r3
 800271e:	009b      	lsls	r3, r3, #2
 8002720:	441a      	add	r2, r3
 8002722:	687b      	ldr	r3, [r7, #4]
 8002724:	67da      	str	r2, [r3, #124]	; 0x7c
 8002726:	687b      	ldr	r3, [r7, #4]
 8002728:	6fda      	ldr	r2, [r3, #124]	; 0x7c
 800272a:	687b      	ldr	r3, [r7, #4]
 800272c:	6d1b      	ldr	r3, [r3, #80]	; 0x50
 800272e:	6879      	ldr	r1, [r7, #4]
 8002730:	6d49      	ldr	r1, [r1, #84]	; 0x54
 8002732:	fb01 f303 	mul.w	r3, r1, r3
 8002736:	009b      	lsls	r3, r3, #2
 8002738:	441a      	add	r2, r3
 800273a:	687b      	ldr	r3, [r7, #4]
 800273c:	f8c3 2080 	str.w	r2, [r3, #128]	; 0x80
 8002740:	687b      	ldr	r3, [r7, #4]
 8002742:	f8d3 2080 	ldr.w	r2, [r3, #128]	; 0x80
 8002746:	687b      	ldr	r3, [r7, #4]
 8002748:	6d9b      	ldr	r3, [r3, #88]	; 0x58
 800274a:	00db      	lsls	r3, r3, #3
 800274c:	441a      	add	r2, r3
 800274e:	687b      	ldr	r3, [r7, #4]
 8002750:	f8c3 2084 	str.w	r2, [r3, #132]	; 0x84
 8002754:	687b      	ldr	r3, [r7, #4]
 8002756:	f8d3 2084 	ldr.w	r2, [r3, #132]	; 0x84
 800275a:	687b      	ldr	r3, [r7, #4]
 800275c:	6ddb      	ldr	r3, [r3, #92]	; 0x5c
 800275e:	6879      	ldr	r1, [r7, #4]
 8002760:	6e89      	ldr	r1, [r1, #104]	; 0x68
 8002762:	fb01 f303 	mul.w	r3, r1, r3
 8002766:	009b      	lsls	r3, r3, #2
 8002768:	441a      	add	r2, r3
 800276a:	687b      	ldr	r3, [r7, #4]
 800276c:	f8c3 2088 	str.w	r2, [r3, #136]	; 0x88
 8002770:	687b      	ldr	r3, [r7, #4]
 8002772:	f8d3 2088 	ldr.w	r2, [r3, #136]	; 0x88
 8002776:	687b      	ldr	r3, [r7, #4]
 8002778:	6e1b      	ldr	r3, [r3, #96]	; 0x60
 800277a:	6879      	ldr	r1, [r7, #4]
 800277c:	6e89      	ldr	r1, [r1, #104]	; 0x68
 800277e:	fb01 f303 	mul.w	r3, r1, r3
 8002782:	009b      	lsls	r3, r3, #2
 8002784:	441a      	add	r2, r3
 8002786:	687b      	ldr	r3, [r7, #4]
 8002788:	f8c3 2090 	str.w	r2, [r3, #144]	; 0x90
 800278c:	687b      	ldr	r3, [r7, #4]
 800278e:	f8d3 3090 	ldr.w	r3, [r3, #144]	; 0x90
 8002792:	4a04      	ldr	r2, [pc, #16]	; (80027a4 <FDCAN_CalcultateRamBlockAddresses+0x2bc>)
 8002794:	4293      	cmp	r3, r2
 8002796:	d915      	bls.n	80027c4 <FDCAN_CalcultateRamBlockAddresses+0x2dc>
 8002798:	e006      	b.n	80027a8 <FDCAN_CalcultateRamBlockAddresses+0x2c0>
 800279a:	bf00      	nop
 800279c:	ffff0003 	.word	0xffff0003
 80027a0:	10002b00 	.word	0x10002b00
 80027a4:	4000d3fc 	.word	0x4000d3fc
 80027a8:	687b      	ldr	r3, [r7, #4]
 80027aa:	f8d3 309c 	ldr.w	r3, [r3, #156]	; 0x9c
 80027ae:	f043 0220 	orr.w	r2, r3, #32
 80027b2:	687b      	ldr	r3, [r7, #4]
 80027b4:	f8c3 209c 	str.w	r2, [r3, #156]	; 0x9c
 80027b8:	687b      	ldr	r3, [r7, #4]
 80027ba:	2203      	movs	r2, #3
 80027bc:	f883 2098 	strb.w	r2, [r3, #152]	; 0x98
 80027c0:	2301      	movs	r3, #1
 80027c2:	e010      	b.n	80027e6 <FDCAN_CalcultateRamBlockAddresses+0x2fe>
 80027c4:	687b      	ldr	r3, [r7, #4]
 80027c6:	6edb      	ldr	r3, [r3, #108]	; 0x6c
 80027c8:	60fb      	str	r3, [r7, #12]
 80027ca:	e005      	b.n	80027d8 <FDCAN_CalcultateRamBlockAddresses+0x2f0>
 80027cc:	68fb      	ldr	r3, [r7, #12]
 80027ce:	2200      	movs	r2, #0
 80027d0:	601a      	str	r2, [r3, #0]
 80027d2:	68fb      	ldr	r3, [r7, #12]
 80027d4:	3304      	adds	r3, #4
 80027d6:	60fb      	str	r3, [r7, #12]
 80027d8:	687b      	ldr	r3, [r7, #4]
 80027da:	f8d3 3090 	ldr.w	r3, [r3, #144]	; 0x90
 80027de:	68fa      	ldr	r2, [r7, #12]
 80027e0:	429a      	cmp	r2, r3
 80027e2:	d3f3      	bcc.n	80027cc <FDCAN_CalcultateRamBlockAddresses+0x2e4>
 80027e4:	2300      	movs	r3, #0
 80027e6:	4618      	mov	r0, r3
 80027e8:	3714      	adds	r7, #20
 80027ea:	46bd      	mov	sp, r7
 80027ec:	f85d 7b04 	ldr.w	r7, [sp], #4
 80027f0:	4770      	bx	lr
 80027f2:	bf00      	nop

080027f4 <HAL_GPIO_Init>:
 80027f4:	b480      	push	{r7}
 80027f6:	b089      	sub	sp, #36	; 0x24
 80027f8:	af00      	add	r7, sp, #0
 80027fa:	6078      	str	r0, [r7, #4]
 80027fc:	6039      	str	r1, [r7, #0]
 80027fe:	2300      	movs	r3, #0
 8002800:	61fb      	str	r3, [r7, #28]
 8002802:	4b89      	ldr	r3, [pc, #548]	; (8002a28 <HAL_GPIO_Init+0x234>)
 8002804:	617b      	str	r3, [r7, #20]
 8002806:	e194      	b.n	8002b32 <HAL_GPIO_Init+0x33e>
 8002808:	683b      	ldr	r3, [r7, #0]
 800280a:	681a      	ldr	r2, [r3, #0]
 800280c:	2101      	movs	r1, #1
 800280e:	69fb      	ldr	r3, [r7, #28]
 8002810:	fa01 f303 	lsl.w	r3, r1, r3
 8002814:	4013      	ands	r3, r2
 8002816:	613b      	str	r3, [r7, #16]
 8002818:	693b      	ldr	r3, [r7, #16]
 800281a:	2b00      	cmp	r3, #0
 800281c:	f000 8186 	beq.w	8002b2c <HAL_GPIO_Init+0x338>
 8002820:	683b      	ldr	r3, [r7, #0]
 8002822:	685b      	ldr	r3, [r3, #4]
 8002824:	2b01      	cmp	r3, #1
 8002826:	d00b      	beq.n	8002840 <HAL_GPIO_Init+0x4c>
 8002828:	683b      	ldr	r3, [r7, #0]
 800282a:	685b      	ldr	r3, [r3, #4]
 800282c:	2b02      	cmp	r3, #2
 800282e:	d007      	beq.n	8002840 <HAL_GPIO_Init+0x4c>
 8002830:	683b      	ldr	r3, [r7, #0]
 8002832:	685b      	ldr	r3, [r3, #4]
 8002834:	2b11      	cmp	r3, #17
 8002836:	d003      	beq.n	8002840 <HAL_GPIO_Init+0x4c>
 8002838:	683b      	ldr	r3, [r7, #0]
 800283a:	685b      	ldr	r3, [r3, #4]
 800283c:	2b12      	cmp	r3, #18
 800283e:	d130      	bne.n	80028a2 <HAL_GPIO_Init+0xae>
 8002840:	687b      	ldr	r3, [r7, #4]
 8002842:	689b      	ldr	r3, [r3, #8]
 8002844:	61bb      	str	r3, [r7, #24]
 8002846:	69fb      	ldr	r3, [r7, #28]
 8002848:	005b      	lsls	r3, r3, #1
 800284a:	2203      	movs	r2, #3
 800284c:	fa02 f303 	lsl.w	r3, r2, r3
 8002850:	43db      	mvns	r3, r3
 8002852:	69ba      	ldr	r2, [r7, #24]
 8002854:	4013      	ands	r3, r2
 8002856:	61bb      	str	r3, [r7, #24]
 8002858:	683b      	ldr	r3, [r7, #0]
 800285a:	68da      	ldr	r2, [r3, #12]
 800285c:	69fb      	ldr	r3, [r7, #28]
 800285e:	005b      	lsls	r3, r3, #1
 8002860:	fa02 f303 	lsl.w	r3, r2, r3
 8002864:	69ba      	ldr	r2, [r7, #24]
 8002866:	4313      	orrs	r3, r2
 8002868:	61bb      	str	r3, [r7, #24]
 800286a:	687b      	ldr	r3, [r7, #4]
 800286c:	69ba      	ldr	r2, [r7, #24]
 800286e:	609a      	str	r2, [r3, #8]
 8002870:	687b      	ldr	r3, [r7, #4]
 8002872:	685b      	ldr	r3, [r3, #4]
 8002874:	61bb      	str	r3, [r7, #24]
 8002876:	2201      	movs	r2, #1
 8002878:	69fb      	ldr	r3, [r7, #28]
 800287a:	fa02 f303 	lsl.w	r3, r2, r3
 800287e:	43db      	mvns	r3, r3
 8002880:	69ba      	ldr	r2, [r7, #24]
 8002882:	4013      	ands	r3, r2
 8002884:	61bb      	str	r3, [r7, #24]
 8002886:	683b      	ldr	r3, [r7, #0]
 8002888:	685b      	ldr	r3, [r3, #4]
 800288a:	091b      	lsrs	r3, r3, #4
 800288c:	f003 0201 	and.w	r2, r3, #1
 8002890:	69fb      	ldr	r3, [r7, #28]
 8002892:	fa02 f303 	lsl.w	r3, r2, r3
 8002896:	69ba      	ldr	r2, [r7, #24]
 8002898:	4313      	orrs	r3, r2
 800289a:	61bb      	str	r3, [r7, #24]
 800289c:	687b      	ldr	r3, [r7, #4]
 800289e:	69ba      	ldr	r2, [r7, #24]
 80028a0:	605a      	str	r2, [r3, #4]
 80028a2:	687b      	ldr	r3, [r7, #4]
 80028a4:	68db      	ldr	r3, [r3, #12]
 80028a6:	61bb      	str	r3, [r7, #24]
 80028a8:	69fb      	ldr	r3, [r7, #28]
 80028aa:	005b      	lsls	r3, r3, #1
 80028ac:	2203      	movs	r2, #3
 80028ae:	fa02 f303 	lsl.w	r3, r2, r3
 80028b2:	43db      	mvns	r3, r3
 80028b4:	69ba      	ldr	r2, [r7, #24]
 80028b6:	4013      	ands	r3, r2
 80028b8:	61bb      	str	r3, [r7, #24]
 80028ba:	683b      	ldr	r3, [r7, #0]
 80028bc:	689a      	ldr	r2, [r3, #8]
 80028be:	69fb      	ldr	r3, [r7, #28]
 80028c0:	005b      	lsls	r3, r3, #1
 80028c2:	fa02 f303 	lsl.w	r3, r2, r3
 80028c6:	69ba      	ldr	r2, [r7, #24]
 80028c8:	4313      	orrs	r3, r2
 80028ca:	61bb      	str	r3, [r7, #24]
 80028cc:	687b      	ldr	r3, [r7, #4]
 80028ce:	69ba      	ldr	r2, [r7, #24]
 80028d0:	60da      	str	r2, [r3, #12]
 80028d2:	683b      	ldr	r3, [r7, #0]
 80028d4:	685b      	ldr	r3, [r3, #4]
 80028d6:	2b02      	cmp	r3, #2
 80028d8:	d003      	beq.n	80028e2 <HAL_GPIO_Init+0xee>
 80028da:	683b      	ldr	r3, [r7, #0]
 80028dc:	685b      	ldr	r3, [r3, #4]
 80028de:	2b12      	cmp	r3, #18
 80028e0:	d123      	bne.n	800292a <HAL_GPIO_Init+0x136>
 80028e2:	69fb      	ldr	r3, [r7, #28]
 80028e4:	08da      	lsrs	r2, r3, #3
 80028e6:	687b      	ldr	r3, [r7, #4]
 80028e8:	3208      	adds	r2, #8
 80028ea:	f853 3022 	ldr.w	r3, [r3, r2, lsl #2]
 80028ee:	61bb      	str	r3, [r7, #24]
 80028f0:	69fb      	ldr	r3, [r7, #28]
 80028f2:	f003 0307 	and.w	r3, r3, #7
 80028f6:	009b      	lsls	r3, r3, #2
 80028f8:	220f      	movs	r2, #15
 80028fa:	fa02 f303 	lsl.w	r3, r2, r3
 80028fe:	43db      	mvns	r3, r3
 8002900:	69ba      	ldr	r2, [r7, #24]
 8002902:	4013      	ands	r3, r2
 8002904:	61bb      	str	r3, [r7, #24]
 8002906:	683b      	ldr	r3, [r7, #0]
 8002908:	691a      	ldr	r2, [r3, #16]
 800290a:	69fb      	ldr	r3, [r7, #28]
 800290c:	f003 0307 	and.w	r3, r3, #7
 8002910:	009b      	lsls	r3, r3, #2
 8002912:	fa02 f303 	lsl.w	r3, r2, r3
 8002916:	69ba      	ldr	r2, [r7, #24]
 8002918:	4313      	orrs	r3, r2
 800291a:	61bb      	str	r3, [r7, #24]
 800291c:	69fb      	ldr	r3, [r7, #28]
 800291e:	08da      	lsrs	r2, r3, #3
 8002920:	687b      	ldr	r3, [r7, #4]
 8002922:	3208      	adds	r2, #8
 8002924:	69b9      	ldr	r1, [r7, #24]
 8002926:	f843 1022 	str.w	r1, [r3, r2, lsl #2]
 800292a:	687b      	ldr	r3, [r7, #4]
 800292c:	681b      	ldr	r3, [r3, #0]
 800292e:	61bb      	str	r3, [r7, #24]
 8002930:	69fb      	ldr	r3, [r7, #28]
 8002932:	005b      	lsls	r3, r3, #1
 8002934:	2203      	movs	r2, #3
 8002936:	fa02 f303 	lsl.w	r3, r2, r3
 800293a:	43db      	mvns	r3, r3
 800293c:	69ba      	ldr	r2, [r7, #24]
 800293e:	4013      	ands	r3, r2
 8002940:	61bb      	str	r3, [r7, #24]
 8002942:	683b      	ldr	r3, [r7, #0]
 8002944:	685b      	ldr	r3, [r3, #4]
 8002946:	f003 0203 	and.w	r2, r3, #3
 800294a:	69fb      	ldr	r3, [r7, #28]
 800294c:	005b      	lsls	r3, r3, #1
 800294e:	fa02 f303 	lsl.w	r3, r2, r3
 8002952:	69ba      	ldr	r2, [r7, #24]
 8002954:	4313      	orrs	r3, r2
 8002956:	61bb      	str	r3, [r7, #24]
 8002958:	687b      	ldr	r3, [r7, #4]
 800295a:	69ba      	ldr	r2, [r7, #24]
 800295c:	601a      	str	r2, [r3, #0]
 800295e:	683b      	ldr	r3, [r7, #0]
 8002960:	685b      	ldr	r3, [r3, #4]
 8002962:	f003 5380 	and.w	r3, r3, #268435456	; 0x10000000
 8002966:	2b00      	cmp	r3, #0
 8002968:	f000 80e0 	beq.w	8002b2c <HAL_GPIO_Init+0x338>
 800296c:	4b2f      	ldr	r3, [pc, #188]	; (8002a2c <HAL_GPIO_Init+0x238>)
 800296e:	f8d3 30f4 	ldr.w	r3, [r3, #244]	; 0xf4
 8002972:	4a2e      	ldr	r2, [pc, #184]	; (8002a2c <HAL_GPIO_Init+0x238>)
 8002974:	f043 0302 	orr.w	r3, r3, #2
 8002978:	f8c2 30f4 	str.w	r3, [r2, #244]	; 0xf4
 800297c:	4b2b      	ldr	r3, [pc, #172]	; (8002a2c <HAL_GPIO_Init+0x238>)
 800297e:	f8d3 30f4 	ldr.w	r3, [r3, #244]	; 0xf4
 8002982:	f003 0302 	and.w	r3, r3, #2
 8002986:	60fb      	str	r3, [r7, #12]
 8002988:	68fb      	ldr	r3, [r7, #12]
 800298a:	4a29      	ldr	r2, [pc, #164]	; (8002a30 <HAL_GPIO_Init+0x23c>)
 800298c:	69fb      	ldr	r3, [r7, #28]
 800298e:	089b      	lsrs	r3, r3, #2
 8002990:	3302      	adds	r3, #2
 8002992:	f852 3023 	ldr.w	r3, [r2, r3, lsl #2]
 8002996:	61bb      	str	r3, [r7, #24]
 8002998:	69fb      	ldr	r3, [r7, #28]
 800299a:	f003 0303 	and.w	r3, r3, #3
 800299e:	009b      	lsls	r3, r3, #2
 80029a0:	220f      	movs	r2, #15
 80029a2:	fa02 f303 	lsl.w	r3, r2, r3
 80029a6:	43db      	mvns	r3, r3
 80029a8:	69ba      	ldr	r2, [r7, #24]
 80029aa:	4013      	ands	r3, r2
 80029ac:	61bb      	str	r3, [r7, #24]
 80029ae:	687b      	ldr	r3, [r7, #4]
 80029b0:	4a20      	ldr	r2, [pc, #128]	; (8002a34 <HAL_GPIO_Init+0x240>)
 80029b2:	4293      	cmp	r3, r2
 80029b4:	d052      	beq.n	8002a5c <HAL_GPIO_Init+0x268>
 80029b6:	687b      	ldr	r3, [r7, #4]
 80029b8:	4a1f      	ldr	r2, [pc, #124]	; (8002a38 <HAL_GPIO_Init+0x244>)
 80029ba:	4293      	cmp	r3, r2
 80029bc:	d031      	beq.n	8002a22 <HAL_GPIO_Init+0x22e>
 80029be:	687b      	ldr	r3, [r7, #4]
 80029c0:	4a1e      	ldr	r2, [pc, #120]	; (8002a3c <HAL_GPIO_Init+0x248>)
 80029c2:	4293      	cmp	r3, r2
 80029c4:	d02b      	beq.n	8002a1e <HAL_GPIO_Init+0x22a>
 80029c6:	687b      	ldr	r3, [r7, #4]
 80029c8:	4a1d      	ldr	r2, [pc, #116]	; (8002a40 <HAL_GPIO_Init+0x24c>)
 80029ca:	4293      	cmp	r3, r2
 80029cc:	d025      	beq.n	8002a1a <HAL_GPIO_Init+0x226>
 80029ce:	687b      	ldr	r3, [r7, #4]
 80029d0:	4a1c      	ldr	r2, [pc, #112]	; (8002a44 <HAL_GPIO_Init+0x250>)
 80029d2:	4293      	cmp	r3, r2
 80029d4:	d01f      	beq.n	8002a16 <HAL_GPIO_Init+0x222>
 80029d6:	687b      	ldr	r3, [r7, #4]
 80029d8:	4a1b      	ldr	r2, [pc, #108]	; (8002a48 <HAL_GPIO_Init+0x254>)
 80029da:	4293      	cmp	r3, r2
 80029dc:	d019      	beq.n	8002a12 <HAL_GPIO_Init+0x21e>
 80029de:	687b      	ldr	r3, [r7, #4]
 80029e0:	4a1a      	ldr	r2, [pc, #104]	; (8002a4c <HAL_GPIO_Init+0x258>)
 80029e2:	4293      	cmp	r3, r2
 80029e4:	d013      	beq.n	8002a0e <HAL_GPIO_Init+0x21a>
 80029e6:	687b      	ldr	r3, [r7, #4]
 80029e8:	4a19      	ldr	r2, [pc, #100]	; (8002a50 <HAL_GPIO_Init+0x25c>)
 80029ea:	4293      	cmp	r3, r2
 80029ec:	d00d      	beq.n	8002a0a <HAL_GPIO_Init+0x216>
 80029ee:	687b      	ldr	r3, [r7, #4]
 80029f0:	4a18      	ldr	r2, [pc, #96]	; (8002a54 <HAL_GPIO_Init+0x260>)
 80029f2:	4293      	cmp	r3, r2
 80029f4:	d007      	beq.n	8002a06 <HAL_GPIO_Init+0x212>
 80029f6:	687b      	ldr	r3, [r7, #4]
 80029f8:	4a17      	ldr	r2, [pc, #92]	; (8002a58 <HAL_GPIO_Init+0x264>)
 80029fa:	4293      	cmp	r3, r2
 80029fc:	d101      	bne.n	8002a02 <HAL_GPIO_Init+0x20e>
 80029fe:	2309      	movs	r3, #9
 8002a00:	e02d      	b.n	8002a5e <HAL_GPIO_Init+0x26a>
 8002a02:	230a      	movs	r3, #10
 8002a04:	e02b      	b.n	8002a5e <HAL_GPIO_Init+0x26a>
 8002a06:	2308      	movs	r3, #8
 8002a08:	e029      	b.n	8002a5e <HAL_GPIO_Init+0x26a>
 8002a0a:	2307      	movs	r3, #7
 8002a0c:	e027      	b.n	8002a5e <HAL_GPIO_Init+0x26a>
 8002a0e:	2306      	movs	r3, #6
 8002a10:	e025      	b.n	8002a5e <HAL_GPIO_Init+0x26a>
 8002a12:	2305      	movs	r3, #5
 8002a14:	e023      	b.n	8002a5e <HAL_GPIO_Init+0x26a>
 8002a16:	2304      	movs	r3, #4
 8002a18:	e021      	b.n	8002a5e <HAL_GPIO_Init+0x26a>
 8002a1a:	2303      	movs	r3, #3
 8002a1c:	e01f      	b.n	8002a5e <HAL_GPIO_Init+0x26a>
 8002a1e:	2302      	movs	r3, #2
 8002a20:	e01d      	b.n	8002a5e <HAL_GPIO_Init+0x26a>
 8002a22:	2301      	movs	r3, #1
 8002a24:	e01b      	b.n	8002a5e <HAL_GPIO_Init+0x26a>
 8002a26:	bf00      	nop
 8002a28:	58000080 	.word	0x58000080
 8002a2c:	58024400 	.word	0x58024400
 8002a30:	58000400 	.word	0x58000400
 8002a34:	58020000 	.word	0x58020000
 8002a38:	58020400 	.word	0x58020400
 8002a3c:	58020800 	.word	0x58020800
 8002a40:	58020c00 	.word	0x58020c00
 8002a44:	58021000 	.word	0x58021000
 8002a48:	58021400 	.word	0x58021400
 8002a4c:	58021800 	.word	0x58021800
 8002a50:	58021c00 	.word	0x58021c00
 8002a54:	58022000 	.word	0x58022000
 8002a58:	58022400 	.word	0x58022400
 8002a5c:	2300      	movs	r3, #0
 8002a5e:	69fa      	ldr	r2, [r7, #28]
 8002a60:	f002 0203 	and.w	r2, r2, #3
 8002a64:	0092      	lsls	r2, r2, #2
 8002a66:	4093      	lsls	r3, r2
 8002a68:	69ba      	ldr	r2, [r7, #24]
 8002a6a:	4313      	orrs	r3, r2
 8002a6c:	61bb      	str	r3, [r7, #24]
 8002a6e:	4938      	ldr	r1, [pc, #224]	; (8002b50 <HAL_GPIO_Init+0x35c>)
 8002a70:	69fb      	ldr	r3, [r7, #28]
 8002a72:	089b      	lsrs	r3, r3, #2
 8002a74:	3302      	adds	r3, #2
 8002a76:	69ba      	ldr	r2, [r7, #24]
 8002a78:	f841 2023 	str.w	r2, [r1, r3, lsl #2]
 8002a7c:	697b      	ldr	r3, [r7, #20]
 8002a7e:	681b      	ldr	r3, [r3, #0]
 8002a80:	61bb      	str	r3, [r7, #24]
 8002a82:	693b      	ldr	r3, [r7, #16]
 8002a84:	43db      	mvns	r3, r3
 8002a86:	69ba      	ldr	r2, [r7, #24]
 8002a88:	4013      	ands	r3, r2
 8002a8a:	61bb      	str	r3, [r7, #24]
 8002a8c:	683b      	ldr	r3, [r7, #0]
 8002a8e:	685b      	ldr	r3, [r3, #4]
 8002a90:	f403 3380 	and.w	r3, r3, #65536	; 0x10000
 8002a94:	2b00      	cmp	r3, #0
 8002a96:	d003      	beq.n	8002aa0 <HAL_GPIO_Init+0x2ac>
 8002a98:	69ba      	ldr	r2, [r7, #24]
 8002a9a:	693b      	ldr	r3, [r7, #16]
 8002a9c:	4313      	orrs	r3, r2
 8002a9e:	61bb      	str	r3, [r7, #24]
 8002aa0:	697b      	ldr	r3, [r7, #20]
 8002aa2:	69ba      	ldr	r2, [r7, #24]
 8002aa4:	601a      	str	r2, [r3, #0]
 8002aa6:	697b      	ldr	r3, [r7, #20]
 8002aa8:	685b      	ldr	r3, [r3, #4]
 8002aaa:	61bb      	str	r3, [r7, #24]
 8002aac:	693b      	ldr	r3, [r7, #16]
 8002aae:	43db      	mvns	r3, r3
 8002ab0:	69ba      	ldr	r2, [r7, #24]
 8002ab2:	4013      	ands	r3, r2
 8002ab4:	61bb      	str	r3, [r7, #24]
 8002ab6:	683b      	ldr	r3, [r7, #0]
 8002ab8:	685b      	ldr	r3, [r3, #4]
 8002aba:	f403 3300 	and.w	r3, r3, #131072	; 0x20000
 8002abe:	2b00      	cmp	r3, #0
 8002ac0:	d003      	beq.n	8002aca <HAL_GPIO_Init+0x2d6>
 8002ac2:	69ba      	ldr	r2, [r7, #24]
 8002ac4:	693b      	ldr	r3, [r7, #16]
 8002ac6:	4313      	orrs	r3, r2
 8002ac8:	61bb      	str	r3, [r7, #24]
 8002aca:	697b      	ldr	r3, [r7, #20]
 8002acc:	69ba      	ldr	r2, [r7, #24]
 8002ace:	605a      	str	r2, [r3, #4]
 8002ad0:	f04f 43b0 	mov.w	r3, #1476395008	; 0x58000000
 8002ad4:	681b      	ldr	r3, [r3, #0]
 8002ad6:	61bb      	str	r3, [r7, #24]
 8002ad8:	693b      	ldr	r3, [r7, #16]
 8002ada:	43db      	mvns	r3, r3
 8002adc:	69ba      	ldr	r2, [r7, #24]
 8002ade:	4013      	ands	r3, r2
 8002ae0:	61bb      	str	r3, [r7, #24]
 8002ae2:	683b      	ldr	r3, [r7, #0]
 8002ae4:	685b      	ldr	r3, [r3, #4]
 8002ae6:	f403 1380 	and.w	r3, r3, #1048576	; 0x100000
 8002aea:	2b00      	cmp	r3, #0
 8002aec:	d003      	beq.n	8002af6 <HAL_GPIO_Init+0x302>
 8002aee:	69ba      	ldr	r2, [r7, #24]
 8002af0:	693b      	ldr	r3, [r7, #16]
 8002af2:	4313      	orrs	r3, r2
 8002af4:	61bb      	str	r3, [r7, #24]
 8002af6:	f04f 42b0 	mov.w	r2, #1476395008	; 0x58000000
 8002afa:	69bb      	ldr	r3, [r7, #24]
 8002afc:	6013      	str	r3, [r2, #0]
 8002afe:	f04f 43b0 	mov.w	r3, #1476395008	; 0x58000000
 8002b02:	685b      	ldr	r3, [r3, #4]
 8002b04:	61bb      	str	r3, [r7, #24]
 8002b06:	693b      	ldr	r3, [r7, #16]
 8002b08:	43db      	mvns	r3, r3
 8002b0a:	69ba      	ldr	r2, [r7, #24]
 8002b0c:	4013      	ands	r3, r2
 8002b0e:	61bb      	str	r3, [r7, #24]
 8002b10:	683b      	ldr	r3, [r7, #0]
 8002b12:	685b      	ldr	r3, [r3, #4]
 8002b14:	f403 1300 	and.w	r3, r3, #2097152	; 0x200000
 8002b18:	2b00      	cmp	r3, #0
 8002b1a:	d003      	beq.n	8002b24 <HAL_GPIO_Init+0x330>
 8002b1c:	69ba      	ldr	r2, [r7, #24]
 8002b1e:	693b      	ldr	r3, [r7, #16]
 8002b20:	4313      	orrs	r3, r2
 8002b22:	61bb      	str	r3, [r7, #24]
 8002b24:	f04f 42b0 	mov.w	r2, #1476395008	; 0x58000000
 8002b28:	69bb      	ldr	r3, [r7, #24]
 8002b2a:	6053      	str	r3, [r2, #4]
 8002b2c:	69fb      	ldr	r3, [r7, #28]
 8002b2e:	3301      	adds	r3, #1
 8002b30:	61fb      	str	r3, [r7, #28]
 8002b32:	683b      	ldr	r3, [r7, #0]
 8002b34:	681a      	ldr	r2, [r3, #0]
 8002b36:	69fb      	ldr	r3, [r7, #28]
 8002b38:	fa22 f303 	lsr.w	r3, r2, r3
 8002b3c:	2b00      	cmp	r3, #0
 8002b3e:	f47f ae63 	bne.w	8002808 <HAL_GPIO_Init+0x14>
 8002b42:	bf00      	nop
 8002b44:	3724      	adds	r7, #36	; 0x24
 8002b46:	46bd      	mov	sp, r7
 8002b48:	f85d 7b04 	ldr.w	r7, [sp], #4
 8002b4c:	4770      	bx	lr
 8002b4e:	bf00      	nop
 8002b50:	58000400 	.word	0x58000400

08002b54 <HAL_GPIO_WritePin>:
 8002b54:	b480      	push	{r7}
 8002b56:	b083      	sub	sp, #12
 8002b58:	af00      	add	r7, sp, #0
 8002b5a:	6078      	str	r0, [r7, #4]
 8002b5c:	460b      	mov	r3, r1
 8002b5e:	807b      	strh	r3, [r7, #2]
 8002b60:	4613      	mov	r3, r2
 8002b62:	707b      	strb	r3, [r7, #1]
 8002b64:	787b      	ldrb	r3, [r7, #1]
 8002b66:	2b00      	cmp	r3, #0
 8002b68:	d003      	beq.n	8002b72 <HAL_GPIO_WritePin+0x1e>
 8002b6a:	887a      	ldrh	r2, [r7, #2]
 8002b6c:	687b      	ldr	r3, [r7, #4]
 8002b6e:	619a      	str	r2, [r3, #24]
 8002b70:	e003      	b.n	8002b7a <HAL_GPIO_WritePin+0x26>
 8002b72:	887b      	ldrh	r3, [r7, #2]
 8002b74:	041a      	lsls	r2, r3, #16
 8002b76:	687b      	ldr	r3, [r7, #4]
 8002b78:	619a      	str	r2, [r3, #24]
 8002b7a:	bf00      	nop
 8002b7c:	370c      	adds	r7, #12
 8002b7e:	46bd      	mov	sp, r7
 8002b80:	f85d 7b04 	ldr.w	r7, [sp], #4
 8002b84:	4770      	bx	lr
	...

08002b88 <HAL_PWREx_ConfigSupply>:
 8002b88:	b580      	push	{r7, lr}
 8002b8a:	b084      	sub	sp, #16
 8002b8c:	af00      	add	r7, sp, #0
 8002b8e:	6078      	str	r0, [r7, #4]
 8002b90:	4b19      	ldr	r3, [pc, #100]	; (8002bf8 <HAL_PWREx_ConfigSupply+0x70>)
 8002b92:	68db      	ldr	r3, [r3, #12]
 8002b94:	f003 0304 	and.w	r3, r3, #4
 8002b98:	2b04      	cmp	r3, #4
 8002b9a:	d00a      	beq.n	8002bb2 <HAL_PWREx_ConfigSupply+0x2a>
 8002b9c:	4b16      	ldr	r3, [pc, #88]	; (8002bf8 <HAL_PWREx_ConfigSupply+0x70>)
 8002b9e:	68db      	ldr	r3, [r3, #12]
 8002ba0:	f003 0307 	and.w	r3, r3, #7
 8002ba4:	687a      	ldr	r2, [r7, #4]
 8002ba6:	429a      	cmp	r2, r3
 8002ba8:	d001      	beq.n	8002bae <HAL_PWREx_ConfigSupply+0x26>
 8002baa:	2301      	movs	r3, #1
 8002bac:	e01f      	b.n	8002bee <HAL_PWREx_ConfigSupply+0x66>
 8002bae:	2300      	movs	r3, #0
 8002bb0:	e01d      	b.n	8002bee <HAL_PWREx_ConfigSupply+0x66>
 8002bb2:	4b11      	ldr	r3, [pc, #68]	; (8002bf8 <HAL_PWREx_ConfigSupply+0x70>)
 8002bb4:	68db      	ldr	r3, [r3, #12]
 8002bb6:	f023 0207 	bic.w	r2, r3, #7
 8002bba:	490f      	ldr	r1, [pc, #60]	; (8002bf8 <HAL_PWREx_ConfigSupply+0x70>)
 8002bbc:	687b      	ldr	r3, [r7, #4]
 8002bbe:	4313      	orrs	r3, r2
 8002bc0:	60cb      	str	r3, [r1, #12]
 8002bc2:	f7fe fbb5 	bl	8001330 <HAL_GetTick>
 8002bc6:	60f8      	str	r0, [r7, #12]
 8002bc8:	e009      	b.n	8002bde <HAL_PWREx_ConfigSupply+0x56>
 8002bca:	f7fe fbb1 	bl	8001330 <HAL_GetTick>
 8002bce:	4602      	mov	r2, r0
 8002bd0:	68fb      	ldr	r3, [r7, #12]
 8002bd2:	1ad3      	subs	r3, r2, r3
 8002bd4:	f5b3 7f7a 	cmp.w	r3, #1000	; 0x3e8
 8002bd8:	d901      	bls.n	8002bde <HAL_PWREx_ConfigSupply+0x56>
 8002bda:	2301      	movs	r3, #1
 8002bdc:	e007      	b.n	8002bee <HAL_PWREx_ConfigSupply+0x66>
 8002bde:	4b06      	ldr	r3, [pc, #24]	; (8002bf8 <HAL_PWREx_ConfigSupply+0x70>)
 8002be0:	685b      	ldr	r3, [r3, #4]
 8002be2:	f403 5300 	and.w	r3, r3, #8192	; 0x2000
 8002be6:	f5b3 5f00 	cmp.w	r3, #8192	; 0x2000
 8002bea:	d1ee      	bne.n	8002bca <HAL_PWREx_ConfigSupply+0x42>
 8002bec:	2300      	movs	r3, #0
 8002bee:	4618      	mov	r0, r3
 8002bf0:	3710      	adds	r7, #16
 8002bf2:	46bd      	mov	sp, r7
 8002bf4:	bd80      	pop	{r7, pc}
 8002bf6:	bf00      	nop
 8002bf8:	58024800 	.word	0x58024800

08002bfc <HAL_RCC_OscConfig>:
 8002bfc:	b580      	push	{r7, lr}
 8002bfe:	b08c      	sub	sp, #48	; 0x30
 8002c00:	af00      	add	r7, sp, #0
 8002c02:	6078      	str	r0, [r7, #4]
 8002c04:	687b      	ldr	r3, [r7, #4]
 8002c06:	2b00      	cmp	r3, #0
 8002c08:	d101      	bne.n	8002c0e <HAL_RCC_OscConfig+0x12>
 8002c0a:	2301      	movs	r3, #1
 8002c0c:	e3ff      	b.n	800340e <HAL_RCC_OscConfig+0x812>
 8002c0e:	687b      	ldr	r3, [r7, #4]
 8002c10:	681b      	ldr	r3, [r3, #0]
 8002c12:	f003 0301 	and.w	r3, r3, #1
 8002c16:	2b00      	cmp	r3, #0
 8002c18:	f000 8087 	beq.w	8002d2a <HAL_RCC_OscConfig+0x12e>
 8002c1c:	4b99      	ldr	r3, [pc, #612]	; (8002e84 <HAL_RCC_OscConfig+0x288>)
 8002c1e:	691b      	ldr	r3, [r3, #16]
 8002c20:	f003 0338 	and.w	r3, r3, #56	; 0x38
 8002c24:	62fb      	str	r3, [r7, #44]	; 0x2c
 8002c26:	4b97      	ldr	r3, [pc, #604]	; (8002e84 <HAL_RCC_OscConfig+0x288>)
 8002c28:	6a9b      	ldr	r3, [r3, #40]	; 0x28
 8002c2a:	62bb      	str	r3, [r7, #40]	; 0x28
 8002c2c:	6afb      	ldr	r3, [r7, #44]	; 0x2c
 8002c2e:	2b10      	cmp	r3, #16
 8002c30:	d007      	beq.n	8002c42 <HAL_RCC_OscConfig+0x46>
 8002c32:	6afb      	ldr	r3, [r7, #44]	; 0x2c
 8002c34:	2b18      	cmp	r3, #24
 8002c36:	d110      	bne.n	8002c5a <HAL_RCC_OscConfig+0x5e>
 8002c38:	6abb      	ldr	r3, [r7, #40]	; 0x28
 8002c3a:	f003 0303 	and.w	r3, r3, #3
 8002c3e:	2b02      	cmp	r3, #2
 8002c40:	d10b      	bne.n	8002c5a <HAL_RCC_OscConfig+0x5e>
 8002c42:	4b90      	ldr	r3, [pc, #576]	; (8002e84 <HAL_RCC_OscConfig+0x288>)
 8002c44:	681b      	ldr	r3, [r3, #0]
 8002c46:	f403 3300 	and.w	r3, r3, #131072	; 0x20000
 8002c4a:	2b00      	cmp	r3, #0
 8002c4c:	d06c      	beq.n	8002d28 <HAL_RCC_OscConfig+0x12c>
 8002c4e:	687b      	ldr	r3, [r7, #4]
 8002c50:	685b      	ldr	r3, [r3, #4]
 8002c52:	2b00      	cmp	r3, #0
 8002c54:	d168      	bne.n	8002d28 <HAL_RCC_OscConfig+0x12c>
 8002c56:	2301      	movs	r3, #1
 8002c58:	e3d9      	b.n	800340e <HAL_RCC_OscConfig+0x812>
 8002c5a:	687b      	ldr	r3, [r7, #4]
 8002c5c:	685b      	ldr	r3, [r3, #4]
 8002c5e:	f5b3 3f80 	cmp.w	r3, #65536	; 0x10000
 8002c62:	d106      	bne.n	8002c72 <HAL_RCC_OscConfig+0x76>
 8002c64:	4b87      	ldr	r3, [pc, #540]	; (8002e84 <HAL_RCC_OscConfig+0x288>)
 8002c66:	681b      	ldr	r3, [r3, #0]
 8002c68:	4a86      	ldr	r2, [pc, #536]	; (8002e84 <HAL_RCC_OscConfig+0x288>)
 8002c6a:	f443 3380 	orr.w	r3, r3, #65536	; 0x10000
 8002c6e:	6013      	str	r3, [r2, #0]
 8002c70:	e02e      	b.n	8002cd0 <HAL_RCC_OscConfig+0xd4>
 8002c72:	687b      	ldr	r3, [r7, #4]
 8002c74:	685b      	ldr	r3, [r3, #4]
 8002c76:	2b00      	cmp	r3, #0
 8002c78:	d10c      	bne.n	8002c94 <HAL_RCC_OscConfig+0x98>
 8002c7a:	4b82      	ldr	r3, [pc, #520]	; (8002e84 <HAL_RCC_OscConfig+0x288>)
 8002c7c:	681b      	ldr	r3, [r3, #0]
 8002c7e:	4a81      	ldr	r2, [pc, #516]	; (8002e84 <HAL_RCC_OscConfig+0x288>)
 8002c80:	f423 3380 	bic.w	r3, r3, #65536	; 0x10000
 8002c84:	6013      	str	r3, [r2, #0]
 8002c86:	4b7f      	ldr	r3, [pc, #508]	; (8002e84 <HAL_RCC_OscConfig+0x288>)
 8002c88:	681b      	ldr	r3, [r3, #0]
 8002c8a:	4a7e      	ldr	r2, [pc, #504]	; (8002e84 <HAL_RCC_OscConfig+0x288>)
 8002c8c:	f423 2380 	bic.w	r3, r3, #262144	; 0x40000
 8002c90:	6013      	str	r3, [r2, #0]
 8002c92:	e01d      	b.n	8002cd0 <HAL_RCC_OscConfig+0xd4>
 8002c94:	687b      	ldr	r3, [r7, #4]
 8002c96:	685b      	ldr	r3, [r3, #4]
 8002c98:	f5b3 2fa0 	cmp.w	r3, #327680	; 0x50000
 8002c9c:	d10c      	bne.n	8002cb8 <HAL_RCC_OscConfig+0xbc>
 8002c9e:	4b79      	ldr	r3, [pc, #484]	; (8002e84 <HAL_RCC_OscConfig+0x288>)
 8002ca0:	681b      	ldr	r3, [r3, #0]
 8002ca2:	4a78      	ldr	r2, [pc, #480]	; (8002e84 <HAL_RCC_OscConfig+0x288>)
 8002ca4:	f443 2380 	orr.w	r3, r3, #262144	; 0x40000
 8002ca8:	6013      	str	r3, [r2, #0]
 8002caa:	4b76      	ldr	r3, [pc, #472]	; (8002e84 <HAL_RCC_OscConfig+0x288>)
 8002cac:	681b      	ldr	r3, [r3, #0]
 8002cae:	4a75      	ldr	r2, [pc, #468]	; (8002e84 <HAL_RCC_OscConfig+0x288>)
 8002cb0:	f443 3380 	orr.w	r3, r3, #65536	; 0x10000
 8002cb4:	6013      	str	r3, [r2, #0]
 8002cb6:	e00b      	b.n	8002cd0 <HAL_RCC_OscConfig+0xd4>
 8002cb8:	4b72      	ldr	r3, [pc, #456]	; (8002e84 <HAL_RCC_OscConfig+0x288>)
 8002cba:	681b      	ldr	r3, [r3, #0]
 8002cbc:	4a71      	ldr	r2, [pc, #452]	; (8002e84 <HAL_RCC_OscConfig+0x288>)
 8002cbe:	f423 3380 	bic.w	r3, r3, #65536	; 0x10000
 8002cc2:	6013      	str	r3, [r2, #0]
 8002cc4:	4b6f      	ldr	r3, [pc, #444]	; (8002e84 <HAL_RCC_OscConfig+0x288>)
 8002cc6:	681b      	ldr	r3, [r3, #0]
 8002cc8:	4a6e      	ldr	r2, [pc, #440]	; (8002e84 <HAL_RCC_OscConfig+0x288>)
 8002cca:	f423 2380 	bic.w	r3, r3, #262144	; 0x40000
 8002cce:	6013      	str	r3, [r2, #0]
 8002cd0:	687b      	ldr	r3, [r7, #4]
 8002cd2:	685b      	ldr	r3, [r3, #4]
 8002cd4:	2b00      	cmp	r3, #0
 8002cd6:	d013      	beq.n	8002d00 <HAL_RCC_OscConfig+0x104>
 8002cd8:	f7fe fb2a 	bl	8001330 <HAL_GetTick>
 8002cdc:	6278      	str	r0, [r7, #36]	; 0x24
 8002cde:	e008      	b.n	8002cf2 <HAL_RCC_OscConfig+0xf6>
 8002ce0:	f7fe fb26 	bl	8001330 <HAL_GetTick>
 8002ce4:	4602      	mov	r2, r0
 8002ce6:	6a7b      	ldr	r3, [r7, #36]	; 0x24
 8002ce8:	1ad3      	subs	r3, r2, r3
 8002cea:	2b64      	cmp	r3, #100	; 0x64
 8002cec:	d901      	bls.n	8002cf2 <HAL_RCC_OscConfig+0xf6>
 8002cee:	2303      	movs	r3, #3
 8002cf0:	e38d      	b.n	800340e <HAL_RCC_OscConfig+0x812>
 8002cf2:	4b64      	ldr	r3, [pc, #400]	; (8002e84 <HAL_RCC_OscConfig+0x288>)
 8002cf4:	681b      	ldr	r3, [r3, #0]
 8002cf6:	f403 3300 	and.w	r3, r3, #131072	; 0x20000
 8002cfa:	2b00      	cmp	r3, #0
 8002cfc:	d0f0      	beq.n	8002ce0 <HAL_RCC_OscConfig+0xe4>
 8002cfe:	e014      	b.n	8002d2a <HAL_RCC_OscConfig+0x12e>
 8002d00:	f7fe fb16 	bl	8001330 <HAL_GetTick>
 8002d04:	6278      	str	r0, [r7, #36]	; 0x24
 8002d06:	e008      	b.n	8002d1a <HAL_RCC_OscConfig+0x11e>
 8002d08:	f7fe fb12 	bl	8001330 <HAL_GetTick>
 8002d0c:	4602      	mov	r2, r0
 8002d0e:	6a7b      	ldr	r3, [r7, #36]	; 0x24
 8002d10:	1ad3      	subs	r3, r2, r3
 8002d12:	2b64      	cmp	r3, #100	; 0x64
 8002d14:	d901      	bls.n	8002d1a <HAL_RCC_OscConfig+0x11e>
 8002d16:	2303      	movs	r3, #3
 8002d18:	e379      	b.n	800340e <HAL_RCC_OscConfig+0x812>
 8002d1a:	4b5a      	ldr	r3, [pc, #360]	; (8002e84 <HAL_RCC_OscConfig+0x288>)
 8002d1c:	681b      	ldr	r3, [r3, #0]
 8002d1e:	f403 3300 	and.w	r3, r3, #131072	; 0x20000
 8002d22:	2b00      	cmp	r3, #0
 8002d24:	d1f0      	bne.n	8002d08 <HAL_RCC_OscConfig+0x10c>
 8002d26:	e000      	b.n	8002d2a <HAL_RCC_OscConfig+0x12e>
 8002d28:	bf00      	nop
 8002d2a:	687b      	ldr	r3, [r7, #4]
 8002d2c:	681b      	ldr	r3, [r3, #0]
 8002d2e:	f003 0302 	and.w	r3, r3, #2
 8002d32:	2b00      	cmp	r3, #0
 8002d34:	f000 80ae 	beq.w	8002e94 <HAL_RCC_OscConfig+0x298>
 8002d38:	4b52      	ldr	r3, [pc, #328]	; (8002e84 <HAL_RCC_OscConfig+0x288>)
 8002d3a:	691b      	ldr	r3, [r3, #16]
 8002d3c:	f003 0338 	and.w	r3, r3, #56	; 0x38
 8002d40:	623b      	str	r3, [r7, #32]
 8002d42:	4b50      	ldr	r3, [pc, #320]	; (8002e84 <HAL_RCC_OscConfig+0x288>)
 8002d44:	6a9b      	ldr	r3, [r3, #40]	; 0x28
 8002d46:	61fb      	str	r3, [r7, #28]
 8002d48:	6a3b      	ldr	r3, [r7, #32]
 8002d4a:	2b00      	cmp	r3, #0
 8002d4c:	d007      	beq.n	8002d5e <HAL_RCC_OscConfig+0x162>
 8002d4e:	6a3b      	ldr	r3, [r7, #32]
 8002d50:	2b18      	cmp	r3, #24
 8002d52:	d13a      	bne.n	8002dca <HAL_RCC_OscConfig+0x1ce>
 8002d54:	69fb      	ldr	r3, [r7, #28]
 8002d56:	f003 0303 	and.w	r3, r3, #3
 8002d5a:	2b00      	cmp	r3, #0
 8002d5c:	d135      	bne.n	8002dca <HAL_RCC_OscConfig+0x1ce>
 8002d5e:	4b49      	ldr	r3, [pc, #292]	; (8002e84 <HAL_RCC_OscConfig+0x288>)
 8002d60:	681b      	ldr	r3, [r3, #0]
 8002d62:	f003 0304 	and.w	r3, r3, #4
 8002d66:	2b00      	cmp	r3, #0
 8002d68:	d005      	beq.n	8002d76 <HAL_RCC_OscConfig+0x17a>
 8002d6a:	687b      	ldr	r3, [r7, #4]
 8002d6c:	68db      	ldr	r3, [r3, #12]
 8002d6e:	2b00      	cmp	r3, #0
 8002d70:	d101      	bne.n	8002d76 <HAL_RCC_OscConfig+0x17a>
 8002d72:	2301      	movs	r3, #1
 8002d74:	e34b      	b.n	800340e <HAL_RCC_OscConfig+0x812>
 8002d76:	f7fe fb09 	bl	800138c <HAL_GetREVID>
 8002d7a:	4602      	mov	r2, r0
 8002d7c:	f241 0303 	movw	r3, #4099	; 0x1003
 8002d80:	429a      	cmp	r2, r3
 8002d82:	d817      	bhi.n	8002db4 <HAL_RCC_OscConfig+0x1b8>
 8002d84:	687b      	ldr	r3, [r7, #4]
 8002d86:	691b      	ldr	r3, [r3, #16]
 8002d88:	2b40      	cmp	r3, #64	; 0x40
 8002d8a:	d108      	bne.n	8002d9e <HAL_RCC_OscConfig+0x1a2>
 8002d8c:	4b3d      	ldr	r3, [pc, #244]	; (8002e84 <HAL_RCC_OscConfig+0x288>)
 8002d8e:	685b      	ldr	r3, [r3, #4]
 8002d90:	f423 337c 	bic.w	r3, r3, #258048	; 0x3f000
 8002d94:	4a3b      	ldr	r2, [pc, #236]	; (8002e84 <HAL_RCC_OscConfig+0x288>)
 8002d96:	f443 3300 	orr.w	r3, r3, #131072	; 0x20000
 8002d9a:	6053      	str	r3, [r2, #4]
 8002d9c:	e07a      	b.n	8002e94 <HAL_RCC_OscConfig+0x298>
 8002d9e:	4b39      	ldr	r3, [pc, #228]	; (8002e84 <HAL_RCC_OscConfig+0x288>)
 8002da0:	685b      	ldr	r3, [r3, #4]
 8002da2:	f423 327c 	bic.w	r2, r3, #258048	; 0x3f000
 8002da6:	687b      	ldr	r3, [r7, #4]
 8002da8:	691b      	ldr	r3, [r3, #16]
 8002daa:	031b      	lsls	r3, r3, #12
 8002dac:	4935      	ldr	r1, [pc, #212]	; (8002e84 <HAL_RCC_OscConfig+0x288>)
 8002dae:	4313      	orrs	r3, r2
 8002db0:	604b      	str	r3, [r1, #4]
 8002db2:	e06f      	b.n	8002e94 <HAL_RCC_OscConfig+0x298>
 8002db4:	4b33      	ldr	r3, [pc, #204]	; (8002e84 <HAL_RCC_OscConfig+0x288>)
 8002db6:	685b      	ldr	r3, [r3, #4]
 8002db8:	f023 42fe 	bic.w	r2, r3, #2130706432	; 0x7f000000
 8002dbc:	687b      	ldr	r3, [r7, #4]
 8002dbe:	691b      	ldr	r3, [r3, #16]
 8002dc0:	061b      	lsls	r3, r3, #24
 8002dc2:	4930      	ldr	r1, [pc, #192]	; (8002e84 <HAL_RCC_OscConfig+0x288>)
 8002dc4:	4313      	orrs	r3, r2
 8002dc6:	604b      	str	r3, [r1, #4]
 8002dc8:	e064      	b.n	8002e94 <HAL_RCC_OscConfig+0x298>
 8002dca:	687b      	ldr	r3, [r7, #4]
 8002dcc:	68db      	ldr	r3, [r3, #12]
 8002dce:	2b00      	cmp	r3, #0
 8002dd0:	d045      	beq.n	8002e5e <HAL_RCC_OscConfig+0x262>
 8002dd2:	4b2c      	ldr	r3, [pc, #176]	; (8002e84 <HAL_RCC_OscConfig+0x288>)
 8002dd4:	681b      	ldr	r3, [r3, #0]
 8002dd6:	f023 0219 	bic.w	r2, r3, #25
 8002dda:	687b      	ldr	r3, [r7, #4]
 8002ddc:	68db      	ldr	r3, [r3, #12]
 8002dde:	4929      	ldr	r1, [pc, #164]	; (8002e84 <HAL_RCC_OscConfig+0x288>)
 8002de0:	4313      	orrs	r3, r2
 8002de2:	600b      	str	r3, [r1, #0]
 8002de4:	f7fe faa4 	bl	8001330 <HAL_GetTick>
 8002de8:	6278      	str	r0, [r7, #36]	; 0x24
 8002dea:	e008      	b.n	8002dfe <HAL_RCC_OscConfig+0x202>
 8002dec:	f7fe faa0 	bl	8001330 <HAL_GetTick>
 8002df0:	4602      	mov	r2, r0
 8002df2:	6a7b      	ldr	r3, [r7, #36]	; 0x24
 8002df4:	1ad3      	subs	r3, r2, r3
 8002df6:	2b02      	cmp	r3, #2
 8002df8:	d901      	bls.n	8002dfe <HAL_RCC_OscConfig+0x202>
 8002dfa:	2303      	movs	r3, #3
 8002dfc:	e307      	b.n	800340e <HAL_RCC_OscConfig+0x812>
 8002dfe:	4b21      	ldr	r3, [pc, #132]	; (8002e84 <HAL_RCC_OscConfig+0x288>)
 8002e00:	681b      	ldr	r3, [r3, #0]
 8002e02:	f003 0304 	and.w	r3, r3, #4
 8002e06:	2b00      	cmp	r3, #0
 8002e08:	d0f0      	beq.n	8002dec <HAL_RCC_OscConfig+0x1f0>
 8002e0a:	f7fe fabf 	bl	800138c <HAL_GetREVID>
 8002e0e:	4602      	mov	r2, r0
 8002e10:	f241 0303 	movw	r3, #4099	; 0x1003
 8002e14:	429a      	cmp	r2, r3
 8002e16:	d817      	bhi.n	8002e48 <HAL_RCC_OscConfig+0x24c>
 8002e18:	687b      	ldr	r3, [r7, #4]
 8002e1a:	691b      	ldr	r3, [r3, #16]
 8002e1c:	2b40      	cmp	r3, #64	; 0x40
 8002e1e:	d108      	bne.n	8002e32 <HAL_RCC_OscConfig+0x236>
 8002e20:	4b18      	ldr	r3, [pc, #96]	; (8002e84 <HAL_RCC_OscConfig+0x288>)
 8002e22:	685b      	ldr	r3, [r3, #4]
 8002e24:	f423 337c 	bic.w	r3, r3, #258048	; 0x3f000
 8002e28:	4a16      	ldr	r2, [pc, #88]	; (8002e84 <HAL_RCC_OscConfig+0x288>)
 8002e2a:	f443 3300 	orr.w	r3, r3, #131072	; 0x20000
 8002e2e:	6053      	str	r3, [r2, #4]
 8002e30:	e030      	b.n	8002e94 <HAL_RCC_OscConfig+0x298>
 8002e32:	4b14      	ldr	r3, [pc, #80]	; (8002e84 <HAL_RCC_OscConfig+0x288>)
 8002e34:	685b      	ldr	r3, [r3, #4]
 8002e36:	f423 327c 	bic.w	r2, r3, #258048	; 0x3f000
 8002e3a:	687b      	ldr	r3, [r7, #4]
 8002e3c:	691b      	ldr	r3, [r3, #16]
 8002e3e:	031b      	lsls	r3, r3, #12
 8002e40:	4910      	ldr	r1, [pc, #64]	; (8002e84 <HAL_RCC_OscConfig+0x288>)
 8002e42:	4313      	orrs	r3, r2
 8002e44:	604b      	str	r3, [r1, #4]
 8002e46:	e025      	b.n	8002e94 <HAL_RCC_OscConfig+0x298>
 8002e48:	4b0e      	ldr	r3, [pc, #56]	; (8002e84 <HAL_RCC_OscConfig+0x288>)
 8002e4a:	685b      	ldr	r3, [r3, #4]
 8002e4c:	f023 42fe 	bic.w	r2, r3, #2130706432	; 0x7f000000
 8002e50:	687b      	ldr	r3, [r7, #4]
 8002e52:	691b      	ldr	r3, [r3, #16]
 8002e54:	061b      	lsls	r3, r3, #24
 8002e56:	490b      	ldr	r1, [pc, #44]	; (8002e84 <HAL_RCC_OscConfig+0x288>)
 8002e58:	4313      	orrs	r3, r2
 8002e5a:	604b      	str	r3, [r1, #4]
 8002e5c:	e01a      	b.n	8002e94 <HAL_RCC_OscConfig+0x298>
 8002e5e:	4b09      	ldr	r3, [pc, #36]	; (8002e84 <HAL_RCC_OscConfig+0x288>)
 8002e60:	681b      	ldr	r3, [r3, #0]
 8002e62:	4a08      	ldr	r2, [pc, #32]	; (8002e84 <HAL_RCC_OscConfig+0x288>)
 8002e64:	f023 0301 	bic.w	r3, r3, #1
 8002e68:	6013      	str	r3, [r2, #0]
 8002e6a:	f7fe fa61 	bl	8001330 <HAL_GetTick>
 8002e6e:	6278      	str	r0, [r7, #36]	; 0x24
 8002e70:	e00a      	b.n	8002e88 <HAL_RCC_OscConfig+0x28c>
 8002e72:	f7fe fa5d 	bl	8001330 <HAL_GetTick>
 8002e76:	4602      	mov	r2, r0
 8002e78:	6a7b      	ldr	r3, [r7, #36]	; 0x24
 8002e7a:	1ad3      	subs	r3, r2, r3
 8002e7c:	2b02      	cmp	r3, #2
 8002e7e:	d903      	bls.n	8002e88 <HAL_RCC_OscConfig+0x28c>
 8002e80:	2303      	movs	r3, #3
 8002e82:	e2c4      	b.n	800340e <HAL_RCC_OscConfig+0x812>
 8002e84:	58024400 	.word	0x58024400
 8002e88:	4ba4      	ldr	r3, [pc, #656]	; (800311c <HAL_RCC_OscConfig+0x520>)
 8002e8a:	681b      	ldr	r3, [r3, #0]
 8002e8c:	f003 0304 	and.w	r3, r3, #4
 8002e90:	2b00      	cmp	r3, #0
 8002e92:	d1ee      	bne.n	8002e72 <HAL_RCC_OscConfig+0x276>
 8002e94:	687b      	ldr	r3, [r7, #4]
 8002e96:	681b      	ldr	r3, [r3, #0]
 8002e98:	f003 0310 	and.w	r3, r3, #16
 8002e9c:	2b00      	cmp	r3, #0
 8002e9e:	f000 80a9 	beq.w	8002ff4 <HAL_RCC_OscConfig+0x3f8>
 8002ea2:	4b9e      	ldr	r3, [pc, #632]	; (800311c <HAL_RCC_OscConfig+0x520>)
 8002ea4:	691b      	ldr	r3, [r3, #16]
 8002ea6:	f003 0338 	and.w	r3, r3, #56	; 0x38
 8002eaa:	61bb      	str	r3, [r7, #24]
 8002eac:	4b9b      	ldr	r3, [pc, #620]	; (800311c <HAL_RCC_OscConfig+0x520>)
 8002eae:	6a9b      	ldr	r3, [r3, #40]	; 0x28
 8002eb0:	617b      	str	r3, [r7, #20]
 8002eb2:	69bb      	ldr	r3, [r7, #24]
 8002eb4:	2b08      	cmp	r3, #8
 8002eb6:	d007      	beq.n	8002ec8 <HAL_RCC_OscConfig+0x2cc>
 8002eb8:	69bb      	ldr	r3, [r7, #24]
 8002eba:	2b18      	cmp	r3, #24
 8002ebc:	d13a      	bne.n	8002f34 <HAL_RCC_OscConfig+0x338>
 8002ebe:	697b      	ldr	r3, [r7, #20]
 8002ec0:	f003 0303 	and.w	r3, r3, #3
 8002ec4:	2b01      	cmp	r3, #1
 8002ec6:	d135      	bne.n	8002f34 <HAL_RCC_OscConfig+0x338>
 8002ec8:	4b94      	ldr	r3, [pc, #592]	; (800311c <HAL_RCC_OscConfig+0x520>)
 8002eca:	681b      	ldr	r3, [r3, #0]
 8002ecc:	f403 7380 	and.w	r3, r3, #256	; 0x100
 8002ed0:	2b00      	cmp	r3, #0
 8002ed2:	d005      	beq.n	8002ee0 <HAL_RCC_OscConfig+0x2e4>
 8002ed4:	687b      	ldr	r3, [r7, #4]
 8002ed6:	69db      	ldr	r3, [r3, #28]
 8002ed8:	2b80      	cmp	r3, #128	; 0x80
 8002eda:	d001      	beq.n	8002ee0 <HAL_RCC_OscConfig+0x2e4>
 8002edc:	2301      	movs	r3, #1
 8002ede:	e296      	b.n	800340e <HAL_RCC_OscConfig+0x812>
 8002ee0:	f7fe fa54 	bl	800138c <HAL_GetREVID>
 8002ee4:	4602      	mov	r2, r0
 8002ee6:	f241 0303 	movw	r3, #4099	; 0x1003
 8002eea:	429a      	cmp	r2, r3
 8002eec:	d817      	bhi.n	8002f1e <HAL_RCC_OscConfig+0x322>
 8002eee:	687b      	ldr	r3, [r7, #4]
 8002ef0:	6a1b      	ldr	r3, [r3, #32]
 8002ef2:	2b20      	cmp	r3, #32
 8002ef4:	d108      	bne.n	8002f08 <HAL_RCC_OscConfig+0x30c>
 8002ef6:	4b89      	ldr	r3, [pc, #548]	; (800311c <HAL_RCC_OscConfig+0x520>)
 8002ef8:	685b      	ldr	r3, [r3, #4]
 8002efa:	f023 43f8 	bic.w	r3, r3, #2080374784	; 0x7c000000
 8002efe:	4a87      	ldr	r2, [pc, #540]	; (800311c <HAL_RCC_OscConfig+0x520>)
 8002f00:	f043 4380 	orr.w	r3, r3, #1073741824	; 0x40000000
 8002f04:	6053      	str	r3, [r2, #4]
 8002f06:	e075      	b.n	8002ff4 <HAL_RCC_OscConfig+0x3f8>
 8002f08:	4b84      	ldr	r3, [pc, #528]	; (800311c <HAL_RCC_OscConfig+0x520>)
 8002f0a:	685b      	ldr	r3, [r3, #4]
 8002f0c:	f023 42f8 	bic.w	r2, r3, #2080374784	; 0x7c000000
 8002f10:	687b      	ldr	r3, [r7, #4]
 8002f12:	6a1b      	ldr	r3, [r3, #32]
 8002f14:	069b      	lsls	r3, r3, #26
 8002f16:	4981      	ldr	r1, [pc, #516]	; (800311c <HAL_RCC_OscConfig+0x520>)
 8002f18:	4313      	orrs	r3, r2
 8002f1a:	604b      	str	r3, [r1, #4]
 8002f1c:	e06a      	b.n	8002ff4 <HAL_RCC_OscConfig+0x3f8>
 8002f1e:	4b7f      	ldr	r3, [pc, #508]	; (800311c <HAL_RCC_OscConfig+0x520>)
 8002f20:	68db      	ldr	r3, [r3, #12]
 8002f22:	f023 527c 	bic.w	r2, r3, #1056964608	; 0x3f000000
 8002f26:	687b      	ldr	r3, [r7, #4]
 8002f28:	6a1b      	ldr	r3, [r3, #32]
 8002f2a:	061b      	lsls	r3, r3, #24
 8002f2c:	497b      	ldr	r1, [pc, #492]	; (800311c <HAL_RCC_OscConfig+0x520>)
 8002f2e:	4313      	orrs	r3, r2
 8002f30:	60cb      	str	r3, [r1, #12]
 8002f32:	e05f      	b.n	8002ff4 <HAL_RCC_OscConfig+0x3f8>
 8002f34:	687b      	ldr	r3, [r7, #4]
 8002f36:	69db      	ldr	r3, [r3, #28]
 8002f38:	2b00      	cmp	r3, #0
 8002f3a:	d042      	beq.n	8002fc2 <HAL_RCC_OscConfig+0x3c6>
 8002f3c:	4b77      	ldr	r3, [pc, #476]	; (800311c <HAL_RCC_OscConfig+0x520>)
 8002f3e:	681b      	ldr	r3, [r3, #0]
 8002f40:	4a76      	ldr	r2, [pc, #472]	; (800311c <HAL_RCC_OscConfig+0x520>)
 8002f42:	f043 0380 	orr.w	r3, r3, #128	; 0x80
 8002f46:	6013      	str	r3, [r2, #0]
 8002f48:	f7fe f9f2 	bl	8001330 <HAL_GetTick>
 8002f4c:	6278      	str	r0, [r7, #36]	; 0x24
 8002f4e:	e008      	b.n	8002f62 <HAL_RCC_OscConfig+0x366>
 8002f50:	f7fe f9ee 	bl	8001330 <HAL_GetTick>
 8002f54:	4602      	mov	r2, r0
 8002f56:	6a7b      	ldr	r3, [r7, #36]	; 0x24
 8002f58:	1ad3      	subs	r3, r2, r3
 8002f5a:	2b02      	cmp	r3, #2
 8002f5c:	d901      	bls.n	8002f62 <HAL_RCC_OscConfig+0x366>
 8002f5e:	2303      	movs	r3, #3
 8002f60:	e255      	b.n	800340e <HAL_RCC_OscConfig+0x812>
 8002f62:	4b6e      	ldr	r3, [pc, #440]	; (800311c <HAL_RCC_OscConfig+0x520>)
 8002f64:	681b      	ldr	r3, [r3, #0]
 8002f66:	f403 7380 	and.w	r3, r3, #256	; 0x100
 8002f6a:	2b00      	cmp	r3, #0
 8002f6c:	d0f0      	beq.n	8002f50 <HAL_RCC_OscConfig+0x354>
 8002f6e:	f7fe fa0d 	bl	800138c <HAL_GetREVID>
 8002f72:	4602      	mov	r2, r0
 8002f74:	f241 0303 	movw	r3, #4099	; 0x1003
 8002f78:	429a      	cmp	r2, r3
 8002f7a:	d817      	bhi.n	8002fac <HAL_RCC_OscConfig+0x3b0>
 8002f7c:	687b      	ldr	r3, [r7, #4]
 8002f7e:	6a1b      	ldr	r3, [r3, #32]
 8002f80:	2b20      	cmp	r3, #32
 8002f82:	d108      	bne.n	8002f96 <HAL_RCC_OscConfig+0x39a>
 8002f84:	4b65      	ldr	r3, [pc, #404]	; (800311c <HAL_RCC_OscConfig+0x520>)
 8002f86:	685b      	ldr	r3, [r3, #4]
 8002f88:	f023 43f8 	bic.w	r3, r3, #2080374784	; 0x7c000000
 8002f8c:	4a63      	ldr	r2, [pc, #396]	; (800311c <HAL_RCC_OscConfig+0x520>)
 8002f8e:	f043 4380 	orr.w	r3, r3, #1073741824	; 0x40000000
 8002f92:	6053      	str	r3, [r2, #4]
 8002f94:	e02e      	b.n	8002ff4 <HAL_RCC_OscConfig+0x3f8>
 8002f96:	4b61      	ldr	r3, [pc, #388]	; (800311c <HAL_RCC_OscConfig+0x520>)
 8002f98:	685b      	ldr	r3, [r3, #4]
 8002f9a:	f023 42f8 	bic.w	r2, r3, #2080374784	; 0x7c000000
 8002f9e:	687b      	ldr	r3, [r7, #4]
 8002fa0:	6a1b      	ldr	r3, [r3, #32]
 8002fa2:	069b      	lsls	r3, r3, #26
 8002fa4:	495d      	ldr	r1, [pc, #372]	; (800311c <HAL_RCC_OscConfig+0x520>)
 8002fa6:	4313      	orrs	r3, r2
 8002fa8:	604b      	str	r3, [r1, #4]
 8002faa:	e023      	b.n	8002ff4 <HAL_RCC_OscConfig+0x3f8>
 8002fac:	4b5b      	ldr	r3, [pc, #364]	; (800311c <HAL_RCC_OscConfig+0x520>)
 8002fae:	68db      	ldr	r3, [r3, #12]
 8002fb0:	f023 527c 	bic.w	r2, r3, #1056964608	; 0x3f000000
 8002fb4:	687b      	ldr	r3, [r7, #4]
 8002fb6:	6a1b      	ldr	r3, [r3, #32]
 8002fb8:	061b      	lsls	r3, r3, #24
 8002fba:	4958      	ldr	r1, [pc, #352]	; (800311c <HAL_RCC_OscConfig+0x520>)
 8002fbc:	4313      	orrs	r3, r2
 8002fbe:	60cb      	str	r3, [r1, #12]
 8002fc0:	e018      	b.n	8002ff4 <HAL_RCC_OscConfig+0x3f8>
 8002fc2:	4b56      	ldr	r3, [pc, #344]	; (800311c <HAL_RCC_OscConfig+0x520>)
 8002fc4:	681b      	ldr	r3, [r3, #0]
 8002fc6:	4a55      	ldr	r2, [pc, #340]	; (800311c <HAL_RCC_OscConfig+0x520>)
 8002fc8:	f023 0380 	bic.w	r3, r3, #128	; 0x80
 8002fcc:	6013      	str	r3, [r2, #0]
 8002fce:	f7fe f9af 	bl	8001330 <HAL_GetTick>
 8002fd2:	6278      	str	r0, [r7, #36]	; 0x24
 8002fd4:	e008      	b.n	8002fe8 <HAL_RCC_OscConfig+0x3ec>
 8002fd6:	f7fe f9ab 	bl	8001330 <HAL_GetTick>
 8002fda:	4602      	mov	r2, r0
 8002fdc:	6a7b      	ldr	r3, [r7, #36]	; 0x24
 8002fde:	1ad3      	subs	r3, r2, r3
 8002fe0:	2b02      	cmp	r3, #2
 8002fe2:	d901      	bls.n	8002fe8 <HAL_RCC_OscConfig+0x3ec>
 8002fe4:	2303      	movs	r3, #3
 8002fe6:	e212      	b.n	800340e <HAL_RCC_OscConfig+0x812>
 8002fe8:	4b4c      	ldr	r3, [pc, #304]	; (800311c <HAL_RCC_OscConfig+0x520>)
 8002fea:	681b      	ldr	r3, [r3, #0]
 8002fec:	f403 7380 	and.w	r3, r3, #256	; 0x100
 8002ff0:	2b00      	cmp	r3, #0
 8002ff2:	d1f0      	bne.n	8002fd6 <HAL_RCC_OscConfig+0x3da>
 8002ff4:	687b      	ldr	r3, [r7, #4]
 8002ff6:	681b      	ldr	r3, [r3, #0]
 8002ff8:	f003 0308 	and.w	r3, r3, #8
 8002ffc:	2b00      	cmp	r3, #0
 8002ffe:	d036      	beq.n	800306e <HAL_RCC_OscConfig+0x472>
 8003000:	687b      	ldr	r3, [r7, #4]
 8003002:	695b      	ldr	r3, [r3, #20]
 8003004:	2b00      	cmp	r3, #0
 8003006:	d019      	beq.n	800303c <HAL_RCC_OscConfig+0x440>
 8003008:	4b44      	ldr	r3, [pc, #272]	; (800311c <HAL_RCC_OscConfig+0x520>)
 800300a:	6f5b      	ldr	r3, [r3, #116]	; 0x74
 800300c:	4a43      	ldr	r2, [pc, #268]	; (800311c <HAL_RCC_OscConfig+0x520>)
 800300e:	f043 0301 	orr.w	r3, r3, #1
 8003012:	6753      	str	r3, [r2, #116]	; 0x74
 8003014:	f7fe f98c 	bl	8001330 <HAL_GetTick>
 8003018:	6278      	str	r0, [r7, #36]	; 0x24
 800301a:	e008      	b.n	800302e <HAL_RCC_OscConfig+0x432>
 800301c:	f7fe f988 	bl	8001330 <HAL_GetTick>
 8003020:	4602      	mov	r2, r0
 8003022:	6a7b      	ldr	r3, [r7, #36]	; 0x24
 8003024:	1ad3      	subs	r3, r2, r3
 8003026:	2b02      	cmp	r3, #2
 8003028:	d901      	bls.n	800302e <HAL_RCC_OscConfig+0x432>
 800302a:	2303      	movs	r3, #3
 800302c:	e1ef      	b.n	800340e <HAL_RCC_OscConfig+0x812>
 800302e:	4b3b      	ldr	r3, [pc, #236]	; (800311c <HAL_RCC_OscConfig+0x520>)
 8003030:	6f5b      	ldr	r3, [r3, #116]	; 0x74
 8003032:	f003 0302 	and.w	r3, r3, #2
 8003036:	2b00      	cmp	r3, #0
 8003038:	d0f0      	beq.n	800301c <HAL_RCC_OscConfig+0x420>
 800303a:	e018      	b.n	800306e <HAL_RCC_OscConfig+0x472>
 800303c:	4b37      	ldr	r3, [pc, #220]	; (800311c <HAL_RCC_OscConfig+0x520>)
 800303e:	6f5b      	ldr	r3, [r3, #116]	; 0x74
 8003040:	4a36      	ldr	r2, [pc, #216]	; (800311c <HAL_RCC_OscConfig+0x520>)
 8003042:	f023 0301 	bic.w	r3, r3, #1
 8003046:	6753      	str	r3, [r2, #116]	; 0x74
 8003048:	f7fe f972 	bl	8001330 <HAL_GetTick>
 800304c:	6278      	str	r0, [r7, #36]	; 0x24
 800304e:	e008      	b.n	8003062 <HAL_RCC_OscConfig+0x466>
 8003050:	f7fe f96e 	bl	8001330 <HAL_GetTick>
 8003054:	4602      	mov	r2, r0
 8003056:	6a7b      	ldr	r3, [r7, #36]	; 0x24
 8003058:	1ad3      	subs	r3, r2, r3
 800305a:	2b02      	cmp	r3, #2
 800305c:	d901      	bls.n	8003062 <HAL_RCC_OscConfig+0x466>
 800305e:	2303      	movs	r3, #3
 8003060:	e1d5      	b.n	800340e <HAL_RCC_OscConfig+0x812>
 8003062:	4b2e      	ldr	r3, [pc, #184]	; (800311c <HAL_RCC_OscConfig+0x520>)
 8003064:	6f5b      	ldr	r3, [r3, #116]	; 0x74
 8003066:	f003 0302 	and.w	r3, r3, #2
 800306a:	2b00      	cmp	r3, #0
 800306c:	d1f0      	bne.n	8003050 <HAL_RCC_OscConfig+0x454>
 800306e:	687b      	ldr	r3, [r7, #4]
 8003070:	681b      	ldr	r3, [r3, #0]
 8003072:	f003 0320 	and.w	r3, r3, #32
 8003076:	2b00      	cmp	r3, #0
 8003078:	d036      	beq.n	80030e8 <HAL_RCC_OscConfig+0x4ec>
 800307a:	687b      	ldr	r3, [r7, #4]
 800307c:	699b      	ldr	r3, [r3, #24]
 800307e:	2b00      	cmp	r3, #0
 8003080:	d019      	beq.n	80030b6 <HAL_RCC_OscConfig+0x4ba>
 8003082:	4b26      	ldr	r3, [pc, #152]	; (800311c <HAL_RCC_OscConfig+0x520>)
 8003084:	681b      	ldr	r3, [r3, #0]
 8003086:	4a25      	ldr	r2, [pc, #148]	; (800311c <HAL_RCC_OscConfig+0x520>)
 8003088:	f443 5380 	orr.w	r3, r3, #4096	; 0x1000
 800308c:	6013      	str	r3, [r2, #0]
 800308e:	f7fe f94f 	bl	8001330 <HAL_GetTick>
 8003092:	6278      	str	r0, [r7, #36]	; 0x24
 8003094:	e008      	b.n	80030a8 <HAL_RCC_OscConfig+0x4ac>
 8003096:	f7fe f94b 	bl	8001330 <HAL_GetTick>
 800309a:	4602      	mov	r2, r0
 800309c:	6a7b      	ldr	r3, [r7, #36]	; 0x24
 800309e:	1ad3      	subs	r3, r2, r3
 80030a0:	2b02      	cmp	r3, #2
 80030a2:	d901      	bls.n	80030a8 <HAL_RCC_OscConfig+0x4ac>
 80030a4:	2303      	movs	r3, #3
 80030a6:	e1b2      	b.n	800340e <HAL_RCC_OscConfig+0x812>
 80030a8:	4b1c      	ldr	r3, [pc, #112]	; (800311c <HAL_RCC_OscConfig+0x520>)
 80030aa:	681b      	ldr	r3, [r3, #0]
 80030ac:	f403 5300 	and.w	r3, r3, #8192	; 0x2000
 80030b0:	2b00      	cmp	r3, #0
 80030b2:	d0f0      	beq.n	8003096 <HAL_RCC_OscConfig+0x49a>
 80030b4:	e018      	b.n	80030e8 <HAL_RCC_OscConfig+0x4ec>
 80030b6:	4b19      	ldr	r3, [pc, #100]	; (800311c <HAL_RCC_OscConfig+0x520>)
 80030b8:	681b      	ldr	r3, [r3, #0]
 80030ba:	4a18      	ldr	r2, [pc, #96]	; (800311c <HAL_RCC_OscConfig+0x520>)
 80030bc:	f423 5380 	bic.w	r3, r3, #4096	; 0x1000
 80030c0:	6013      	str	r3, [r2, #0]
 80030c2:	f7fe f935 	bl	8001330 <HAL_GetTick>
 80030c6:	6278      	str	r0, [r7, #36]	; 0x24
 80030c8:	e008      	b.n	80030dc <HAL_RCC_OscConfig+0x4e0>
 80030ca:	f7fe f931 	bl	8001330 <HAL_GetTick>
 80030ce:	4602      	mov	r2, r0
 80030d0:	6a7b      	ldr	r3, [r7, #36]	; 0x24
 80030d2:	1ad3      	subs	r3, r2, r3
 80030d4:	2b02      	cmp	r3, #2
 80030d6:	d901      	bls.n	80030dc <HAL_RCC_OscConfig+0x4e0>
 80030d8:	2303      	movs	r3, #3
 80030da:	e198      	b.n	800340e <HAL_RCC_OscConfig+0x812>
 80030dc:	4b0f      	ldr	r3, [pc, #60]	; (800311c <HAL_RCC_OscConfig+0x520>)
 80030de:	681b      	ldr	r3, [r3, #0]
 80030e0:	f403 5300 	and.w	r3, r3, #8192	; 0x2000
 80030e4:	2b00      	cmp	r3, #0
 80030e6:	d1f0      	bne.n	80030ca <HAL_RCC_OscConfig+0x4ce>
 80030e8:	687b      	ldr	r3, [r7, #4]
 80030ea:	681b      	ldr	r3, [r3, #0]
 80030ec:	f003 0304 	and.w	r3, r3, #4
 80030f0:	2b00      	cmp	r3, #0
 80030f2:	f000 8085 	beq.w	8003200 <HAL_RCC_OscConfig+0x604>
 80030f6:	4b0a      	ldr	r3, [pc, #40]	; (8003120 <HAL_RCC_OscConfig+0x524>)
 80030f8:	681b      	ldr	r3, [r3, #0]
 80030fa:	4a09      	ldr	r2, [pc, #36]	; (8003120 <HAL_RCC_OscConfig+0x524>)
 80030fc:	f443 7380 	orr.w	r3, r3, #256	; 0x100
 8003100:	6013      	str	r3, [r2, #0]
 8003102:	f7fe f915 	bl	8001330 <HAL_GetTick>
 8003106:	6278      	str	r0, [r7, #36]	; 0x24
 8003108:	e00c      	b.n	8003124 <HAL_RCC_OscConfig+0x528>
 800310a:	f7fe f911 	bl	8001330 <HAL_GetTick>
 800310e:	4602      	mov	r2, r0
 8003110:	6a7b      	ldr	r3, [r7, #36]	; 0x24
 8003112:	1ad3      	subs	r3, r2, r3
 8003114:	2b64      	cmp	r3, #100	; 0x64
 8003116:	d905      	bls.n	8003124 <HAL_RCC_OscConfig+0x528>
 8003118:	2303      	movs	r3, #3
 800311a:	e178      	b.n	800340e <HAL_RCC_OscConfig+0x812>
 800311c:	58024400 	.word	0x58024400
 8003120:	58024800 	.word	0x58024800
 8003124:	4b96      	ldr	r3, [pc, #600]	; (8003380 <HAL_RCC_OscConfig+0x784>)
 8003126:	681b      	ldr	r3, [r3, #0]
 8003128:	f403 7380 	and.w	r3, r3, #256	; 0x100
 800312c:	2b00      	cmp	r3, #0
 800312e:	d0ec      	beq.n	800310a <HAL_RCC_OscConfig+0x50e>
 8003130:	687b      	ldr	r3, [r7, #4]
 8003132:	689b      	ldr	r3, [r3, #8]
 8003134:	2b01      	cmp	r3, #1
 8003136:	d106      	bne.n	8003146 <HAL_RCC_OscConfig+0x54a>
 8003138:	4b92      	ldr	r3, [pc, #584]	; (8003384 <HAL_RCC_OscConfig+0x788>)
 800313a:	6f1b      	ldr	r3, [r3, #112]	; 0x70
 800313c:	4a91      	ldr	r2, [pc, #580]	; (8003384 <HAL_RCC_OscConfig+0x788>)
 800313e:	f043 0301 	orr.w	r3, r3, #1
 8003142:	6713      	str	r3, [r2, #112]	; 0x70
 8003144:	e02d      	b.n	80031a2 <HAL_RCC_OscConfig+0x5a6>
 8003146:	687b      	ldr	r3, [r7, #4]
 8003148:	689b      	ldr	r3, [r3, #8]
 800314a:	2b00      	cmp	r3, #0
 800314c:	d10c      	bne.n	8003168 <HAL_RCC_OscConfig+0x56c>
 800314e:	4b8d      	ldr	r3, [pc, #564]	; (8003384 <HAL_RCC_OscConfig+0x788>)
 8003150:	6f1b      	ldr	r3, [r3, #112]	; 0x70
 8003152:	4a8c      	ldr	r2, [pc, #560]	; (8003384 <HAL_RCC_OscConfig+0x788>)
 8003154:	f023 0301 	bic.w	r3, r3, #1
 8003158:	6713      	str	r3, [r2, #112]	; 0x70
 800315a:	4b8a      	ldr	r3, [pc, #552]	; (8003384 <HAL_RCC_OscConfig+0x788>)
 800315c:	6f1b      	ldr	r3, [r3, #112]	; 0x70
 800315e:	4a89      	ldr	r2, [pc, #548]	; (8003384 <HAL_RCC_OscConfig+0x788>)
 8003160:	f023 0304 	bic.w	r3, r3, #4
 8003164:	6713      	str	r3, [r2, #112]	; 0x70
 8003166:	e01c      	b.n	80031a2 <HAL_RCC_OscConfig+0x5a6>
 8003168:	687b      	ldr	r3, [r7, #4]
 800316a:	689b      	ldr	r3, [r3, #8]
 800316c:	2b05      	cmp	r3, #5
 800316e:	d10c      	bne.n	800318a <HAL_RCC_OscConfig+0x58e>
 8003170:	4b84      	ldr	r3, [pc, #528]	; (8003384 <HAL_RCC_OscConfig+0x788>)
 8003172:	6f1b      	ldr	r3, [r3, #112]	; 0x70
 8003174:	4a83      	ldr	r2, [pc, #524]	; (8003384 <HAL_RCC_OscConfig+0x788>)
 8003176:	f043 0304 	orr.w	r3, r3, #4
 800317a:	6713      	str	r3, [r2, #112]	; 0x70
 800317c:	4b81      	ldr	r3, [pc, #516]	; (8003384 <HAL_RCC_OscConfig+0x788>)
 800317e:	6f1b      	ldr	r3, [r3, #112]	; 0x70
 8003180:	4a80      	ldr	r2, [pc, #512]	; (8003384 <HAL_RCC_OscConfig+0x788>)
 8003182:	f043 0301 	orr.w	r3, r3, #1
 8003186:	6713      	str	r3, [r2, #112]	; 0x70
 8003188:	e00b      	b.n	80031a2 <HAL_RCC_OscConfig+0x5a6>
 800318a:	4b7e      	ldr	r3, [pc, #504]	; (8003384 <HAL_RCC_OscConfig+0x788>)
 800318c:	6f1b      	ldr	r3, [r3, #112]	; 0x70
 800318e:	4a7d      	ldr	r2, [pc, #500]	; (8003384 <HAL_RCC_OscConfig+0x788>)
 8003190:	f023 0301 	bic.w	r3, r3, #1
 8003194:	6713      	str	r3, [r2, #112]	; 0x70
 8003196:	4b7b      	ldr	r3, [pc, #492]	; (8003384 <HAL_RCC_OscConfig+0x788>)
 8003198:	6f1b      	ldr	r3, [r3, #112]	; 0x70
 800319a:	4a7a      	ldr	r2, [pc, #488]	; (8003384 <HAL_RCC_OscConfig+0x788>)
 800319c:	f023 0304 	bic.w	r3, r3, #4
 80031a0:	6713      	str	r3, [r2, #112]	; 0x70
 80031a2:	687b      	ldr	r3, [r7, #4]
 80031a4:	689b      	ldr	r3, [r3, #8]
 80031a6:	2b00      	cmp	r3, #0
 80031a8:	d015      	beq.n	80031d6 <HAL_RCC_OscConfig+0x5da>
 80031aa:	f7fe f8c1 	bl	8001330 <HAL_GetTick>
 80031ae:	6278      	str	r0, [r7, #36]	; 0x24
 80031b0:	e00a      	b.n	80031c8 <HAL_RCC_OscConfig+0x5cc>
 80031b2:	f7fe f8bd 	bl	8001330 <HAL_GetTick>
 80031b6:	4602      	mov	r2, r0
 80031b8:	6a7b      	ldr	r3, [r7, #36]	; 0x24
 80031ba:	1ad3      	subs	r3, r2, r3
 80031bc:	f241 3288 	movw	r2, #5000	; 0x1388
 80031c0:	4293      	cmp	r3, r2
 80031c2:	d901      	bls.n	80031c8 <HAL_RCC_OscConfig+0x5cc>
 80031c4:	2303      	movs	r3, #3
 80031c6:	e122      	b.n	800340e <HAL_RCC_OscConfig+0x812>
 80031c8:	4b6e      	ldr	r3, [pc, #440]	; (8003384 <HAL_RCC_OscConfig+0x788>)
 80031ca:	6f1b      	ldr	r3, [r3, #112]	; 0x70
 80031cc:	f003 0302 	and.w	r3, r3, #2
 80031d0:	2b00      	cmp	r3, #0
 80031d2:	d0ee      	beq.n	80031b2 <HAL_RCC_OscConfig+0x5b6>
 80031d4:	e014      	b.n	8003200 <HAL_RCC_OscConfig+0x604>
 80031d6:	f7fe f8ab 	bl	8001330 <HAL_GetTick>
 80031da:	6278      	str	r0, [r7, #36]	; 0x24
 80031dc:	e00a      	b.n	80031f4 <HAL_RCC_OscConfig+0x5f8>
 80031de:	f7fe f8a7 	bl	8001330 <HAL_GetTick>
 80031e2:	4602      	mov	r2, r0
 80031e4:	6a7b      	ldr	r3, [r7, #36]	; 0x24
 80031e6:	1ad3      	subs	r3, r2, r3
 80031e8:	f241 3288 	movw	r2, #5000	; 0x1388
 80031ec:	4293      	cmp	r3, r2
 80031ee:	d901      	bls.n	80031f4 <HAL_RCC_OscConfig+0x5f8>
 80031f0:	2303      	movs	r3, #3
 80031f2:	e10c      	b.n	800340e <HAL_RCC_OscConfig+0x812>
 80031f4:	4b63      	ldr	r3, [pc, #396]	; (8003384 <HAL_RCC_OscConfig+0x788>)
 80031f6:	6f1b      	ldr	r3, [r3, #112]	; 0x70
 80031f8:	f003 0302 	and.w	r3, r3, #2
 80031fc:	2b00      	cmp	r3, #0
 80031fe:	d1ee      	bne.n	80031de <HAL_RCC_OscConfig+0x5e2>
 8003200:	687b      	ldr	r3, [r7, #4]
 8003202:	6a5b      	ldr	r3, [r3, #36]	; 0x24
 8003204:	2b00      	cmp	r3, #0
 8003206:	f000 8101 	beq.w	800340c <HAL_RCC_OscConfig+0x810>
 800320a:	4b5e      	ldr	r3, [pc, #376]	; (8003384 <HAL_RCC_OscConfig+0x788>)
 800320c:	691b      	ldr	r3, [r3, #16]
 800320e:	f003 0338 	and.w	r3, r3, #56	; 0x38
 8003212:	2b18      	cmp	r3, #24
 8003214:	f000 80bc 	beq.w	8003390 <HAL_RCC_OscConfig+0x794>
 8003218:	687b      	ldr	r3, [r7, #4]
 800321a:	6a5b      	ldr	r3, [r3, #36]	; 0x24
 800321c:	2b02      	cmp	r3, #2
 800321e:	f040 8095 	bne.w	800334c <HAL_RCC_OscConfig+0x750>
 8003222:	4b58      	ldr	r3, [pc, #352]	; (8003384 <HAL_RCC_OscConfig+0x788>)
 8003224:	681b      	ldr	r3, [r3, #0]
 8003226:	4a57      	ldr	r2, [pc, #348]	; (8003384 <HAL_RCC_OscConfig+0x788>)
 8003228:	f023 7380 	bic.w	r3, r3, #16777216	; 0x1000000
 800322c:	6013      	str	r3, [r2, #0]
 800322e:	f7fe f87f 	bl	8001330 <HAL_GetTick>
 8003232:	6278      	str	r0, [r7, #36]	; 0x24
 8003234:	e008      	b.n	8003248 <HAL_RCC_OscConfig+0x64c>
 8003236:	f7fe f87b 	bl	8001330 <HAL_GetTick>
 800323a:	4602      	mov	r2, r0
 800323c:	6a7b      	ldr	r3, [r7, #36]	; 0x24
 800323e:	1ad3      	subs	r3, r2, r3
 8003240:	2b02      	cmp	r3, #2
 8003242:	d901      	bls.n	8003248 <HAL_RCC_OscConfig+0x64c>
 8003244:	2303      	movs	r3, #3
 8003246:	e0e2      	b.n	800340e <HAL_RCC_OscConfig+0x812>
 8003248:	4b4e      	ldr	r3, [pc, #312]	; (8003384 <HAL_RCC_OscConfig+0x788>)
 800324a:	681b      	ldr	r3, [r3, #0]
 800324c:	f003 7300 	and.w	r3, r3, #33554432	; 0x2000000
 8003250:	2b00      	cmp	r3, #0
 8003252:	d1f0      	bne.n	8003236 <HAL_RCC_OscConfig+0x63a>
 8003254:	4b4b      	ldr	r3, [pc, #300]	; (8003384 <HAL_RCC_OscConfig+0x788>)
 8003256:	6a9a      	ldr	r2, [r3, #40]	; 0x28
 8003258:	4b4b      	ldr	r3, [pc, #300]	; (8003388 <HAL_RCC_OscConfig+0x78c>)
 800325a:	4013      	ands	r3, r2
 800325c:	687a      	ldr	r2, [r7, #4]
 800325e:	6a91      	ldr	r1, [r2, #40]	; 0x28
 8003260:	687a      	ldr	r2, [r7, #4]
 8003262:	6ad2      	ldr	r2, [r2, #44]	; 0x2c
 8003264:	0112      	lsls	r2, r2, #4
 8003266:	430a      	orrs	r2, r1
 8003268:	4946      	ldr	r1, [pc, #280]	; (8003384 <HAL_RCC_OscConfig+0x788>)
 800326a:	4313      	orrs	r3, r2
 800326c:	628b      	str	r3, [r1, #40]	; 0x28
 800326e:	687b      	ldr	r3, [r7, #4]
 8003270:	6b1b      	ldr	r3, [r3, #48]	; 0x30
 8003272:	3b01      	subs	r3, #1
 8003274:	f3c3 0208 	ubfx	r2, r3, #0, #9
 8003278:	687b      	ldr	r3, [r7, #4]
 800327a:	6b5b      	ldr	r3, [r3, #52]	; 0x34
 800327c:	3b01      	subs	r3, #1
 800327e:	025b      	lsls	r3, r3, #9
 8003280:	b29b      	uxth	r3, r3
 8003282:	431a      	orrs	r2, r3
 8003284:	687b      	ldr	r3, [r7, #4]
 8003286:	6b9b      	ldr	r3, [r3, #56]	; 0x38
 8003288:	3b01      	subs	r3, #1
 800328a:	041b      	lsls	r3, r3, #16
 800328c:	f403 03fe 	and.w	r3, r3, #8323072	; 0x7f0000
 8003290:	431a      	orrs	r2, r3
 8003292:	687b      	ldr	r3, [r7, #4]
 8003294:	6bdb      	ldr	r3, [r3, #60]	; 0x3c
 8003296:	3b01      	subs	r3, #1
 8003298:	061b      	lsls	r3, r3, #24
 800329a:	f003 43fe 	and.w	r3, r3, #2130706432	; 0x7f000000
 800329e:	4939      	ldr	r1, [pc, #228]	; (8003384 <HAL_RCC_OscConfig+0x788>)
 80032a0:	4313      	orrs	r3, r2
 80032a2:	630b      	str	r3, [r1, #48]	; 0x30
 80032a4:	4b37      	ldr	r3, [pc, #220]	; (8003384 <HAL_RCC_OscConfig+0x788>)
 80032a6:	6adb      	ldr	r3, [r3, #44]	; 0x2c
 80032a8:	4a36      	ldr	r2, [pc, #216]	; (8003384 <HAL_RCC_OscConfig+0x788>)
 80032aa:	f023 0301 	bic.w	r3, r3, #1
 80032ae:	62d3      	str	r3, [r2, #44]	; 0x2c
 80032b0:	4b34      	ldr	r3, [pc, #208]	; (8003384 <HAL_RCC_OscConfig+0x788>)
 80032b2:	6b5a      	ldr	r2, [r3, #52]	; 0x34
 80032b4:	4b35      	ldr	r3, [pc, #212]	; (800338c <HAL_RCC_OscConfig+0x790>)
 80032b6:	4013      	ands	r3, r2
 80032b8:	687a      	ldr	r2, [r7, #4]
 80032ba:	6c92      	ldr	r2, [r2, #72]	; 0x48
 80032bc:	00d2      	lsls	r2, r2, #3
 80032be:	4931      	ldr	r1, [pc, #196]	; (8003384 <HAL_RCC_OscConfig+0x788>)
 80032c0:	4313      	orrs	r3, r2
 80032c2:	634b      	str	r3, [r1, #52]	; 0x34
 80032c4:	4b2f      	ldr	r3, [pc, #188]	; (8003384 <HAL_RCC_OscConfig+0x788>)
 80032c6:	6adb      	ldr	r3, [r3, #44]	; 0x2c
 80032c8:	f023 020c 	bic.w	r2, r3, #12
 80032cc:	687b      	ldr	r3, [r7, #4]
 80032ce:	6c1b      	ldr	r3, [r3, #64]	; 0x40
 80032d0:	492c      	ldr	r1, [pc, #176]	; (8003384 <HAL_RCC_OscConfig+0x788>)
 80032d2:	4313      	orrs	r3, r2
 80032d4:	62cb      	str	r3, [r1, #44]	; 0x2c
 80032d6:	4b2b      	ldr	r3, [pc, #172]	; (8003384 <HAL_RCC_OscConfig+0x788>)
 80032d8:	6adb      	ldr	r3, [r3, #44]	; 0x2c
 80032da:	f023 0202 	bic.w	r2, r3, #2
 80032de:	687b      	ldr	r3, [r7, #4]
 80032e0:	6c5b      	ldr	r3, [r3, #68]	; 0x44
 80032e2:	4928      	ldr	r1, [pc, #160]	; (8003384 <HAL_RCC_OscConfig+0x788>)
 80032e4:	4313      	orrs	r3, r2
 80032e6:	62cb      	str	r3, [r1, #44]	; 0x2c
 80032e8:	4b26      	ldr	r3, [pc, #152]	; (8003384 <HAL_RCC_OscConfig+0x788>)
 80032ea:	6adb      	ldr	r3, [r3, #44]	; 0x2c
 80032ec:	4a25      	ldr	r2, [pc, #148]	; (8003384 <HAL_RCC_OscConfig+0x788>)
 80032ee:	f443 3380 	orr.w	r3, r3, #65536	; 0x10000
 80032f2:	62d3      	str	r3, [r2, #44]	; 0x2c
 80032f4:	4b23      	ldr	r3, [pc, #140]	; (8003384 <HAL_RCC_OscConfig+0x788>)
 80032f6:	6adb      	ldr	r3, [r3, #44]	; 0x2c
 80032f8:	4a22      	ldr	r2, [pc, #136]	; (8003384 <HAL_RCC_OscConfig+0x788>)
 80032fa:	f443 3300 	orr.w	r3, r3, #131072	; 0x20000
 80032fe:	62d3      	str	r3, [r2, #44]	; 0x2c
 8003300:	4b20      	ldr	r3, [pc, #128]	; (8003384 <HAL_RCC_OscConfig+0x788>)
 8003302:	6adb      	ldr	r3, [r3, #44]	; 0x2c
 8003304:	4a1f      	ldr	r2, [pc, #124]	; (8003384 <HAL_RCC_OscConfig+0x788>)
 8003306:	f443 2380 	orr.w	r3, r3, #262144	; 0x40000
 800330a:	62d3      	str	r3, [r2, #44]	; 0x2c
 800330c:	4b1d      	ldr	r3, [pc, #116]	; (8003384 <HAL_RCC_OscConfig+0x788>)
 800330e:	6adb      	ldr	r3, [r3, #44]	; 0x2c
 8003310:	4a1c      	ldr	r2, [pc, #112]	; (8003384 <HAL_RCC_OscConfig+0x788>)
 8003312:	f043 0301 	orr.w	r3, r3, #1
 8003316:	62d3      	str	r3, [r2, #44]	; 0x2c
 8003318:	4b1a      	ldr	r3, [pc, #104]	; (8003384 <HAL_RCC_OscConfig+0x788>)
 800331a:	681b      	ldr	r3, [r3, #0]
 800331c:	4a19      	ldr	r2, [pc, #100]	; (8003384 <HAL_RCC_OscConfig+0x788>)
 800331e:	f043 7380 	orr.w	r3, r3, #16777216	; 0x1000000
 8003322:	6013      	str	r3, [r2, #0]
 8003324:	f7fe f804 	bl	8001330 <HAL_GetTick>
 8003328:	6278      	str	r0, [r7, #36]	; 0x24
 800332a:	e008      	b.n	800333e <HAL_RCC_OscConfig+0x742>
 800332c:	f7fe f800 	bl	8001330 <HAL_GetTick>
 8003330:	4602      	mov	r2, r0
 8003332:	6a7b      	ldr	r3, [r7, #36]	; 0x24
 8003334:	1ad3      	subs	r3, r2, r3
 8003336:	2b02      	cmp	r3, #2
 8003338:	d901      	bls.n	800333e <HAL_RCC_OscConfig+0x742>
 800333a:	2303      	movs	r3, #3
 800333c:	e067      	b.n	800340e <HAL_RCC_OscConfig+0x812>
 800333e:	4b11      	ldr	r3, [pc, #68]	; (8003384 <HAL_RCC_OscConfig+0x788>)
 8003340:	681b      	ldr	r3, [r3, #0]
 8003342:	f003 7300 	and.w	r3, r3, #33554432	; 0x2000000
 8003346:	2b00      	cmp	r3, #0
 8003348:	d0f0      	beq.n	800332c <HAL_RCC_OscConfig+0x730>
 800334a:	e05f      	b.n	800340c <HAL_RCC_OscConfig+0x810>
 800334c:	4b0d      	ldr	r3, [pc, #52]	; (8003384 <HAL_RCC_OscConfig+0x788>)
 800334e:	681b      	ldr	r3, [r3, #0]
 8003350:	4a0c      	ldr	r2, [pc, #48]	; (8003384 <HAL_RCC_OscConfig+0x788>)
 8003352:	f023 7380 	bic.w	r3, r3, #16777216	; 0x1000000
 8003356:	6013      	str	r3, [r2, #0]
 8003358:	f7fd ffea 	bl	8001330 <HAL_GetTick>
 800335c:	6278      	str	r0, [r7, #36]	; 0x24
 800335e:	e008      	b.n	8003372 <HAL_RCC_OscConfig+0x776>
 8003360:	f7fd ffe6 	bl	8001330 <HAL_GetTick>
 8003364:	4602      	mov	r2, r0
 8003366:	6a7b      	ldr	r3, [r7, #36]	; 0x24
 8003368:	1ad3      	subs	r3, r2, r3
 800336a:	2b02      	cmp	r3, #2
 800336c:	d901      	bls.n	8003372 <HAL_RCC_OscConfig+0x776>
 800336e:	2303      	movs	r3, #3
 8003370:	e04d      	b.n	800340e <HAL_RCC_OscConfig+0x812>
 8003372:	4b04      	ldr	r3, [pc, #16]	; (8003384 <HAL_RCC_OscConfig+0x788>)
 8003374:	681b      	ldr	r3, [r3, #0]
 8003376:	f003 7300 	and.w	r3, r3, #33554432	; 0x2000000
 800337a:	2b00      	cmp	r3, #0
 800337c:	d1f0      	bne.n	8003360 <HAL_RCC_OscConfig+0x764>
 800337e:	e045      	b.n	800340c <HAL_RCC_OscConfig+0x810>
 8003380:	58024800 	.word	0x58024800
 8003384:	58024400 	.word	0x58024400
 8003388:	fffffc0c 	.word	0xfffffc0c
 800338c:	ffff0007 	.word	0xffff0007
 8003390:	4b21      	ldr	r3, [pc, #132]	; (8003418 <HAL_RCC_OscConfig+0x81c>)
 8003392:	6a9b      	ldr	r3, [r3, #40]	; 0x28
 8003394:	613b      	str	r3, [r7, #16]
 8003396:	4b20      	ldr	r3, [pc, #128]	; (8003418 <HAL_RCC_OscConfig+0x81c>)
 8003398:	6b1b      	ldr	r3, [r3, #48]	; 0x30
 800339a:	60fb      	str	r3, [r7, #12]
 800339c:	687b      	ldr	r3, [r7, #4]
 800339e:	6a5b      	ldr	r3, [r3, #36]	; 0x24
 80033a0:	2b01      	cmp	r3, #1
 80033a2:	d031      	beq.n	8003408 <HAL_RCC_OscConfig+0x80c>
 80033a4:	693b      	ldr	r3, [r7, #16]
 80033a6:	f003 0203 	and.w	r2, r3, #3
 80033aa:	687b      	ldr	r3, [r7, #4]
 80033ac:	6a9b      	ldr	r3, [r3, #40]	; 0x28
 80033ae:	429a      	cmp	r2, r3
 80033b0:	d12a      	bne.n	8003408 <HAL_RCC_OscConfig+0x80c>
 80033b2:	693b      	ldr	r3, [r7, #16]
 80033b4:	091b      	lsrs	r3, r3, #4
 80033b6:	f003 023f 	and.w	r2, r3, #63	; 0x3f
 80033ba:	687b      	ldr	r3, [r7, #4]
 80033bc:	6adb      	ldr	r3, [r3, #44]	; 0x2c
 80033be:	429a      	cmp	r2, r3
 80033c0:	d122      	bne.n	8003408 <HAL_RCC_OscConfig+0x80c>
 80033c2:	68fb      	ldr	r3, [r7, #12]
 80033c4:	f3c3 0208 	ubfx	r2, r3, #0, #9
 80033c8:	687b      	ldr	r3, [r7, #4]
 80033ca:	6b1b      	ldr	r3, [r3, #48]	; 0x30
 80033cc:	3b01      	subs	r3, #1
 80033ce:	429a      	cmp	r2, r3
 80033d0:	d11a      	bne.n	8003408 <HAL_RCC_OscConfig+0x80c>
 80033d2:	68fb      	ldr	r3, [r7, #12]
 80033d4:	0a5b      	lsrs	r3, r3, #9
 80033d6:	f003 027f 	and.w	r2, r3, #127	; 0x7f
 80033da:	687b      	ldr	r3, [r7, #4]
 80033dc:	6b5b      	ldr	r3, [r3, #52]	; 0x34
 80033de:	3b01      	subs	r3, #1
 80033e0:	429a      	cmp	r2, r3
 80033e2:	d111      	bne.n	8003408 <HAL_RCC_OscConfig+0x80c>
 80033e4:	68fb      	ldr	r3, [r7, #12]
 80033e6:	0c1b      	lsrs	r3, r3, #16
 80033e8:	f003 027f 	and.w	r2, r3, #127	; 0x7f
 80033ec:	687b      	ldr	r3, [r7, #4]
 80033ee:	6b9b      	ldr	r3, [r3, #56]	; 0x38
 80033f0:	3b01      	subs	r3, #1
 80033f2:	429a      	cmp	r2, r3
 80033f4:	d108      	bne.n	8003408 <HAL_RCC_OscConfig+0x80c>
 80033f6:	68fb      	ldr	r3, [r7, #12]
 80033f8:	0e1b      	lsrs	r3, r3, #24
 80033fa:	f003 027f 	and.w	r2, r3, #127	; 0x7f
 80033fe:	687b      	ldr	r3, [r7, #4]
 8003400:	6bdb      	ldr	r3, [r3, #60]	; 0x3c
 8003402:	3b01      	subs	r3, #1
 8003404:	429a      	cmp	r2, r3
 8003406:	d001      	beq.n	800340c <HAL_RCC_OscConfig+0x810>
 8003408:	2301      	movs	r3, #1
 800340a:	e000      	b.n	800340e <HAL_RCC_OscConfig+0x812>
 800340c:	2300      	movs	r3, #0
 800340e:	4618      	mov	r0, r3
 8003410:	3730      	adds	r7, #48	; 0x30
 8003412:	46bd      	mov	sp, r7
 8003414:	bd80      	pop	{r7, pc}
 8003416:	bf00      	nop
 8003418:	58024400 	.word	0x58024400

0800341c <HAL_RCC_ClockConfig>:
 800341c:	b580      	push	{r7, lr}
 800341e:	b086      	sub	sp, #24
 8003420:	af00      	add	r7, sp, #0
 8003422:	6078      	str	r0, [r7, #4]
 8003424:	6039      	str	r1, [r7, #0]
 8003426:	687b      	ldr	r3, [r7, #4]
 8003428:	2b00      	cmp	r3, #0
 800342a:	d101      	bne.n	8003430 <HAL_RCC_ClockConfig+0x14>
 800342c:	2301      	movs	r3, #1
 800342e:	e19c      	b.n	800376a <HAL_RCC_ClockConfig+0x34e>
 8003430:	4b8a      	ldr	r3, [pc, #552]	; (800365c <HAL_RCC_ClockConfig+0x240>)
 8003432:	681b      	ldr	r3, [r3, #0]
 8003434:	f003 030f 	and.w	r3, r3, #15
 8003438:	683a      	ldr	r2, [r7, #0]
 800343a:	429a      	cmp	r2, r3
 800343c:	d910      	bls.n	8003460 <HAL_RCC_ClockConfig+0x44>
 800343e:	4b87      	ldr	r3, [pc, #540]	; (800365c <HAL_RCC_ClockConfig+0x240>)
 8003440:	681b      	ldr	r3, [r3, #0]
 8003442:	f023 020f 	bic.w	r2, r3, #15
 8003446:	4985      	ldr	r1, [pc, #532]	; (800365c <HAL_RCC_ClockConfig+0x240>)
 8003448:	683b      	ldr	r3, [r7, #0]
 800344a:	4313      	orrs	r3, r2
 800344c:	600b      	str	r3, [r1, #0]
 800344e:	4b83      	ldr	r3, [pc, #524]	; (800365c <HAL_RCC_ClockConfig+0x240>)
 8003450:	681b      	ldr	r3, [r3, #0]
 8003452:	f003 030f 	and.w	r3, r3, #15
 8003456:	683a      	ldr	r2, [r7, #0]
 8003458:	429a      	cmp	r2, r3
 800345a:	d001      	beq.n	8003460 <HAL_RCC_ClockConfig+0x44>
 800345c:	2301      	movs	r3, #1
 800345e:	e184      	b.n	800376a <HAL_RCC_ClockConfig+0x34e>
 8003460:	687b      	ldr	r3, [r7, #4]
 8003462:	681b      	ldr	r3, [r3, #0]
 8003464:	f003 0304 	and.w	r3, r3, #4
 8003468:	2b00      	cmp	r3, #0
 800346a:	d010      	beq.n	800348e <HAL_RCC_ClockConfig+0x72>
 800346c:	687b      	ldr	r3, [r7, #4]
 800346e:	691a      	ldr	r2, [r3, #16]
 8003470:	4b7b      	ldr	r3, [pc, #492]	; (8003660 <HAL_RCC_ClockConfig+0x244>)
 8003472:	699b      	ldr	r3, [r3, #24]
 8003474:	f003 0370 	and.w	r3, r3, #112	; 0x70
 8003478:	429a      	cmp	r2, r3
 800347a:	d908      	bls.n	800348e <HAL_RCC_ClockConfig+0x72>
 800347c:	4b78      	ldr	r3, [pc, #480]	; (8003660 <HAL_RCC_ClockConfig+0x244>)
 800347e:	699b      	ldr	r3, [r3, #24]
 8003480:	f023 0270 	bic.w	r2, r3, #112	; 0x70
 8003484:	687b      	ldr	r3, [r7, #4]
 8003486:	691b      	ldr	r3, [r3, #16]
 8003488:	4975      	ldr	r1, [pc, #468]	; (8003660 <HAL_RCC_ClockConfig+0x244>)
 800348a:	4313      	orrs	r3, r2
 800348c:	618b      	str	r3, [r1, #24]
 800348e:	687b      	ldr	r3, [r7, #4]
 8003490:	681b      	ldr	r3, [r3, #0]
 8003492:	f003 0308 	and.w	r3, r3, #8
 8003496:	2b00      	cmp	r3, #0
 8003498:	d010      	beq.n	80034bc <HAL_RCC_ClockConfig+0xa0>
 800349a:	687b      	ldr	r3, [r7, #4]
 800349c:	695a      	ldr	r2, [r3, #20]
 800349e:	4b70      	ldr	r3, [pc, #448]	; (8003660 <HAL_RCC_ClockConfig+0x244>)
 80034a0:	69db      	ldr	r3, [r3, #28]
 80034a2:	f003 0370 	and.w	r3, r3, #112	; 0x70
 80034a6:	429a      	cmp	r2, r3
 80034a8:	d908      	bls.n	80034bc <HAL_RCC_ClockConfig+0xa0>
 80034aa:	4b6d      	ldr	r3, [pc, #436]	; (8003660 <HAL_RCC_ClockConfig+0x244>)
 80034ac:	69db      	ldr	r3, [r3, #28]
 80034ae:	f023 0270 	bic.w	r2, r3, #112	; 0x70
 80034b2:	687b      	ldr	r3, [r7, #4]
 80034b4:	695b      	ldr	r3, [r3, #20]
 80034b6:	496a      	ldr	r1, [pc, #424]	; (8003660 <HAL_RCC_ClockConfig+0x244>)
 80034b8:	4313      	orrs	r3, r2
 80034ba:	61cb      	str	r3, [r1, #28]
 80034bc:	687b      	ldr	r3, [r7, #4]
 80034be:	681b      	ldr	r3, [r3, #0]
 80034c0:	f003 0310 	and.w	r3, r3, #16
 80034c4:	2b00      	cmp	r3, #0
 80034c6:	d010      	beq.n	80034ea <HAL_RCC_ClockConfig+0xce>
 80034c8:	687b      	ldr	r3, [r7, #4]
 80034ca:	699a      	ldr	r2, [r3, #24]
 80034cc:	4b64      	ldr	r3, [pc, #400]	; (8003660 <HAL_RCC_ClockConfig+0x244>)
 80034ce:	69db      	ldr	r3, [r3, #28]
 80034d0:	f403 63e0 	and.w	r3, r3, #1792	; 0x700
 80034d4:	429a      	cmp	r2, r3
 80034d6:	d908      	bls.n	80034ea <HAL_RCC_ClockConfig+0xce>
 80034d8:	4b61      	ldr	r3, [pc, #388]	; (8003660 <HAL_RCC_ClockConfig+0x244>)
 80034da:	69db      	ldr	r3, [r3, #28]
 80034dc:	f423 62e0 	bic.w	r2, r3, #1792	; 0x700
 80034e0:	687b      	ldr	r3, [r7, #4]
 80034e2:	699b      	ldr	r3, [r3, #24]
 80034e4:	495e      	ldr	r1, [pc, #376]	; (8003660 <HAL_RCC_ClockConfig+0x244>)
 80034e6:	4313      	orrs	r3, r2
 80034e8:	61cb      	str	r3, [r1, #28]
 80034ea:	687b      	ldr	r3, [r7, #4]
 80034ec:	681b      	ldr	r3, [r3, #0]
 80034ee:	f003 0320 	and.w	r3, r3, #32
 80034f2:	2b00      	cmp	r3, #0
 80034f4:	d010      	beq.n	8003518 <HAL_RCC_ClockConfig+0xfc>
 80034f6:	687b      	ldr	r3, [r7, #4]
 80034f8:	69da      	ldr	r2, [r3, #28]
 80034fa:	4b59      	ldr	r3, [pc, #356]	; (8003660 <HAL_RCC_ClockConfig+0x244>)
 80034fc:	6a1b      	ldr	r3, [r3, #32]
 80034fe:	f003 0370 	and.w	r3, r3, #112	; 0x70
 8003502:	429a      	cmp	r2, r3
 8003504:	d908      	bls.n	8003518 <HAL_RCC_ClockConfig+0xfc>
 8003506:	4b56      	ldr	r3, [pc, #344]	; (8003660 <HAL_RCC_ClockConfig+0x244>)
 8003508:	6a1b      	ldr	r3, [r3, #32]
 800350a:	f023 0270 	bic.w	r2, r3, #112	; 0x70
 800350e:	687b      	ldr	r3, [r7, #4]
 8003510:	69db      	ldr	r3, [r3, #28]
 8003512:	4953      	ldr	r1, [pc, #332]	; (8003660 <HAL_RCC_ClockConfig+0x244>)
 8003514:	4313      	orrs	r3, r2
 8003516:	620b      	str	r3, [r1, #32]
 8003518:	687b      	ldr	r3, [r7, #4]
 800351a:	681b      	ldr	r3, [r3, #0]
 800351c:	f003 0302 	and.w	r3, r3, #2
 8003520:	2b00      	cmp	r3, #0
 8003522:	d010      	beq.n	8003546 <HAL_RCC_ClockConfig+0x12a>
 8003524:	687b      	ldr	r3, [r7, #4]
 8003526:	68da      	ldr	r2, [r3, #12]
 8003528:	4b4d      	ldr	r3, [pc, #308]	; (8003660 <HAL_RCC_ClockConfig+0x244>)
 800352a:	699b      	ldr	r3, [r3, #24]
 800352c:	f003 030f 	and.w	r3, r3, #15
 8003530:	429a      	cmp	r2, r3
 8003532:	d908      	bls.n	8003546 <HAL_RCC_ClockConfig+0x12a>
 8003534:	4b4a      	ldr	r3, [pc, #296]	; (8003660 <HAL_RCC_ClockConfig+0x244>)
 8003536:	699b      	ldr	r3, [r3, #24]
 8003538:	f023 020f 	bic.w	r2, r3, #15
 800353c:	687b      	ldr	r3, [r7, #4]
 800353e:	68db      	ldr	r3, [r3, #12]
 8003540:	4947      	ldr	r1, [pc, #284]	; (8003660 <HAL_RCC_ClockConfig+0x244>)
 8003542:	4313      	orrs	r3, r2
 8003544:	618b      	str	r3, [r1, #24]
 8003546:	687b      	ldr	r3, [r7, #4]
 8003548:	681b      	ldr	r3, [r3, #0]
 800354a:	f003 0301 	and.w	r3, r3, #1
 800354e:	2b00      	cmp	r3, #0
 8003550:	d055      	beq.n	80035fe <HAL_RCC_ClockConfig+0x1e2>
 8003552:	4b43      	ldr	r3, [pc, #268]	; (8003660 <HAL_RCC_ClockConfig+0x244>)
 8003554:	699b      	ldr	r3, [r3, #24]
 8003556:	f423 6270 	bic.w	r2, r3, #3840	; 0xf00
 800355a:	687b      	ldr	r3, [r7, #4]
 800355c:	689b      	ldr	r3, [r3, #8]
 800355e:	4940      	ldr	r1, [pc, #256]	; (8003660 <HAL_RCC_ClockConfig+0x244>)
 8003560:	4313      	orrs	r3, r2
 8003562:	618b      	str	r3, [r1, #24]
 8003564:	687b      	ldr	r3, [r7, #4]
 8003566:	685b      	ldr	r3, [r3, #4]
 8003568:	2b02      	cmp	r3, #2
 800356a:	d107      	bne.n	800357c <HAL_RCC_ClockConfig+0x160>
 800356c:	4b3c      	ldr	r3, [pc, #240]	; (8003660 <HAL_RCC_ClockConfig+0x244>)
 800356e:	681b      	ldr	r3, [r3, #0]
 8003570:	f403 3300 	and.w	r3, r3, #131072	; 0x20000
 8003574:	2b00      	cmp	r3, #0
 8003576:	d121      	bne.n	80035bc <HAL_RCC_ClockConfig+0x1a0>
 8003578:	2301      	movs	r3, #1
 800357a:	e0f6      	b.n	800376a <HAL_RCC_ClockConfig+0x34e>
 800357c:	687b      	ldr	r3, [r7, #4]
 800357e:	685b      	ldr	r3, [r3, #4]
 8003580:	2b03      	cmp	r3, #3
 8003582:	d107      	bne.n	8003594 <HAL_RCC_ClockConfig+0x178>
 8003584:	4b36      	ldr	r3, [pc, #216]	; (8003660 <HAL_RCC_ClockConfig+0x244>)
 8003586:	681b      	ldr	r3, [r3, #0]
 8003588:	f003 7300 	and.w	r3, r3, #33554432	; 0x2000000
 800358c:	2b00      	cmp	r3, #0
 800358e:	d115      	bne.n	80035bc <HAL_RCC_ClockConfig+0x1a0>
 8003590:	2301      	movs	r3, #1
 8003592:	e0ea      	b.n	800376a <HAL_RCC_ClockConfig+0x34e>
 8003594:	687b      	ldr	r3, [r7, #4]
 8003596:	685b      	ldr	r3, [r3, #4]
 8003598:	2b01      	cmp	r3, #1
 800359a:	d107      	bne.n	80035ac <HAL_RCC_ClockConfig+0x190>
 800359c:	4b30      	ldr	r3, [pc, #192]	; (8003660 <HAL_RCC_ClockConfig+0x244>)
 800359e:	681b      	ldr	r3, [r3, #0]
 80035a0:	f403 7380 	and.w	r3, r3, #256	; 0x100
 80035a4:	2b00      	cmp	r3, #0
 80035a6:	d109      	bne.n	80035bc <HAL_RCC_ClockConfig+0x1a0>
 80035a8:	2301      	movs	r3, #1
 80035aa:	e0de      	b.n	800376a <HAL_RCC_ClockConfig+0x34e>
 80035ac:	4b2c      	ldr	r3, [pc, #176]	; (8003660 <HAL_RCC_ClockConfig+0x244>)
 80035ae:	681b      	ldr	r3, [r3, #0]
 80035b0:	f003 0304 	and.w	r3, r3, #4
 80035b4:	2b00      	cmp	r3, #0
 80035b6:	d101      	bne.n	80035bc <HAL_RCC_ClockConfig+0x1a0>
 80035b8:	2301      	movs	r3, #1
 80035ba:	e0d6      	b.n	800376a <HAL_RCC_ClockConfig+0x34e>
 80035bc:	4b28      	ldr	r3, [pc, #160]	; (8003660 <HAL_RCC_ClockConfig+0x244>)
 80035be:	691b      	ldr	r3, [r3, #16]
 80035c0:	f023 0207 	bic.w	r2, r3, #7
 80035c4:	687b      	ldr	r3, [r7, #4]
 80035c6:	685b      	ldr	r3, [r3, #4]
 80035c8:	4925      	ldr	r1, [pc, #148]	; (8003660 <HAL_RCC_ClockConfig+0x244>)
 80035ca:	4313      	orrs	r3, r2
 80035cc:	610b      	str	r3, [r1, #16]
 80035ce:	f7fd feaf 	bl	8001330 <HAL_GetTick>
 80035d2:	6178      	str	r0, [r7, #20]
 80035d4:	e00a      	b.n	80035ec <HAL_RCC_ClockConfig+0x1d0>
 80035d6:	f7fd feab 	bl	8001330 <HAL_GetTick>
 80035da:	4602      	mov	r2, r0
 80035dc:	697b      	ldr	r3, [r7, #20]
 80035de:	1ad3      	subs	r3, r2, r3
 80035e0:	f241 3288 	movw	r2, #5000	; 0x1388
 80035e4:	4293      	cmp	r3, r2
 80035e6:	d901      	bls.n	80035ec <HAL_RCC_ClockConfig+0x1d0>
 80035e8:	2303      	movs	r3, #3
 80035ea:	e0be      	b.n	800376a <HAL_RCC_ClockConfig+0x34e>
 80035ec:	4b1c      	ldr	r3, [pc, #112]	; (8003660 <HAL_RCC_ClockConfig+0x244>)
 80035ee:	691b      	ldr	r3, [r3, #16]
 80035f0:	f003 0238 	and.w	r2, r3, #56	; 0x38
 80035f4:	687b      	ldr	r3, [r7, #4]
 80035f6:	685b      	ldr	r3, [r3, #4]
 80035f8:	00db      	lsls	r3, r3, #3
 80035fa:	429a      	cmp	r2, r3
 80035fc:	d1eb      	bne.n	80035d6 <HAL_RCC_ClockConfig+0x1ba>
 80035fe:	687b      	ldr	r3, [r7, #4]
 8003600:	681b      	ldr	r3, [r3, #0]
 8003602:	f003 0302 	and.w	r3, r3, #2
 8003606:	2b00      	cmp	r3, #0
 8003608:	d010      	beq.n	800362c <HAL_RCC_ClockConfig+0x210>
 800360a:	687b      	ldr	r3, [r7, #4]
 800360c:	68da      	ldr	r2, [r3, #12]
 800360e:	4b14      	ldr	r3, [pc, #80]	; (8003660 <HAL_RCC_ClockConfig+0x244>)
 8003610:	699b      	ldr	r3, [r3, #24]
 8003612:	f003 030f 	and.w	r3, r3, #15
 8003616:	429a      	cmp	r2, r3
 8003618:	d208      	bcs.n	800362c <HAL_RCC_ClockConfig+0x210>
 800361a:	4b11      	ldr	r3, [pc, #68]	; (8003660 <HAL_RCC_ClockConfig+0x244>)
 800361c:	699b      	ldr	r3, [r3, #24]
 800361e:	f023 020f 	bic.w	r2, r3, #15
 8003622:	687b      	ldr	r3, [r7, #4]
 8003624:	68db      	ldr	r3, [r3, #12]
 8003626:	490e      	ldr	r1, [pc, #56]	; (8003660 <HAL_RCC_ClockConfig+0x244>)
 8003628:	4313      	orrs	r3, r2
 800362a:	618b      	str	r3, [r1, #24]
 800362c:	4b0b      	ldr	r3, [pc, #44]	; (800365c <HAL_RCC_ClockConfig+0x240>)
 800362e:	681b      	ldr	r3, [r3, #0]
 8003630:	f003 030f 	and.w	r3, r3, #15
 8003634:	683a      	ldr	r2, [r7, #0]
 8003636:	429a      	cmp	r2, r3
 8003638:	d214      	bcs.n	8003664 <HAL_RCC_ClockConfig+0x248>
 800363a:	4b08      	ldr	r3, [pc, #32]	; (800365c <HAL_RCC_ClockConfig+0x240>)
 800363c:	681b      	ldr	r3, [r3, #0]
 800363e:	f023 020f 	bic.w	r2, r3, #15
 8003642:	4906      	ldr	r1, [pc, #24]	; (800365c <HAL_RCC_ClockConfig+0x240>)
 8003644:	683b      	ldr	r3, [r7, #0]
 8003646:	4313      	orrs	r3, r2
 8003648:	600b      	str	r3, [r1, #0]
 800364a:	4b04      	ldr	r3, [pc, #16]	; (800365c <HAL_RCC_ClockConfig+0x240>)
 800364c:	681b      	ldr	r3, [r3, #0]
 800364e:	f003 030f 	and.w	r3, r3, #15
 8003652:	683a      	ldr	r2, [r7, #0]
 8003654:	429a      	cmp	r2, r3
 8003656:	d005      	beq.n	8003664 <HAL_RCC_ClockConfig+0x248>
 8003658:	2301      	movs	r3, #1
 800365a:	e086      	b.n	800376a <HAL_RCC_ClockConfig+0x34e>
 800365c:	52002000 	.word	0x52002000
 8003660:	58024400 	.word	0x58024400
 8003664:	687b      	ldr	r3, [r7, #4]
 8003666:	681b      	ldr	r3, [r3, #0]
 8003668:	f003 0304 	and.w	r3, r3, #4
 800366c:	2b00      	cmp	r3, #0
 800366e:	d010      	beq.n	8003692 <HAL_RCC_ClockConfig+0x276>
 8003670:	687b      	ldr	r3, [r7, #4]
 8003672:	691a      	ldr	r2, [r3, #16]
 8003674:	4b3f      	ldr	r3, [pc, #252]	; (8003774 <HAL_RCC_ClockConfig+0x358>)
 8003676:	699b      	ldr	r3, [r3, #24]
 8003678:	f003 0370 	and.w	r3, r3, #112	; 0x70
 800367c:	429a      	cmp	r2, r3
 800367e:	d208      	bcs.n	8003692 <HAL_RCC_ClockConfig+0x276>
 8003680:	4b3c      	ldr	r3, [pc, #240]	; (8003774 <HAL_RCC_ClockConfig+0x358>)
 8003682:	699b      	ldr	r3, [r3, #24]
 8003684:	f023 0270 	bic.w	r2, r3, #112	; 0x70
 8003688:	687b      	ldr	r3, [r7, #4]
 800368a:	691b      	ldr	r3, [r3, #16]
 800368c:	4939      	ldr	r1, [pc, #228]	; (8003774 <HAL_RCC_ClockConfig+0x358>)
 800368e:	4313      	orrs	r3, r2
 8003690:	618b      	str	r3, [r1, #24]
 8003692:	687b      	ldr	r3, [r7, #4]
 8003694:	681b      	ldr	r3, [r3, #0]
 8003696:	f003 0308 	and.w	r3, r3, #8
 800369a:	2b00      	cmp	r3, #0
 800369c:	d010      	beq.n	80036c0 <HAL_RCC_ClockConfig+0x2a4>
 800369e:	687b      	ldr	r3, [r7, #4]
 80036a0:	695a      	ldr	r2, [r3, #20]
 80036a2:	4b34      	ldr	r3, [pc, #208]	; (8003774 <HAL_RCC_ClockConfig+0x358>)
 80036a4:	69db      	ldr	r3, [r3, #28]
 80036a6:	f003 0370 	and.w	r3, r3, #112	; 0x70
 80036aa:	429a      	cmp	r2, r3
 80036ac:	d208      	bcs.n	80036c0 <HAL_RCC_ClockConfig+0x2a4>
 80036ae:	4b31      	ldr	r3, [pc, #196]	; (8003774 <HAL_RCC_ClockConfig+0x358>)
 80036b0:	69db      	ldr	r3, [r3, #28]
 80036b2:	f023 0270 	bic.w	r2, r3, #112	; 0x70
 80036b6:	687b      	ldr	r3, [r7, #4]
 80036b8:	695b      	ldr	r3, [r3, #20]
 80036ba:	492e      	ldr	r1, [pc, #184]	; (8003774 <HAL_RCC_ClockConfig+0x358>)
 80036bc:	4313      	orrs	r3, r2
 80036be:	61cb      	str	r3, [r1, #28]
 80036c0:	687b      	ldr	r3, [r7, #4]
 80036c2:	681b      	ldr	r3, [r3, #0]
 80036c4:	f003 0310 	and.w	r3, r3, #16
 80036c8:	2b00      	cmp	r3, #0
 80036ca:	d010      	beq.n	80036ee <HAL_RCC_ClockConfig+0x2d2>
 80036cc:	687b      	ldr	r3, [r7, #4]
 80036ce:	699a      	ldr	r2, [r3, #24]
 80036d0:	4b28      	ldr	r3, [pc, #160]	; (8003774 <HAL_RCC_ClockConfig+0x358>)
 80036d2:	69db      	ldr	r3, [r3, #28]
 80036d4:	f403 63e0 	and.w	r3, r3, #1792	; 0x700
 80036d8:	429a      	cmp	r2, r3
 80036da:	d208      	bcs.n	80036ee <HAL_RCC_ClockConfig+0x2d2>
 80036dc:	4b25      	ldr	r3, [pc, #148]	; (8003774 <HAL_RCC_ClockConfig+0x358>)
 80036de:	69db      	ldr	r3, [r3, #28]
 80036e0:	f423 62e0 	bic.w	r2, r3, #1792	; 0x700
 80036e4:	687b      	ldr	r3, [r7, #4]
 80036e6:	699b      	ldr	r3, [r3, #24]
 80036e8:	4922      	ldr	r1, [pc, #136]	; (8003774 <HAL_RCC_ClockConfig+0x358>)
 80036ea:	4313      	orrs	r3, r2
 80036ec:	61cb      	str	r3, [r1, #28]
 80036ee:	687b      	ldr	r3, [r7, #4]
 80036f0:	681b      	ldr	r3, [r3, #0]
 80036f2:	f003 0320 	and.w	r3, r3, #32
 80036f6:	2b00      	cmp	r3, #0
 80036f8:	d010      	beq.n	800371c <HAL_RCC_ClockConfig+0x300>
 80036fa:	687b      	ldr	r3, [r7, #4]
 80036fc:	69da      	ldr	r2, [r3, #28]
 80036fe:	4b1d      	ldr	r3, [pc, #116]	; (8003774 <HAL_RCC_ClockConfig+0x358>)
 8003700:	6a1b      	ldr	r3, [r3, #32]
 8003702:	f003 0370 	and.w	r3, r3, #112	; 0x70
 8003706:	429a      	cmp	r2, r3
 8003708:	d208      	bcs.n	800371c <HAL_RCC_ClockConfig+0x300>
 800370a:	4b1a      	ldr	r3, [pc, #104]	; (8003774 <HAL_RCC_ClockConfig+0x358>)
 800370c:	6a1b      	ldr	r3, [r3, #32]
 800370e:	f023 0270 	bic.w	r2, r3, #112	; 0x70
 8003712:	687b      	ldr	r3, [r7, #4]
 8003714:	69db      	ldr	r3, [r3, #28]
 8003716:	4917      	ldr	r1, [pc, #92]	; (8003774 <HAL_RCC_ClockConfig+0x358>)
 8003718:	4313      	orrs	r3, r2
 800371a:	620b      	str	r3, [r1, #32]
 800371c:	f000 f834 	bl	8003788 <HAL_RCC_GetSysClockFreq>
 8003720:	4601      	mov	r1, r0
 8003722:	4b14      	ldr	r3, [pc, #80]	; (8003774 <HAL_RCC_ClockConfig+0x358>)
 8003724:	699b      	ldr	r3, [r3, #24]
 8003726:	0a1b      	lsrs	r3, r3, #8
 8003728:	f003 030f 	and.w	r3, r3, #15
 800372c:	4a12      	ldr	r2, [pc, #72]	; (8003778 <HAL_RCC_ClockConfig+0x35c>)
 800372e:	5cd3      	ldrb	r3, [r2, r3]
 8003730:	f003 031f 	and.w	r3, r3, #31
 8003734:	fa21 f303 	lsr.w	r3, r1, r3
 8003738:	613b      	str	r3, [r7, #16]
 800373a:	4b0e      	ldr	r3, [pc, #56]	; (8003774 <HAL_RCC_ClockConfig+0x358>)
 800373c:	699b      	ldr	r3, [r3, #24]
 800373e:	f003 030f 	and.w	r3, r3, #15
 8003742:	4a0d      	ldr	r2, [pc, #52]	; (8003778 <HAL_RCC_ClockConfig+0x35c>)
 8003744:	5cd3      	ldrb	r3, [r2, r3]
 8003746:	f003 031f 	and.w	r3, r3, #31
 800374a:	693a      	ldr	r2, [r7, #16]
 800374c:	fa22 f303 	lsr.w	r3, r2, r3
 8003750:	4a0a      	ldr	r2, [pc, #40]	; (800377c <HAL_RCC_ClockConfig+0x360>)
 8003752:	6013      	str	r3, [r2, #0]
 8003754:	4a0a      	ldr	r2, [pc, #40]	; (8003780 <HAL_RCC_ClockConfig+0x364>)
 8003756:	693b      	ldr	r3, [r7, #16]
 8003758:	6013      	str	r3, [r2, #0]
 800375a:	4b0a      	ldr	r3, [pc, #40]	; (8003784 <HAL_RCC_ClockConfig+0x368>)
 800375c:	681b      	ldr	r3, [r3, #0]
 800375e:	4618      	mov	r0, r3
 8003760:	f7fd fd9c 	bl	800129c <HAL_InitTick>
 8003764:	4603      	mov	r3, r0
 8003766:	73fb      	strb	r3, [r7, #15]
 8003768:	7bfb      	ldrb	r3, [r7, #15]
 800376a:	4618      	mov	r0, r3
 800376c:	3718      	adds	r7, #24
 800376e:	46bd      	mov	sp, r7
 8003770:	bd80      	pop	{r7, pc}
 8003772:	bf00      	nop
 8003774:	58024400 	.word	0x58024400
 8003778:	080075d8 	.word	0x080075d8
 800377c:	24000004 	.word	0x24000004
 8003780:	24000000 	.word	0x24000000
 8003784:	24000008 	.word	0x24000008

08003788 <HAL_RCC_GetSysClockFreq>:
 8003788:	b480      	push	{r7}
 800378a:	b089      	sub	sp, #36	; 0x24
 800378c:	af00      	add	r7, sp, #0
 800378e:	4baf      	ldr	r3, [pc, #700]	; (8003a4c <HAL_RCC_GetSysClockFreq+0x2c4>)
 8003790:	691b      	ldr	r3, [r3, #16]
 8003792:	f003 0338 	and.w	r3, r3, #56	; 0x38
 8003796:	2b18      	cmp	r3, #24
 8003798:	f200 814e 	bhi.w	8003a38 <HAL_RCC_GetSysClockFreq+0x2b0>
 800379c:	a201      	add	r2, pc, #4	; (adr r2, 80037a4 <HAL_RCC_GetSysClockFreq+0x1c>)
 800379e:	f852 f023 	ldr.w	pc, [r2, r3, lsl #2]
 80037a2:	bf00      	nop
 80037a4:	08003809 	.word	0x08003809
 80037a8:	08003a39 	.word	0x08003a39
 80037ac:	08003a39 	.word	0x08003a39
 80037b0:	08003a39 	.word	0x08003a39
 80037b4:	08003a39 	.word	0x08003a39
 80037b8:	08003a39 	.word	0x08003a39
 80037bc:	08003a39 	.word	0x08003a39
 80037c0:	08003a39 	.word	0x08003a39
 80037c4:	0800382f 	.word	0x0800382f
 80037c8:	08003a39 	.word	0x08003a39
 80037cc:	08003a39 	.word	0x08003a39
 80037d0:	08003a39 	.word	0x08003a39
 80037d4:	08003a39 	.word	0x08003a39
 80037d8:	08003a39 	.word	0x08003a39
 80037dc:	08003a39 	.word	0x08003a39
 80037e0:	08003a39 	.word	0x08003a39
 80037e4:	08003835 	.word	0x08003835
 80037e8:	08003a39 	.word	0x08003a39
 80037ec:	08003a39 	.word	0x08003a39
 80037f0:	08003a39 	.word	0x08003a39
 80037f4:	08003a39 	.word	0x08003a39
 80037f8:	08003a39 	.word	0x08003a39
 80037fc:	08003a39 	.word	0x08003a39
 8003800:	08003a39 	.word	0x08003a39
 8003804:	0800383b 	.word	0x0800383b
 8003808:	4b90      	ldr	r3, [pc, #576]	; (8003a4c <HAL_RCC_GetSysClockFreq+0x2c4>)
 800380a:	681b      	ldr	r3, [r3, #0]
 800380c:	f003 0320 	and.w	r3, r3, #32
 8003810:	2b00      	cmp	r3, #0
 8003812:	d009      	beq.n	8003828 <HAL_RCC_GetSysClockFreq+0xa0>
 8003814:	4b8d      	ldr	r3, [pc, #564]	; (8003a4c <HAL_RCC_GetSysClockFreq+0x2c4>)
 8003816:	681b      	ldr	r3, [r3, #0]
 8003818:	08db      	lsrs	r3, r3, #3
 800381a:	f003 0303 	and.w	r3, r3, #3
 800381e:	4a8c      	ldr	r2, [pc, #560]	; (8003a50 <HAL_RCC_GetSysClockFreq+0x2c8>)
 8003820:	fa22 f303 	lsr.w	r3, r2, r3
 8003824:	61bb      	str	r3, [r7, #24]
 8003826:	e10a      	b.n	8003a3e <HAL_RCC_GetSysClockFreq+0x2b6>
 8003828:	4b89      	ldr	r3, [pc, #548]	; (8003a50 <HAL_RCC_GetSysClockFreq+0x2c8>)
 800382a:	61bb      	str	r3, [r7, #24]
 800382c:	e107      	b.n	8003a3e <HAL_RCC_GetSysClockFreq+0x2b6>
 800382e:	4b89      	ldr	r3, [pc, #548]	; (8003a54 <HAL_RCC_GetSysClockFreq+0x2cc>)
 8003830:	61bb      	str	r3, [r7, #24]
 8003832:	e104      	b.n	8003a3e <HAL_RCC_GetSysClockFreq+0x2b6>
 8003834:	4b88      	ldr	r3, [pc, #544]	; (8003a58 <HAL_RCC_GetSysClockFreq+0x2d0>)
 8003836:	61bb      	str	r3, [r7, #24]
 8003838:	e101      	b.n	8003a3e <HAL_RCC_GetSysClockFreq+0x2b6>
 800383a:	4b84      	ldr	r3, [pc, #528]	; (8003a4c <HAL_RCC_GetSysClockFreq+0x2c4>)
 800383c:	6a9b      	ldr	r3, [r3, #40]	; 0x28
 800383e:	f003 0303 	and.w	r3, r3, #3
 8003842:	617b      	str	r3, [r7, #20]
 8003844:	4b81      	ldr	r3, [pc, #516]	; (8003a4c <HAL_RCC_GetSysClockFreq+0x2c4>)
 8003846:	6a9b      	ldr	r3, [r3, #40]	; 0x28
 8003848:	091b      	lsrs	r3, r3, #4
 800384a:	f003 033f 	and.w	r3, r3, #63	; 0x3f
 800384e:	613b      	str	r3, [r7, #16]
 8003850:	4b7e      	ldr	r3, [pc, #504]	; (8003a4c <HAL_RCC_GetSysClockFreq+0x2c4>)
 8003852:	6adb      	ldr	r3, [r3, #44]	; 0x2c
 8003854:	f003 0301 	and.w	r3, r3, #1
 8003858:	60fb      	str	r3, [r7, #12]
 800385a:	4b7c      	ldr	r3, [pc, #496]	; (8003a4c <HAL_RCC_GetSysClockFreq+0x2c4>)
 800385c:	6b5b      	ldr	r3, [r3, #52]	; 0x34
 800385e:	08db      	lsrs	r3, r3, #3
 8003860:	f3c3 030c 	ubfx	r3, r3, #0, #13
 8003864:	68fa      	ldr	r2, [r7, #12]
 8003866:	fb02 f303 	mul.w	r3, r2, r3
 800386a:	ee07 3a90 	vmov	s15, r3
 800386e:	eef8 7a67 	vcvt.f32.u32	s15, s15
 8003872:	edc7 7a02 	vstr	s15, [r7, #8]
 8003876:	693b      	ldr	r3, [r7, #16]
 8003878:	2b00      	cmp	r3, #0
 800387a:	f000 80da 	beq.w	8003a32 <HAL_RCC_GetSysClockFreq+0x2aa>
 800387e:	697b      	ldr	r3, [r7, #20]
 8003880:	2b01      	cmp	r3, #1
 8003882:	d05a      	beq.n	800393a <HAL_RCC_GetSysClockFreq+0x1b2>
 8003884:	2b01      	cmp	r3, #1
 8003886:	d302      	bcc.n	800388e <HAL_RCC_GetSysClockFreq+0x106>
 8003888:	2b02      	cmp	r3, #2
 800388a:	d078      	beq.n	800397e <HAL_RCC_GetSysClockFreq+0x1f6>
 800388c:	e099      	b.n	80039c2 <HAL_RCC_GetSysClockFreq+0x23a>
 800388e:	4b6f      	ldr	r3, [pc, #444]	; (8003a4c <HAL_RCC_GetSysClockFreq+0x2c4>)
 8003890:	681b      	ldr	r3, [r3, #0]
 8003892:	f003 0320 	and.w	r3, r3, #32
 8003896:	2b00      	cmp	r3, #0
 8003898:	d02d      	beq.n	80038f6 <HAL_RCC_GetSysClockFreq+0x16e>
 800389a:	4b6c      	ldr	r3, [pc, #432]	; (8003a4c <HAL_RCC_GetSysClockFreq+0x2c4>)
 800389c:	681b      	ldr	r3, [r3, #0]
 800389e:	08db      	lsrs	r3, r3, #3
 80038a0:	f003 0303 	and.w	r3, r3, #3
 80038a4:	4a6a      	ldr	r2, [pc, #424]	; (8003a50 <HAL_RCC_GetSysClockFreq+0x2c8>)
 80038a6:	fa22 f303 	lsr.w	r3, r2, r3
 80038aa:	607b      	str	r3, [r7, #4]
 80038ac:	687b      	ldr	r3, [r7, #4]
 80038ae:	ee07 3a90 	vmov	s15, r3
 80038b2:	eef8 6a67 	vcvt.f32.u32	s13, s15
 80038b6:	693b      	ldr	r3, [r7, #16]
 80038b8:	ee07 3a90 	vmov	s15, r3
 80038bc:	eef8 7a67 	vcvt.f32.u32	s15, s15
 80038c0:	ee86 7aa7 	vdiv.f32	s14, s13, s15
 80038c4:	4b61      	ldr	r3, [pc, #388]	; (8003a4c <HAL_RCC_GetSysClockFreq+0x2c4>)
 80038c6:	6b1b      	ldr	r3, [r3, #48]	; 0x30
 80038c8:	f3c3 0308 	ubfx	r3, r3, #0, #9
 80038cc:	ee07 3a90 	vmov	s15, r3
 80038d0:	eef8 6a67 	vcvt.f32.u32	s13, s15
 80038d4:	ed97 6a02 	vldr	s12, [r7, #8]
 80038d8:	eddf 5a60 	vldr	s11, [pc, #384]	; 8003a5c <HAL_RCC_GetSysClockFreq+0x2d4>
 80038dc:	eec6 7a25 	vdiv.f32	s15, s12, s11
 80038e0:	ee76 7aa7 	vadd.f32	s15, s13, s15
 80038e4:	eef7 6a00 	vmov.f32	s13, #112	; 0x3f800000  1.0
 80038e8:	ee77 7aa6 	vadd.f32	s15, s15, s13
 80038ec:	ee67 7a27 	vmul.f32	s15, s14, s15
 80038f0:	edc7 7a07 	vstr	s15, [r7, #28]
 80038f4:	e087      	b.n	8003a06 <HAL_RCC_GetSysClockFreq+0x27e>
 80038f6:	693b      	ldr	r3, [r7, #16]
 80038f8:	ee07 3a90 	vmov	s15, r3
 80038fc:	eef8 7a67 	vcvt.f32.u32	s15, s15
 8003900:	eddf 6a57 	vldr	s13, [pc, #348]	; 8003a60 <HAL_RCC_GetSysClockFreq+0x2d8>
 8003904:	ee86 7aa7 	vdiv.f32	s14, s13, s15
 8003908:	4b50      	ldr	r3, [pc, #320]	; (8003a4c <HAL_RCC_GetSysClockFreq+0x2c4>)
 800390a:	6b1b      	ldr	r3, [r3, #48]	; 0x30
 800390c:	f3c3 0308 	ubfx	r3, r3, #0, #9
 8003910:	ee07 3a90 	vmov	s15, r3
 8003914:	eef8 6a67 	vcvt.f32.u32	s13, s15
 8003918:	ed97 6a02 	vldr	s12, [r7, #8]
 800391c:	eddf 5a4f 	vldr	s11, [pc, #316]	; 8003a5c <HAL_RCC_GetSysClockFreq+0x2d4>
 8003920:	eec6 7a25 	vdiv.f32	s15, s12, s11
 8003924:	ee76 7aa7 	vadd.f32	s15, s13, s15
 8003928:	eef7 6a00 	vmov.f32	s13, #112	; 0x3f800000  1.0
 800392c:	ee77 7aa6 	vadd.f32	s15, s15, s13
 8003930:	ee67 7a27 	vmul.f32	s15, s14, s15
 8003934:	edc7 7a07 	vstr	s15, [r7, #28]
 8003938:	e065      	b.n	8003a06 <HAL_RCC_GetSysClockFreq+0x27e>
 800393a:	693b      	ldr	r3, [r7, #16]
 800393c:	ee07 3a90 	vmov	s15, r3
 8003940:	eef8 7a67 	vcvt.f32.u32	s15, s15
 8003944:	eddf 6a47 	vldr	s13, [pc, #284]	; 8003a64 <HAL_RCC_GetSysClockFreq+0x2dc>
 8003948:	ee86 7aa7 	vdiv.f32	s14, s13, s15
 800394c:	4b3f      	ldr	r3, [pc, #252]	; (8003a4c <HAL_RCC_GetSysClockFreq+0x2c4>)
 800394e:	6b1b      	ldr	r3, [r3, #48]	; 0x30
 8003950:	f3c3 0308 	ubfx	r3, r3, #0, #9
 8003954:	ee07 3a90 	vmov	s15, r3
 8003958:	eef8 6a67 	vcvt.f32.u32	s13, s15
 800395c:	ed97 6a02 	vldr	s12, [r7, #8]
 8003960:	eddf 5a3e 	vldr	s11, [pc, #248]	; 8003a5c <HAL_RCC_GetSysClockFreq+0x2d4>
 8003964:	eec6 7a25 	vdiv.f32	s15, s12, s11
 8003968:	ee76 7aa7 	vadd.f32	s15, s13, s15
 800396c:	eef7 6a00 	vmov.f32	s13, #112	; 0x3f800000  1.0
 8003970:	ee77 7aa6 	vadd.f32	s15, s15, s13
 8003974:	ee67 7a27 	vmul.f32	s15, s14, s15
 8003978:	edc7 7a07 	vstr	s15, [r7, #28]
 800397c:	e043      	b.n	8003a06 <HAL_RCC_GetSysClockFreq+0x27e>
 800397e:	693b      	ldr	r3, [r7, #16]
 8003980:	ee07 3a90 	vmov	s15, r3
 8003984:	eef8 7a67 	vcvt.f32.u32	s15, s15
 8003988:	eddf 6a37 	vldr	s13, [pc, #220]	; 8003a68 <HAL_RCC_GetSysClockFreq+0x2e0>
 800398c:	ee86 7aa7 	vdiv.f32	s14, s13, s15
 8003990:	4b2e      	ldr	r3, [pc, #184]	; (8003a4c <HAL_RCC_GetSysClockFreq+0x2c4>)
 8003992:	6b1b      	ldr	r3, [r3, #48]	; 0x30
 8003994:	f3c3 0308 	ubfx	r3, r3, #0, #9
 8003998:	ee07 3a90 	vmov	s15, r3
 800399c:	eef8 6a67 	vcvt.f32.u32	s13, s15
 80039a0:	ed97 6a02 	vldr	s12, [r7, #8]
 80039a4:	eddf 5a2d 	vldr	s11, [pc, #180]	; 8003a5c <HAL_RCC_GetSysClockFreq+0x2d4>
 80039a8:	eec6 7a25 	vdiv.f32	s15, s12, s11
 80039ac:	ee76 7aa7 	vadd.f32	s15, s13, s15
 80039b0:	eef7 6a00 	vmov.f32	s13, #112	; 0x3f800000  1.0
 80039b4:	ee77 7aa6 	vadd.f32	s15, s15, s13
 80039b8:	ee67 7a27 	vmul.f32	s15, s14, s15
 80039bc:	edc7 7a07 	vstr	s15, [r7, #28]
 80039c0:	e021      	b.n	8003a06 <HAL_RCC_GetSysClockFreq+0x27e>
 80039c2:	693b      	ldr	r3, [r7, #16]
 80039c4:	ee07 3a90 	vmov	s15, r3
 80039c8:	eef8 7a67 	vcvt.f32.u32	s15, s15
 80039cc:	eddf 6a25 	vldr	s13, [pc, #148]	; 8003a64 <HAL_RCC_GetSysClockFreq+0x2dc>
 80039d0:	ee86 7aa7 	vdiv.f32	s14, s13, s15
 80039d4:	4b1d      	ldr	r3, [pc, #116]	; (8003a4c <HAL_RCC_GetSysClockFreq+0x2c4>)
 80039d6:	6b1b      	ldr	r3, [r3, #48]	; 0x30
 80039d8:	f3c3 0308 	ubfx	r3, r3, #0, #9
 80039dc:	ee07 3a90 	vmov	s15, r3
 80039e0:	eef8 6a67 	vcvt.f32.u32	s13, s15
 80039e4:	ed97 6a02 	vldr	s12, [r7, #8]
 80039e8:	eddf 5a1c 	vldr	s11, [pc, #112]	; 8003a5c <HAL_RCC_GetSysClockFreq+0x2d4>
 80039ec:	eec6 7a25 	vdiv.f32	s15, s12, s11
 80039f0:	ee76 7aa7 	vadd.f32	s15, s13, s15
 80039f4:	eef7 6a00 	vmov.f32	s13, #112	; 0x3f800000  1.0
 80039f8:	ee77 7aa6 	vadd.f32	s15, s15, s13
 80039fc:	ee67 7a27 	vmul.f32	s15, s14, s15
 8003a00:	edc7 7a07 	vstr	s15, [r7, #28]
 8003a04:	bf00      	nop
 8003a06:	4b11      	ldr	r3, [pc, #68]	; (8003a4c <HAL_RCC_GetSysClockFreq+0x2c4>)
 8003a08:	6b1b      	ldr	r3, [r3, #48]	; 0x30
 8003a0a:	0a5b      	lsrs	r3, r3, #9
 8003a0c:	f003 037f 	and.w	r3, r3, #127	; 0x7f
 8003a10:	3301      	adds	r3, #1
 8003a12:	603b      	str	r3, [r7, #0]
 8003a14:	683b      	ldr	r3, [r7, #0]
 8003a16:	ee07 3a90 	vmov	s15, r3
 8003a1a:	eeb8 7a67 	vcvt.f32.u32	s14, s15
 8003a1e:	edd7 6a07 	vldr	s13, [r7, #28]
 8003a22:	eec6 7a87 	vdiv.f32	s15, s13, s14
 8003a26:	eefc 7ae7 	vcvt.u32.f32	s15, s15
 8003a2a:	ee17 3a90 	vmov	r3, s15
 8003a2e:	61bb      	str	r3, [r7, #24]
 8003a30:	e005      	b.n	8003a3e <HAL_RCC_GetSysClockFreq+0x2b6>
 8003a32:	2300      	movs	r3, #0
 8003a34:	61bb      	str	r3, [r7, #24]
 8003a36:	e002      	b.n	8003a3e <HAL_RCC_GetSysClockFreq+0x2b6>
 8003a38:	4b06      	ldr	r3, [pc, #24]	; (8003a54 <HAL_RCC_GetSysClockFreq+0x2cc>)
 8003a3a:	61bb      	str	r3, [r7, #24]
 8003a3c:	bf00      	nop
 8003a3e:	69bb      	ldr	r3, [r7, #24]
 8003a40:	4618      	mov	r0, r3
 8003a42:	3724      	adds	r7, #36	; 0x24
 8003a44:	46bd      	mov	sp, r7
 8003a46:	f85d 7b04 	ldr.w	r7, [sp], #4
 8003a4a:	4770      	bx	lr
 8003a4c:	58024400 	.word	0x58024400
 8003a50:	03d09000 	.word	0x03d09000
 8003a54:	003d0900 	.word	0x003d0900
 8003a58:	017d7840 	.word	0x017d7840
 8003a5c:	46000000 	.word	0x46000000
 8003a60:	4c742400 	.word	0x4c742400
 8003a64:	4a742400 	.word	0x4a742400
 8003a68:	4bbebc20 	.word	0x4bbebc20

08003a6c <HAL_RCC_GetHCLKFreq>:
 8003a6c:	b580      	push	{r7, lr}
 8003a6e:	b082      	sub	sp, #8
 8003a70:	af00      	add	r7, sp, #0
 8003a72:	f7ff fe89 	bl	8003788 <HAL_RCC_GetSysClockFreq>
 8003a76:	4601      	mov	r1, r0
 8003a78:	4b10      	ldr	r3, [pc, #64]	; (8003abc <HAL_RCC_GetHCLKFreq+0x50>)
 8003a7a:	699b      	ldr	r3, [r3, #24]
 8003a7c:	0a1b      	lsrs	r3, r3, #8
 8003a7e:	f003 030f 	and.w	r3, r3, #15
 8003a82:	4a0f      	ldr	r2, [pc, #60]	; (8003ac0 <HAL_RCC_GetHCLKFreq+0x54>)
 8003a84:	5cd3      	ldrb	r3, [r2, r3]
 8003a86:	f003 031f 	and.w	r3, r3, #31
 8003a8a:	fa21 f303 	lsr.w	r3, r1, r3
 8003a8e:	607b      	str	r3, [r7, #4]
 8003a90:	4b0a      	ldr	r3, [pc, #40]	; (8003abc <HAL_RCC_GetHCLKFreq+0x50>)
 8003a92:	699b      	ldr	r3, [r3, #24]
 8003a94:	f003 030f 	and.w	r3, r3, #15
 8003a98:	4a09      	ldr	r2, [pc, #36]	; (8003ac0 <HAL_RCC_GetHCLKFreq+0x54>)
 8003a9a:	5cd3      	ldrb	r3, [r2, r3]
 8003a9c:	f003 031f 	and.w	r3, r3, #31
 8003aa0:	687a      	ldr	r2, [r7, #4]
 8003aa2:	fa22 f303 	lsr.w	r3, r2, r3
 8003aa6:	4a07      	ldr	r2, [pc, #28]	; (8003ac4 <HAL_RCC_GetHCLKFreq+0x58>)
 8003aa8:	6013      	str	r3, [r2, #0]
 8003aaa:	4a07      	ldr	r2, [pc, #28]	; (8003ac8 <HAL_RCC_GetHCLKFreq+0x5c>)
 8003aac:	687b      	ldr	r3, [r7, #4]
 8003aae:	6013      	str	r3, [r2, #0]
 8003ab0:	4b04      	ldr	r3, [pc, #16]	; (8003ac4 <HAL_RCC_GetHCLKFreq+0x58>)
 8003ab2:	681b      	ldr	r3, [r3, #0]
 8003ab4:	4618      	mov	r0, r3
 8003ab6:	3708      	adds	r7, #8
 8003ab8:	46bd      	mov	sp, r7
 8003aba:	bd80      	pop	{r7, pc}
 8003abc:	58024400 	.word	0x58024400
 8003ac0:	080075d8 	.word	0x080075d8
 8003ac4:	24000004 	.word	0x24000004
 8003ac8:	24000000 	.word	0x24000000

08003acc <HAL_RCC_GetPCLK1Freq>:
 8003acc:	b580      	push	{r7, lr}
 8003ace:	af00      	add	r7, sp, #0
 8003ad0:	f7ff ffcc 	bl	8003a6c <HAL_RCC_GetHCLKFreq>
 8003ad4:	4601      	mov	r1, r0
 8003ad6:	4b06      	ldr	r3, [pc, #24]	; (8003af0 <HAL_RCC_GetPCLK1Freq+0x24>)
 8003ad8:	69db      	ldr	r3, [r3, #28]
 8003ada:	091b      	lsrs	r3, r3, #4
 8003adc:	f003 0307 	and.w	r3, r3, #7
 8003ae0:	4a04      	ldr	r2, [pc, #16]	; (8003af4 <HAL_RCC_GetPCLK1Freq+0x28>)
 8003ae2:	5cd3      	ldrb	r3, [r2, r3]
 8003ae4:	f003 031f 	and.w	r3, r3, #31
 8003ae8:	fa21 f303 	lsr.w	r3, r1, r3
 8003aec:	4618      	mov	r0, r3
 8003aee:	bd80      	pop	{r7, pc}
 8003af0:	58024400 	.word	0x58024400
 8003af4:	080075d8 	.word	0x080075d8

08003af8 <HAL_RCC_GetPCLK2Freq>:
 8003af8:	b580      	push	{r7, lr}
 8003afa:	af00      	add	r7, sp, #0
 8003afc:	f7ff ffb6 	bl	8003a6c <HAL_RCC_GetHCLKFreq>
 8003b00:	4601      	mov	r1, r0
 8003b02:	4b06      	ldr	r3, [pc, #24]	; (8003b1c <HAL_RCC_GetPCLK2Freq+0x24>)
 8003b04:	69db      	ldr	r3, [r3, #28]
 8003b06:	0a1b      	lsrs	r3, r3, #8
 8003b08:	f003 0307 	and.w	r3, r3, #7
 8003b0c:	4a04      	ldr	r2, [pc, #16]	; (8003b20 <HAL_RCC_GetPCLK2Freq+0x28>)
 8003b0e:	5cd3      	ldrb	r3, [r2, r3]
 8003b10:	f003 031f 	and.w	r3, r3, #31
 8003b14:	fa21 f303 	lsr.w	r3, r1, r3
 8003b18:	4618      	mov	r0, r3
 8003b1a:	bd80      	pop	{r7, pc}
 8003b1c:	58024400 	.word	0x58024400
 8003b20:	080075d8 	.word	0x080075d8

08003b24 <HAL_RCCEx_PeriphCLKConfig>:
 8003b24:	b580      	push	{r7, lr}
 8003b26:	b086      	sub	sp, #24
 8003b28:	af00      	add	r7, sp, #0
 8003b2a:	6078      	str	r0, [r7, #4]
 8003b2c:	2300      	movs	r3, #0
 8003b2e:	75fb      	strb	r3, [r7, #23]
 8003b30:	2300      	movs	r3, #0
 8003b32:	75bb      	strb	r3, [r7, #22]
 8003b34:	687b      	ldr	r3, [r7, #4]
 8003b36:	681b      	ldr	r3, [r3, #0]
 8003b38:	f003 6300 	and.w	r3, r3, #134217728	; 0x8000000
 8003b3c:	2b00      	cmp	r3, #0
 8003b3e:	d03d      	beq.n	8003bbc <HAL_RCCEx_PeriphCLKConfig+0x98>
 8003b40:	687b      	ldr	r3, [r7, #4]
 8003b42:	6e5b      	ldr	r3, [r3, #100]	; 0x64
 8003b44:	f5b3 1f80 	cmp.w	r3, #1048576	; 0x100000
 8003b48:	d013      	beq.n	8003b72 <HAL_RCCEx_PeriphCLKConfig+0x4e>
 8003b4a:	f5b3 1f80 	cmp.w	r3, #1048576	; 0x100000
 8003b4e:	d802      	bhi.n	8003b56 <HAL_RCCEx_PeriphCLKConfig+0x32>
 8003b50:	2b00      	cmp	r3, #0
 8003b52:	d007      	beq.n	8003b64 <HAL_RCCEx_PeriphCLKConfig+0x40>
 8003b54:	e01f      	b.n	8003b96 <HAL_RCCEx_PeriphCLKConfig+0x72>
 8003b56:	f5b3 1f00 	cmp.w	r3, #2097152	; 0x200000
 8003b5a:	d013      	beq.n	8003b84 <HAL_RCCEx_PeriphCLKConfig+0x60>
 8003b5c:	f5b3 1f40 	cmp.w	r3, #3145728	; 0x300000
 8003b60:	d01c      	beq.n	8003b9c <HAL_RCCEx_PeriphCLKConfig+0x78>
 8003b62:	e018      	b.n	8003b96 <HAL_RCCEx_PeriphCLKConfig+0x72>
 8003b64:	4baf      	ldr	r3, [pc, #700]	; (8003e24 <HAL_RCCEx_PeriphCLKConfig+0x300>)
 8003b66:	6adb      	ldr	r3, [r3, #44]	; 0x2c
 8003b68:	4aae      	ldr	r2, [pc, #696]	; (8003e24 <HAL_RCCEx_PeriphCLKConfig+0x300>)
 8003b6a:	f443 3300 	orr.w	r3, r3, #131072	; 0x20000
 8003b6e:	62d3      	str	r3, [r2, #44]	; 0x2c
 8003b70:	e015      	b.n	8003b9e <HAL_RCCEx_PeriphCLKConfig+0x7a>
 8003b72:	687b      	ldr	r3, [r7, #4]
 8003b74:	3304      	adds	r3, #4
 8003b76:	2102      	movs	r1, #2
 8003b78:	4618      	mov	r0, r3
 8003b7a:	f001 f96f 	bl	8004e5c <RCCEx_PLL2_Config>
 8003b7e:	4603      	mov	r3, r0
 8003b80:	75fb      	strb	r3, [r7, #23]
 8003b82:	e00c      	b.n	8003b9e <HAL_RCCEx_PeriphCLKConfig+0x7a>
 8003b84:	687b      	ldr	r3, [r7, #4]
 8003b86:	3324      	adds	r3, #36	; 0x24
 8003b88:	2102      	movs	r1, #2
 8003b8a:	4618      	mov	r0, r3
 8003b8c:	f001 fa18 	bl	8004fc0 <RCCEx_PLL3_Config>
 8003b90:	4603      	mov	r3, r0
 8003b92:	75fb      	strb	r3, [r7, #23]
 8003b94:	e003      	b.n	8003b9e <HAL_RCCEx_PeriphCLKConfig+0x7a>
 8003b96:	2301      	movs	r3, #1
 8003b98:	75fb      	strb	r3, [r7, #23]
 8003b9a:	e000      	b.n	8003b9e <HAL_RCCEx_PeriphCLKConfig+0x7a>
 8003b9c:	bf00      	nop
 8003b9e:	7dfb      	ldrb	r3, [r7, #23]
 8003ba0:	2b00      	cmp	r3, #0
 8003ba2:	d109      	bne.n	8003bb8 <HAL_RCCEx_PeriphCLKConfig+0x94>
 8003ba4:	4b9f      	ldr	r3, [pc, #636]	; (8003e24 <HAL_RCCEx_PeriphCLKConfig+0x300>)
 8003ba6:	6d1b      	ldr	r3, [r3, #80]	; 0x50
 8003ba8:	f423 1240 	bic.w	r2, r3, #3145728	; 0x300000
 8003bac:	687b      	ldr	r3, [r7, #4]
 8003bae:	6e5b      	ldr	r3, [r3, #100]	; 0x64
 8003bb0:	499c      	ldr	r1, [pc, #624]	; (8003e24 <HAL_RCCEx_PeriphCLKConfig+0x300>)
 8003bb2:	4313      	orrs	r3, r2
 8003bb4:	650b      	str	r3, [r1, #80]	; 0x50
 8003bb6:	e001      	b.n	8003bbc <HAL_RCCEx_PeriphCLKConfig+0x98>
 8003bb8:	7dfb      	ldrb	r3, [r7, #23]
 8003bba:	75bb      	strb	r3, [r7, #22]
 8003bbc:	687b      	ldr	r3, [r7, #4]
 8003bbe:	681b      	ldr	r3, [r3, #0]
 8003bc0:	f403 7380 	and.w	r3, r3, #256	; 0x100
 8003bc4:	2b00      	cmp	r3, #0
 8003bc6:	d03d      	beq.n	8003c44 <HAL_RCCEx_PeriphCLKConfig+0x120>
 8003bc8:	687b      	ldr	r3, [r7, #4]
 8003bca:	6d5b      	ldr	r3, [r3, #84]	; 0x54
 8003bcc:	2b04      	cmp	r3, #4
 8003bce:	d826      	bhi.n	8003c1e <HAL_RCCEx_PeriphCLKConfig+0xfa>
 8003bd0:	a201      	add	r2, pc, #4	; (adr r2, 8003bd8 <HAL_RCCEx_PeriphCLKConfig+0xb4>)
 8003bd2:	f852 f023 	ldr.w	pc, [r2, r3, lsl #2]
 8003bd6:	bf00      	nop
 8003bd8:	08003bed 	.word	0x08003bed
 8003bdc:	08003bfb 	.word	0x08003bfb
 8003be0:	08003c0d 	.word	0x08003c0d
 8003be4:	08003c25 	.word	0x08003c25
 8003be8:	08003c25 	.word	0x08003c25
 8003bec:	4b8d      	ldr	r3, [pc, #564]	; (8003e24 <HAL_RCCEx_PeriphCLKConfig+0x300>)
 8003bee:	6adb      	ldr	r3, [r3, #44]	; 0x2c
 8003bf0:	4a8c      	ldr	r2, [pc, #560]	; (8003e24 <HAL_RCCEx_PeriphCLKConfig+0x300>)
 8003bf2:	f443 3300 	orr.w	r3, r3, #131072	; 0x20000
 8003bf6:	62d3      	str	r3, [r2, #44]	; 0x2c
 8003bf8:	e015      	b.n	8003c26 <HAL_RCCEx_PeriphCLKConfig+0x102>
 8003bfa:	687b      	ldr	r3, [r7, #4]
 8003bfc:	3304      	adds	r3, #4
 8003bfe:	2100      	movs	r1, #0
 8003c00:	4618      	mov	r0, r3
 8003c02:	f001 f92b 	bl	8004e5c <RCCEx_PLL2_Config>
 8003c06:	4603      	mov	r3, r0
 8003c08:	75fb      	strb	r3, [r7, #23]
 8003c0a:	e00c      	b.n	8003c26 <HAL_RCCEx_PeriphCLKConfig+0x102>
 8003c0c:	687b      	ldr	r3, [r7, #4]
 8003c0e:	3324      	adds	r3, #36	; 0x24
 8003c10:	2100      	movs	r1, #0
 8003c12:	4618      	mov	r0, r3
 8003c14:	f001 f9d4 	bl	8004fc0 <RCCEx_PLL3_Config>
 8003c18:	4603      	mov	r3, r0
 8003c1a:	75fb      	strb	r3, [r7, #23]
 8003c1c:	e003      	b.n	8003c26 <HAL_RCCEx_PeriphCLKConfig+0x102>
 8003c1e:	2301      	movs	r3, #1
 8003c20:	75fb      	strb	r3, [r7, #23]
 8003c22:	e000      	b.n	8003c26 <HAL_RCCEx_PeriphCLKConfig+0x102>
 8003c24:	bf00      	nop
 8003c26:	7dfb      	ldrb	r3, [r7, #23]
 8003c28:	2b00      	cmp	r3, #0
 8003c2a:	d109      	bne.n	8003c40 <HAL_RCCEx_PeriphCLKConfig+0x11c>
 8003c2c:	4b7d      	ldr	r3, [pc, #500]	; (8003e24 <HAL_RCCEx_PeriphCLKConfig+0x300>)
 8003c2e:	6d1b      	ldr	r3, [r3, #80]	; 0x50
 8003c30:	f023 0207 	bic.w	r2, r3, #7
 8003c34:	687b      	ldr	r3, [r7, #4]
 8003c36:	6d5b      	ldr	r3, [r3, #84]	; 0x54
 8003c38:	497a      	ldr	r1, [pc, #488]	; (8003e24 <HAL_RCCEx_PeriphCLKConfig+0x300>)
 8003c3a:	4313      	orrs	r3, r2
 8003c3c:	650b      	str	r3, [r1, #80]	; 0x50
 8003c3e:	e001      	b.n	8003c44 <HAL_RCCEx_PeriphCLKConfig+0x120>
 8003c40:	7dfb      	ldrb	r3, [r7, #23]
 8003c42:	75bb      	strb	r3, [r7, #22]
 8003c44:	687b      	ldr	r3, [r7, #4]
 8003c46:	681b      	ldr	r3, [r3, #0]
 8003c48:	f403 7300 	and.w	r3, r3, #512	; 0x200
 8003c4c:	2b00      	cmp	r3, #0
 8003c4e:	d03e      	beq.n	8003cce <HAL_RCCEx_PeriphCLKConfig+0x1aa>
 8003c50:	687b      	ldr	r3, [r7, #4]
 8003c52:	6d9b      	ldr	r3, [r3, #88]	; 0x58
 8003c54:	2b80      	cmp	r3, #128	; 0x80
 8003c56:	d01c      	beq.n	8003c92 <HAL_RCCEx_PeriphCLKConfig+0x16e>
 8003c58:	2b80      	cmp	r3, #128	; 0x80
 8003c5a:	d804      	bhi.n	8003c66 <HAL_RCCEx_PeriphCLKConfig+0x142>
 8003c5c:	2b00      	cmp	r3, #0
 8003c5e:	d008      	beq.n	8003c72 <HAL_RCCEx_PeriphCLKConfig+0x14e>
 8003c60:	2b40      	cmp	r3, #64	; 0x40
 8003c62:	d00d      	beq.n	8003c80 <HAL_RCCEx_PeriphCLKConfig+0x15c>
 8003c64:	e01e      	b.n	8003ca4 <HAL_RCCEx_PeriphCLKConfig+0x180>
 8003c66:	2bc0      	cmp	r3, #192	; 0xc0
 8003c68:	d01f      	beq.n	8003caa <HAL_RCCEx_PeriphCLKConfig+0x186>
 8003c6a:	f5b3 7f80 	cmp.w	r3, #256	; 0x100
 8003c6e:	d01e      	beq.n	8003cae <HAL_RCCEx_PeriphCLKConfig+0x18a>
 8003c70:	e018      	b.n	8003ca4 <HAL_RCCEx_PeriphCLKConfig+0x180>
 8003c72:	4b6c      	ldr	r3, [pc, #432]	; (8003e24 <HAL_RCCEx_PeriphCLKConfig+0x300>)
 8003c74:	6adb      	ldr	r3, [r3, #44]	; 0x2c
 8003c76:	4a6b      	ldr	r2, [pc, #428]	; (8003e24 <HAL_RCCEx_PeriphCLKConfig+0x300>)
 8003c78:	f443 3300 	orr.w	r3, r3, #131072	; 0x20000
 8003c7c:	62d3      	str	r3, [r2, #44]	; 0x2c
 8003c7e:	e017      	b.n	8003cb0 <HAL_RCCEx_PeriphCLKConfig+0x18c>
 8003c80:	687b      	ldr	r3, [r7, #4]
 8003c82:	3304      	adds	r3, #4
 8003c84:	2100      	movs	r1, #0
 8003c86:	4618      	mov	r0, r3
 8003c88:	f001 f8e8 	bl	8004e5c <RCCEx_PLL2_Config>
 8003c8c:	4603      	mov	r3, r0
 8003c8e:	75fb      	strb	r3, [r7, #23]
 8003c90:	e00e      	b.n	8003cb0 <HAL_RCCEx_PeriphCLKConfig+0x18c>
 8003c92:	687b      	ldr	r3, [r7, #4]
 8003c94:	3324      	adds	r3, #36	; 0x24
 8003c96:	2100      	movs	r1, #0
 8003c98:	4618      	mov	r0, r3
 8003c9a:	f001 f991 	bl	8004fc0 <RCCEx_PLL3_Config>
 8003c9e:	4603      	mov	r3, r0
 8003ca0:	75fb      	strb	r3, [r7, #23]
 8003ca2:	e005      	b.n	8003cb0 <HAL_RCCEx_PeriphCLKConfig+0x18c>
 8003ca4:	2301      	movs	r3, #1
 8003ca6:	75fb      	strb	r3, [r7, #23]
 8003ca8:	e002      	b.n	8003cb0 <HAL_RCCEx_PeriphCLKConfig+0x18c>
 8003caa:	bf00      	nop
 8003cac:	e000      	b.n	8003cb0 <HAL_RCCEx_PeriphCLKConfig+0x18c>
 8003cae:	bf00      	nop
 8003cb0:	7dfb      	ldrb	r3, [r7, #23]
 8003cb2:	2b00      	cmp	r3, #0
 8003cb4:	d109      	bne.n	8003cca <HAL_RCCEx_PeriphCLKConfig+0x1a6>
 8003cb6:	4b5b      	ldr	r3, [pc, #364]	; (8003e24 <HAL_RCCEx_PeriphCLKConfig+0x300>)
 8003cb8:	6d1b      	ldr	r3, [r3, #80]	; 0x50
 8003cba:	f423 72e0 	bic.w	r2, r3, #448	; 0x1c0
 8003cbe:	687b      	ldr	r3, [r7, #4]
 8003cc0:	6d9b      	ldr	r3, [r3, #88]	; 0x58
 8003cc2:	4958      	ldr	r1, [pc, #352]	; (8003e24 <HAL_RCCEx_PeriphCLKConfig+0x300>)
 8003cc4:	4313      	orrs	r3, r2
 8003cc6:	650b      	str	r3, [r1, #80]	; 0x50
 8003cc8:	e001      	b.n	8003cce <HAL_RCCEx_PeriphCLKConfig+0x1aa>
 8003cca:	7dfb      	ldrb	r3, [r7, #23]
 8003ccc:	75bb      	strb	r3, [r7, #22]
 8003cce:	687b      	ldr	r3, [r7, #4]
 8003cd0:	681b      	ldr	r3, [r3, #0]
 8003cd2:	f403 6380 	and.w	r3, r3, #1024	; 0x400
 8003cd6:	2b00      	cmp	r3, #0
 8003cd8:	d044      	beq.n	8003d64 <HAL_RCCEx_PeriphCLKConfig+0x240>
 8003cda:	687b      	ldr	r3, [r7, #4]
 8003cdc:	f8d3 30a4 	ldr.w	r3, [r3, #164]	; 0xa4
 8003ce0:	f5b3 0f80 	cmp.w	r3, #4194304	; 0x400000
 8003ce4:	d01f      	beq.n	8003d26 <HAL_RCCEx_PeriphCLKConfig+0x202>
 8003ce6:	f5b3 0f80 	cmp.w	r3, #4194304	; 0x400000
 8003cea:	d805      	bhi.n	8003cf8 <HAL_RCCEx_PeriphCLKConfig+0x1d4>
 8003cec:	2b00      	cmp	r3, #0
 8003cee:	d00a      	beq.n	8003d06 <HAL_RCCEx_PeriphCLKConfig+0x1e2>
 8003cf0:	f5b3 1f00 	cmp.w	r3, #2097152	; 0x200000
 8003cf4:	d00e      	beq.n	8003d14 <HAL_RCCEx_PeriphCLKConfig+0x1f0>
 8003cf6:	e01f      	b.n	8003d38 <HAL_RCCEx_PeriphCLKConfig+0x214>
 8003cf8:	f5b3 0fc0 	cmp.w	r3, #6291456	; 0x600000
 8003cfc:	d01f      	beq.n	8003d3e <HAL_RCCEx_PeriphCLKConfig+0x21a>
 8003cfe:	f5b3 0f00 	cmp.w	r3, #8388608	; 0x800000
 8003d02:	d01e      	beq.n	8003d42 <HAL_RCCEx_PeriphCLKConfig+0x21e>
 8003d04:	e018      	b.n	8003d38 <HAL_RCCEx_PeriphCLKConfig+0x214>
 8003d06:	4b47      	ldr	r3, [pc, #284]	; (8003e24 <HAL_RCCEx_PeriphCLKConfig+0x300>)
 8003d08:	6adb      	ldr	r3, [r3, #44]	; 0x2c
 8003d0a:	4a46      	ldr	r2, [pc, #280]	; (8003e24 <HAL_RCCEx_PeriphCLKConfig+0x300>)
 8003d0c:	f443 3300 	orr.w	r3, r3, #131072	; 0x20000
 8003d10:	62d3      	str	r3, [r2, #44]	; 0x2c
 8003d12:	e017      	b.n	8003d44 <HAL_RCCEx_PeriphCLKConfig+0x220>
 8003d14:	687b      	ldr	r3, [r7, #4]
 8003d16:	3304      	adds	r3, #4
 8003d18:	2100      	movs	r1, #0
 8003d1a:	4618      	mov	r0, r3
 8003d1c:	f001 f89e 	bl	8004e5c <RCCEx_PLL2_Config>
 8003d20:	4603      	mov	r3, r0
 8003d22:	75fb      	strb	r3, [r7, #23]
 8003d24:	e00e      	b.n	8003d44 <HAL_RCCEx_PeriphCLKConfig+0x220>
 8003d26:	687b      	ldr	r3, [r7, #4]
 8003d28:	3324      	adds	r3, #36	; 0x24
 8003d2a:	2100      	movs	r1, #0
 8003d2c:	4618      	mov	r0, r3
 8003d2e:	f001 f947 	bl	8004fc0 <RCCEx_PLL3_Config>
 8003d32:	4603      	mov	r3, r0
 8003d34:	75fb      	strb	r3, [r7, #23]
 8003d36:	e005      	b.n	8003d44 <HAL_RCCEx_PeriphCLKConfig+0x220>
 8003d38:	2301      	movs	r3, #1
 8003d3a:	75fb      	strb	r3, [r7, #23]
 8003d3c:	e002      	b.n	8003d44 <HAL_RCCEx_PeriphCLKConfig+0x220>
 8003d3e:	bf00      	nop
 8003d40:	e000      	b.n	8003d44 <HAL_RCCEx_PeriphCLKConfig+0x220>
 8003d42:	bf00      	nop
 8003d44:	7dfb      	ldrb	r3, [r7, #23]
 8003d46:	2b00      	cmp	r3, #0
 8003d48:	d10a      	bne.n	8003d60 <HAL_RCCEx_PeriphCLKConfig+0x23c>
 8003d4a:	4b36      	ldr	r3, [pc, #216]	; (8003e24 <HAL_RCCEx_PeriphCLKConfig+0x300>)
 8003d4c:	6d9b      	ldr	r3, [r3, #88]	; 0x58
 8003d4e:	f423 0260 	bic.w	r2, r3, #14680064	; 0xe00000
 8003d52:	687b      	ldr	r3, [r7, #4]
 8003d54:	f8d3 30a4 	ldr.w	r3, [r3, #164]	; 0xa4
 8003d58:	4932      	ldr	r1, [pc, #200]	; (8003e24 <HAL_RCCEx_PeriphCLKConfig+0x300>)
 8003d5a:	4313      	orrs	r3, r2
 8003d5c:	658b      	str	r3, [r1, #88]	; 0x58
 8003d5e:	e001      	b.n	8003d64 <HAL_RCCEx_PeriphCLKConfig+0x240>
 8003d60:	7dfb      	ldrb	r3, [r7, #23]
 8003d62:	75bb      	strb	r3, [r7, #22]
 8003d64:	687b      	ldr	r3, [r7, #4]
 8003d66:	681b      	ldr	r3, [r3, #0]
 8003d68:	f403 6300 	and.w	r3, r3, #2048	; 0x800
 8003d6c:	2b00      	cmp	r3, #0
 8003d6e:	d044      	beq.n	8003dfa <HAL_RCCEx_PeriphCLKConfig+0x2d6>
 8003d70:	687b      	ldr	r3, [r7, #4]
 8003d72:	f8d3 30a8 	ldr.w	r3, [r3, #168]	; 0xa8
 8003d76:	f1b3 7f00 	cmp.w	r3, #33554432	; 0x2000000
 8003d7a:	d01f      	beq.n	8003dbc <HAL_RCCEx_PeriphCLKConfig+0x298>
 8003d7c:	f1b3 7f00 	cmp.w	r3, #33554432	; 0x2000000
 8003d80:	d805      	bhi.n	8003d8e <HAL_RCCEx_PeriphCLKConfig+0x26a>
 8003d82:	2b00      	cmp	r3, #0
 8003d84:	d00a      	beq.n	8003d9c <HAL_RCCEx_PeriphCLKConfig+0x278>
 8003d86:	f1b3 7f80 	cmp.w	r3, #16777216	; 0x1000000
 8003d8a:	d00e      	beq.n	8003daa <HAL_RCCEx_PeriphCLKConfig+0x286>
 8003d8c:	e01f      	b.n	8003dce <HAL_RCCEx_PeriphCLKConfig+0x2aa>
 8003d8e:	f1b3 7f40 	cmp.w	r3, #50331648	; 0x3000000
 8003d92:	d01f      	beq.n	8003dd4 <HAL_RCCEx_PeriphCLKConfig+0x2b0>
 8003d94:	f1b3 6f80 	cmp.w	r3, #67108864	; 0x4000000
 8003d98:	d01e      	beq.n	8003dd8 <HAL_RCCEx_PeriphCLKConfig+0x2b4>
 8003d9a:	e018      	b.n	8003dce <HAL_RCCEx_PeriphCLKConfig+0x2aa>
 8003d9c:	4b21      	ldr	r3, [pc, #132]	; (8003e24 <HAL_RCCEx_PeriphCLKConfig+0x300>)
 8003d9e:	6adb      	ldr	r3, [r3, #44]	; 0x2c
 8003da0:	4a20      	ldr	r2, [pc, #128]	; (8003e24 <HAL_RCCEx_PeriphCLKConfig+0x300>)
 8003da2:	f443 3300 	orr.w	r3, r3, #131072	; 0x20000
 8003da6:	62d3      	str	r3, [r2, #44]	; 0x2c
 8003da8:	e017      	b.n	8003dda <HAL_RCCEx_PeriphCLKConfig+0x2b6>
 8003daa:	687b      	ldr	r3, [r7, #4]
 8003dac:	3304      	adds	r3, #4
 8003dae:	2100      	movs	r1, #0
 8003db0:	4618      	mov	r0, r3
 8003db2:	f001 f853 	bl	8004e5c <RCCEx_PLL2_Config>
 8003db6:	4603      	mov	r3, r0
 8003db8:	75fb      	strb	r3, [r7, #23]
 8003dba:	e00e      	b.n	8003dda <HAL_RCCEx_PeriphCLKConfig+0x2b6>
 8003dbc:	687b      	ldr	r3, [r7, #4]
 8003dbe:	3324      	adds	r3, #36	; 0x24
 8003dc0:	2100      	movs	r1, #0
 8003dc2:	4618      	mov	r0, r3
 8003dc4:	f001 f8fc 	bl	8004fc0 <RCCEx_PLL3_Config>
 8003dc8:	4603      	mov	r3, r0
 8003dca:	75fb      	strb	r3, [r7, #23]
 8003dcc:	e005      	b.n	8003dda <HAL_RCCEx_PeriphCLKConfig+0x2b6>
 8003dce:	2301      	movs	r3, #1
 8003dd0:	75fb      	strb	r3, [r7, #23]
 8003dd2:	e002      	b.n	8003dda <HAL_RCCEx_PeriphCLKConfig+0x2b6>
 8003dd4:	bf00      	nop
 8003dd6:	e000      	b.n	8003dda <HAL_RCCEx_PeriphCLKConfig+0x2b6>
 8003dd8:	bf00      	nop
 8003dda:	7dfb      	ldrb	r3, [r7, #23]
 8003ddc:	2b00      	cmp	r3, #0
 8003dde:	d10a      	bne.n	8003df6 <HAL_RCCEx_PeriphCLKConfig+0x2d2>
 8003de0:	4b10      	ldr	r3, [pc, #64]	; (8003e24 <HAL_RCCEx_PeriphCLKConfig+0x300>)
 8003de2:	6d9b      	ldr	r3, [r3, #88]	; 0x58
 8003de4:	f023 62e0 	bic.w	r2, r3, #117440512	; 0x7000000
 8003de8:	687b      	ldr	r3, [r7, #4]
 8003dea:	f8d3 30a8 	ldr.w	r3, [r3, #168]	; 0xa8
 8003dee:	490d      	ldr	r1, [pc, #52]	; (8003e24 <HAL_RCCEx_PeriphCLKConfig+0x300>)
 8003df0:	4313      	orrs	r3, r2
 8003df2:	658b      	str	r3, [r1, #88]	; 0x58
 8003df4:	e001      	b.n	8003dfa <HAL_RCCEx_PeriphCLKConfig+0x2d6>
 8003df6:	7dfb      	ldrb	r3, [r7, #23]
 8003df8:	75bb      	strb	r3, [r7, #22]
 8003dfa:	687b      	ldr	r3, [r7, #4]
 8003dfc:	681b      	ldr	r3, [r3, #0]
 8003dfe:	f003 7300 	and.w	r3, r3, #33554432	; 0x2000000
 8003e02:	2b00      	cmp	r3, #0
 8003e04:	d035      	beq.n	8003e72 <HAL_RCCEx_PeriphCLKConfig+0x34e>
 8003e06:	687b      	ldr	r3, [r7, #4]
 8003e08:	6c9b      	ldr	r3, [r3, #72]	; 0x48
 8003e0a:	2b10      	cmp	r3, #16
 8003e0c:	d00c      	beq.n	8003e28 <HAL_RCCEx_PeriphCLKConfig+0x304>
 8003e0e:	2b10      	cmp	r3, #16
 8003e10:	d802      	bhi.n	8003e18 <HAL_RCCEx_PeriphCLKConfig+0x2f4>
 8003e12:	2b00      	cmp	r3, #0
 8003e14:	d01b      	beq.n	8003e4e <HAL_RCCEx_PeriphCLKConfig+0x32a>
 8003e16:	e017      	b.n	8003e48 <HAL_RCCEx_PeriphCLKConfig+0x324>
 8003e18:	2b20      	cmp	r3, #32
 8003e1a:	d00c      	beq.n	8003e36 <HAL_RCCEx_PeriphCLKConfig+0x312>
 8003e1c:	2b30      	cmp	r3, #48	; 0x30
 8003e1e:	d018      	beq.n	8003e52 <HAL_RCCEx_PeriphCLKConfig+0x32e>
 8003e20:	e012      	b.n	8003e48 <HAL_RCCEx_PeriphCLKConfig+0x324>
 8003e22:	bf00      	nop
 8003e24:	58024400 	.word	0x58024400
 8003e28:	4baf      	ldr	r3, [pc, #700]	; (80040e8 <HAL_RCCEx_PeriphCLKConfig+0x5c4>)
 8003e2a:	6adb      	ldr	r3, [r3, #44]	; 0x2c
 8003e2c:	4aae      	ldr	r2, [pc, #696]	; (80040e8 <HAL_RCCEx_PeriphCLKConfig+0x5c4>)
 8003e2e:	f443 3300 	orr.w	r3, r3, #131072	; 0x20000
 8003e32:	62d3      	str	r3, [r2, #44]	; 0x2c
 8003e34:	e00e      	b.n	8003e54 <HAL_RCCEx_PeriphCLKConfig+0x330>
 8003e36:	687b      	ldr	r3, [r7, #4]
 8003e38:	3304      	adds	r3, #4
 8003e3a:	2102      	movs	r1, #2
 8003e3c:	4618      	mov	r0, r3
 8003e3e:	f001 f80d 	bl	8004e5c <RCCEx_PLL2_Config>
 8003e42:	4603      	mov	r3, r0
 8003e44:	75fb      	strb	r3, [r7, #23]
 8003e46:	e005      	b.n	8003e54 <HAL_RCCEx_PeriphCLKConfig+0x330>
 8003e48:	2301      	movs	r3, #1
 8003e4a:	75fb      	strb	r3, [r7, #23]
 8003e4c:	e002      	b.n	8003e54 <HAL_RCCEx_PeriphCLKConfig+0x330>
 8003e4e:	bf00      	nop
 8003e50:	e000      	b.n	8003e54 <HAL_RCCEx_PeriphCLKConfig+0x330>
 8003e52:	bf00      	nop
 8003e54:	7dfb      	ldrb	r3, [r7, #23]
 8003e56:	2b00      	cmp	r3, #0
 8003e58:	d109      	bne.n	8003e6e <HAL_RCCEx_PeriphCLKConfig+0x34a>
 8003e5a:	4ba3      	ldr	r3, [pc, #652]	; (80040e8 <HAL_RCCEx_PeriphCLKConfig+0x5c4>)
 8003e5c:	6cdb      	ldr	r3, [r3, #76]	; 0x4c
 8003e5e:	f023 0230 	bic.w	r2, r3, #48	; 0x30
 8003e62:	687b      	ldr	r3, [r7, #4]
 8003e64:	6c9b      	ldr	r3, [r3, #72]	; 0x48
 8003e66:	49a0      	ldr	r1, [pc, #640]	; (80040e8 <HAL_RCCEx_PeriphCLKConfig+0x5c4>)
 8003e68:	4313      	orrs	r3, r2
 8003e6a:	64cb      	str	r3, [r1, #76]	; 0x4c
 8003e6c:	e001      	b.n	8003e72 <HAL_RCCEx_PeriphCLKConfig+0x34e>
 8003e6e:	7dfb      	ldrb	r3, [r7, #23]
 8003e70:	75bb      	strb	r3, [r7, #22]
 8003e72:	687b      	ldr	r3, [r7, #4]
 8003e74:	681b      	ldr	r3, [r3, #0]
 8003e76:	f403 5380 	and.w	r3, r3, #4096	; 0x1000
 8003e7a:	2b00      	cmp	r3, #0
 8003e7c:	d042      	beq.n	8003f04 <HAL_RCCEx_PeriphCLKConfig+0x3e0>
 8003e7e:	687b      	ldr	r3, [r7, #4]
 8003e80:	6ddb      	ldr	r3, [r3, #92]	; 0x5c
 8003e82:	f5b3 5f00 	cmp.w	r3, #8192	; 0x2000
 8003e86:	d01f      	beq.n	8003ec8 <HAL_RCCEx_PeriphCLKConfig+0x3a4>
 8003e88:	f5b3 5f00 	cmp.w	r3, #8192	; 0x2000
 8003e8c:	d805      	bhi.n	8003e9a <HAL_RCCEx_PeriphCLKConfig+0x376>
 8003e8e:	2b00      	cmp	r3, #0
 8003e90:	d00a      	beq.n	8003ea8 <HAL_RCCEx_PeriphCLKConfig+0x384>
 8003e92:	f5b3 5f80 	cmp.w	r3, #4096	; 0x1000
 8003e96:	d00e      	beq.n	8003eb6 <HAL_RCCEx_PeriphCLKConfig+0x392>
 8003e98:	e01f      	b.n	8003eda <HAL_RCCEx_PeriphCLKConfig+0x3b6>
 8003e9a:	f5b3 5f40 	cmp.w	r3, #12288	; 0x3000
 8003e9e:	d01f      	beq.n	8003ee0 <HAL_RCCEx_PeriphCLKConfig+0x3bc>
 8003ea0:	f5b3 4f80 	cmp.w	r3, #16384	; 0x4000
 8003ea4:	d01e      	beq.n	8003ee4 <HAL_RCCEx_PeriphCLKConfig+0x3c0>
 8003ea6:	e018      	b.n	8003eda <HAL_RCCEx_PeriphCLKConfig+0x3b6>
 8003ea8:	4b8f      	ldr	r3, [pc, #572]	; (80040e8 <HAL_RCCEx_PeriphCLKConfig+0x5c4>)
 8003eaa:	6adb      	ldr	r3, [r3, #44]	; 0x2c
 8003eac:	4a8e      	ldr	r2, [pc, #568]	; (80040e8 <HAL_RCCEx_PeriphCLKConfig+0x5c4>)
 8003eae:	f443 3300 	orr.w	r3, r3, #131072	; 0x20000
 8003eb2:	62d3      	str	r3, [r2, #44]	; 0x2c
 8003eb4:	e017      	b.n	8003ee6 <HAL_RCCEx_PeriphCLKConfig+0x3c2>
 8003eb6:	687b      	ldr	r3, [r7, #4]
 8003eb8:	3304      	adds	r3, #4
 8003eba:	2100      	movs	r1, #0
 8003ebc:	4618      	mov	r0, r3
 8003ebe:	f000 ffcd 	bl	8004e5c <RCCEx_PLL2_Config>
 8003ec2:	4603      	mov	r3, r0
 8003ec4:	75fb      	strb	r3, [r7, #23]
 8003ec6:	e00e      	b.n	8003ee6 <HAL_RCCEx_PeriphCLKConfig+0x3c2>
 8003ec8:	687b      	ldr	r3, [r7, #4]
 8003eca:	3324      	adds	r3, #36	; 0x24
 8003ecc:	2100      	movs	r1, #0
 8003ece:	4618      	mov	r0, r3
 8003ed0:	f001 f876 	bl	8004fc0 <RCCEx_PLL3_Config>
 8003ed4:	4603      	mov	r3, r0
 8003ed6:	75fb      	strb	r3, [r7, #23]
 8003ed8:	e005      	b.n	8003ee6 <HAL_RCCEx_PeriphCLKConfig+0x3c2>
 8003eda:	2301      	movs	r3, #1
 8003edc:	75fb      	strb	r3, [r7, #23]
 8003ede:	e002      	b.n	8003ee6 <HAL_RCCEx_PeriphCLKConfig+0x3c2>
 8003ee0:	bf00      	nop
 8003ee2:	e000      	b.n	8003ee6 <HAL_RCCEx_PeriphCLKConfig+0x3c2>
 8003ee4:	bf00      	nop
 8003ee6:	7dfb      	ldrb	r3, [r7, #23]
 8003ee8:	2b00      	cmp	r3, #0
 8003eea:	d109      	bne.n	8003f00 <HAL_RCCEx_PeriphCLKConfig+0x3dc>
 8003eec:	4b7e      	ldr	r3, [pc, #504]	; (80040e8 <HAL_RCCEx_PeriphCLKConfig+0x5c4>)
 8003eee:	6d1b      	ldr	r3, [r3, #80]	; 0x50
 8003ef0:	f423 42e0 	bic.w	r2, r3, #28672	; 0x7000
 8003ef4:	687b      	ldr	r3, [r7, #4]
 8003ef6:	6ddb      	ldr	r3, [r3, #92]	; 0x5c
 8003ef8:	497b      	ldr	r1, [pc, #492]	; (80040e8 <HAL_RCCEx_PeriphCLKConfig+0x5c4>)
 8003efa:	4313      	orrs	r3, r2
 8003efc:	650b      	str	r3, [r1, #80]	; 0x50
 8003efe:	e001      	b.n	8003f04 <HAL_RCCEx_PeriphCLKConfig+0x3e0>
 8003f00:	7dfb      	ldrb	r3, [r7, #23]
 8003f02:	75bb      	strb	r3, [r7, #22]
 8003f04:	687b      	ldr	r3, [r7, #4]
 8003f06:	681b      	ldr	r3, [r3, #0]
 8003f08:	f403 5300 	and.w	r3, r3, #8192	; 0x2000
 8003f0c:	2b00      	cmp	r3, #0
 8003f0e:	d042      	beq.n	8003f96 <HAL_RCCEx_PeriphCLKConfig+0x472>
 8003f10:	687b      	ldr	r3, [r7, #4]
 8003f12:	6e1b      	ldr	r3, [r3, #96]	; 0x60
 8003f14:	f5b3 3f00 	cmp.w	r3, #131072	; 0x20000
 8003f18:	d01b      	beq.n	8003f52 <HAL_RCCEx_PeriphCLKConfig+0x42e>
 8003f1a:	f5b3 3f00 	cmp.w	r3, #131072	; 0x20000
 8003f1e:	d805      	bhi.n	8003f2c <HAL_RCCEx_PeriphCLKConfig+0x408>
 8003f20:	2b00      	cmp	r3, #0
 8003f22:	d022      	beq.n	8003f6a <HAL_RCCEx_PeriphCLKConfig+0x446>
 8003f24:	f5b3 3f80 	cmp.w	r3, #65536	; 0x10000
 8003f28:	d00a      	beq.n	8003f40 <HAL_RCCEx_PeriphCLKConfig+0x41c>
 8003f2a:	e01b      	b.n	8003f64 <HAL_RCCEx_PeriphCLKConfig+0x440>
 8003f2c:	f5b3 2f80 	cmp.w	r3, #262144	; 0x40000
 8003f30:	d01d      	beq.n	8003f6e <HAL_RCCEx_PeriphCLKConfig+0x44a>
 8003f32:	f5b3 2fa0 	cmp.w	r3, #327680	; 0x50000
 8003f36:	d01c      	beq.n	8003f72 <HAL_RCCEx_PeriphCLKConfig+0x44e>
 8003f38:	f5b3 3f40 	cmp.w	r3, #196608	; 0x30000
 8003f3c:	d01b      	beq.n	8003f76 <HAL_RCCEx_PeriphCLKConfig+0x452>
 8003f3e:	e011      	b.n	8003f64 <HAL_RCCEx_PeriphCLKConfig+0x440>
 8003f40:	687b      	ldr	r3, [r7, #4]
 8003f42:	3304      	adds	r3, #4
 8003f44:	2101      	movs	r1, #1
 8003f46:	4618      	mov	r0, r3
 8003f48:	f000 ff88 	bl	8004e5c <RCCEx_PLL2_Config>
 8003f4c:	4603      	mov	r3, r0
 8003f4e:	75fb      	strb	r3, [r7, #23]
 8003f50:	e012      	b.n	8003f78 <HAL_RCCEx_PeriphCLKConfig+0x454>
 8003f52:	687b      	ldr	r3, [r7, #4]
 8003f54:	3324      	adds	r3, #36	; 0x24
 8003f56:	2101      	movs	r1, #1
 8003f58:	4618      	mov	r0, r3
 8003f5a:	f001 f831 	bl	8004fc0 <RCCEx_PLL3_Config>
 8003f5e:	4603      	mov	r3, r0
 8003f60:	75fb      	strb	r3, [r7, #23]
 8003f62:	e009      	b.n	8003f78 <HAL_RCCEx_PeriphCLKConfig+0x454>
 8003f64:	2301      	movs	r3, #1
 8003f66:	75fb      	strb	r3, [r7, #23]
 8003f68:	e006      	b.n	8003f78 <HAL_RCCEx_PeriphCLKConfig+0x454>
 8003f6a:	bf00      	nop
 8003f6c:	e004      	b.n	8003f78 <HAL_RCCEx_PeriphCLKConfig+0x454>
 8003f6e:	bf00      	nop
 8003f70:	e002      	b.n	8003f78 <HAL_RCCEx_PeriphCLKConfig+0x454>
 8003f72:	bf00      	nop
 8003f74:	e000      	b.n	8003f78 <HAL_RCCEx_PeriphCLKConfig+0x454>
 8003f76:	bf00      	nop
 8003f78:	7dfb      	ldrb	r3, [r7, #23]
 8003f7a:	2b00      	cmp	r3, #0
 8003f7c:	d109      	bne.n	8003f92 <HAL_RCCEx_PeriphCLKConfig+0x46e>
 8003f7e:	4b5a      	ldr	r3, [pc, #360]	; (80040e8 <HAL_RCCEx_PeriphCLKConfig+0x5c4>)
 8003f80:	6d1b      	ldr	r3, [r3, #80]	; 0x50
 8003f82:	f423 22e0 	bic.w	r2, r3, #458752	; 0x70000
 8003f86:	687b      	ldr	r3, [r7, #4]
 8003f88:	6e1b      	ldr	r3, [r3, #96]	; 0x60
 8003f8a:	4957      	ldr	r1, [pc, #348]	; (80040e8 <HAL_RCCEx_PeriphCLKConfig+0x5c4>)
 8003f8c:	4313      	orrs	r3, r2
 8003f8e:	650b      	str	r3, [r1, #80]	; 0x50
 8003f90:	e001      	b.n	8003f96 <HAL_RCCEx_PeriphCLKConfig+0x472>
 8003f92:	7dfb      	ldrb	r3, [r7, #23]
 8003f94:	75bb      	strb	r3, [r7, #22]
 8003f96:	687b      	ldr	r3, [r7, #4]
 8003f98:	681b      	ldr	r3, [r3, #0]
 8003f9a:	f403 4380 	and.w	r3, r3, #16384	; 0x4000
 8003f9e:	2b00      	cmp	r3, #0
 8003fa0:	d044      	beq.n	800402c <HAL_RCCEx_PeriphCLKConfig+0x508>
 8003fa2:	687b      	ldr	r3, [r7, #4]
 8003fa4:	f8d3 30ac 	ldr.w	r3, [r3, #172]	; 0xac
 8003fa8:	f1b3 5f00 	cmp.w	r3, #536870912	; 0x20000000
 8003fac:	d01b      	beq.n	8003fe6 <HAL_RCCEx_PeriphCLKConfig+0x4c2>
 8003fae:	f1b3 5f00 	cmp.w	r3, #536870912	; 0x20000000
 8003fb2:	d805      	bhi.n	8003fc0 <HAL_RCCEx_PeriphCLKConfig+0x49c>
 8003fb4:	2b00      	cmp	r3, #0
 8003fb6:	d022      	beq.n	8003ffe <HAL_RCCEx_PeriphCLKConfig+0x4da>
 8003fb8:	f1b3 5f80 	cmp.w	r3, #268435456	; 0x10000000
 8003fbc:	d00a      	beq.n	8003fd4 <HAL_RCCEx_PeriphCLKConfig+0x4b0>
 8003fbe:	e01b      	b.n	8003ff8 <HAL_RCCEx_PeriphCLKConfig+0x4d4>
 8003fc0:	f1b3 4f80 	cmp.w	r3, #1073741824	; 0x40000000
 8003fc4:	d01d      	beq.n	8004002 <HAL_RCCEx_PeriphCLKConfig+0x4de>
 8003fc6:	f1b3 4fa0 	cmp.w	r3, #1342177280	; 0x50000000
 8003fca:	d01c      	beq.n	8004006 <HAL_RCCEx_PeriphCLKConfig+0x4e2>
 8003fcc:	f1b3 5f40 	cmp.w	r3, #805306368	; 0x30000000
 8003fd0:	d01b      	beq.n	800400a <HAL_RCCEx_PeriphCLKConfig+0x4e6>
 8003fd2:	e011      	b.n	8003ff8 <HAL_RCCEx_PeriphCLKConfig+0x4d4>
 8003fd4:	687b      	ldr	r3, [r7, #4]
 8003fd6:	3304      	adds	r3, #4
 8003fd8:	2101      	movs	r1, #1
 8003fda:	4618      	mov	r0, r3
 8003fdc:	f000 ff3e 	bl	8004e5c <RCCEx_PLL2_Config>
 8003fe0:	4603      	mov	r3, r0
 8003fe2:	75fb      	strb	r3, [r7, #23]
 8003fe4:	e012      	b.n	800400c <HAL_RCCEx_PeriphCLKConfig+0x4e8>
 8003fe6:	687b      	ldr	r3, [r7, #4]
 8003fe8:	3324      	adds	r3, #36	; 0x24
 8003fea:	2101      	movs	r1, #1
 8003fec:	4618      	mov	r0, r3
 8003fee:	f000 ffe7 	bl	8004fc0 <RCCEx_PLL3_Config>
 8003ff2:	4603      	mov	r3, r0
 8003ff4:	75fb      	strb	r3, [r7, #23]
 8003ff6:	e009      	b.n	800400c <HAL_RCCEx_PeriphCLKConfig+0x4e8>
 8003ff8:	2301      	movs	r3, #1
 8003ffa:	75fb      	strb	r3, [r7, #23]
 8003ffc:	e006      	b.n	800400c <HAL_RCCEx_PeriphCLKConfig+0x4e8>
 8003ffe:	bf00      	nop
 8004000:	e004      	b.n	800400c <HAL_RCCEx_PeriphCLKConfig+0x4e8>
 8004002:	bf00      	nop
 8004004:	e002      	b.n	800400c <HAL_RCCEx_PeriphCLKConfig+0x4e8>
 8004006:	bf00      	nop
 8004008:	e000      	b.n	800400c <HAL_RCCEx_PeriphCLKConfig+0x4e8>
 800400a:	bf00      	nop
 800400c:	7dfb      	ldrb	r3, [r7, #23]
 800400e:	2b00      	cmp	r3, #0
 8004010:	d10a      	bne.n	8004028 <HAL_RCCEx_PeriphCLKConfig+0x504>
 8004012:	4b35      	ldr	r3, [pc, #212]	; (80040e8 <HAL_RCCEx_PeriphCLKConfig+0x5c4>)
 8004014:	6d9b      	ldr	r3, [r3, #88]	; 0x58
 8004016:	f023 42e0 	bic.w	r2, r3, #1879048192	; 0x70000000
 800401a:	687b      	ldr	r3, [r7, #4]
 800401c:	f8d3 30ac 	ldr.w	r3, [r3, #172]	; 0xac
 8004020:	4931      	ldr	r1, [pc, #196]	; (80040e8 <HAL_RCCEx_PeriphCLKConfig+0x5c4>)
 8004022:	4313      	orrs	r3, r2
 8004024:	658b      	str	r3, [r1, #88]	; 0x58
 8004026:	e001      	b.n	800402c <HAL_RCCEx_PeriphCLKConfig+0x508>
 8004028:	7dfb      	ldrb	r3, [r7, #23]
 800402a:	75bb      	strb	r3, [r7, #22]
 800402c:	687b      	ldr	r3, [r7, #4]
 800402e:	681b      	ldr	r3, [r3, #0]
 8004030:	f403 4300 	and.w	r3, r3, #32768	; 0x8000
 8004034:	2b00      	cmp	r3, #0
 8004036:	d02d      	beq.n	8004094 <HAL_RCCEx_PeriphCLKConfig+0x570>
 8004038:	687b      	ldr	r3, [r7, #4]
 800403a:	6edb      	ldr	r3, [r3, #108]	; 0x6c
 800403c:	f1b3 5f80 	cmp.w	r3, #268435456	; 0x10000000
 8004040:	d005      	beq.n	800404e <HAL_RCCEx_PeriphCLKConfig+0x52a>
 8004042:	f1b3 5f00 	cmp.w	r3, #536870912	; 0x20000000
 8004046:	d009      	beq.n	800405c <HAL_RCCEx_PeriphCLKConfig+0x538>
 8004048:	2b00      	cmp	r3, #0
 800404a:	d013      	beq.n	8004074 <HAL_RCCEx_PeriphCLKConfig+0x550>
 800404c:	e00f      	b.n	800406e <HAL_RCCEx_PeriphCLKConfig+0x54a>
 800404e:	4b26      	ldr	r3, [pc, #152]	; (80040e8 <HAL_RCCEx_PeriphCLKConfig+0x5c4>)
 8004050:	6adb      	ldr	r3, [r3, #44]	; 0x2c
 8004052:	4a25      	ldr	r2, [pc, #148]	; (80040e8 <HAL_RCCEx_PeriphCLKConfig+0x5c4>)
 8004054:	f443 3300 	orr.w	r3, r3, #131072	; 0x20000
 8004058:	62d3      	str	r3, [r2, #44]	; 0x2c
 800405a:	e00c      	b.n	8004076 <HAL_RCCEx_PeriphCLKConfig+0x552>
 800405c:	687b      	ldr	r3, [r7, #4]
 800405e:	3304      	adds	r3, #4
 8004060:	2101      	movs	r1, #1
 8004062:	4618      	mov	r0, r3
 8004064:	f000 fefa 	bl	8004e5c <RCCEx_PLL2_Config>
 8004068:	4603      	mov	r3, r0
 800406a:	75fb      	strb	r3, [r7, #23]
 800406c:	e003      	b.n	8004076 <HAL_RCCEx_PeriphCLKConfig+0x552>
 800406e:	2301      	movs	r3, #1
 8004070:	75fb      	strb	r3, [r7, #23]
 8004072:	e000      	b.n	8004076 <HAL_RCCEx_PeriphCLKConfig+0x552>
 8004074:	bf00      	nop
 8004076:	7dfb      	ldrb	r3, [r7, #23]
 8004078:	2b00      	cmp	r3, #0
 800407a:	d109      	bne.n	8004090 <HAL_RCCEx_PeriphCLKConfig+0x56c>
 800407c:	4b1a      	ldr	r3, [pc, #104]	; (80040e8 <HAL_RCCEx_PeriphCLKConfig+0x5c4>)
 800407e:	6d1b      	ldr	r3, [r3, #80]	; 0x50
 8004080:	f023 5240 	bic.w	r2, r3, #805306368	; 0x30000000
 8004084:	687b      	ldr	r3, [r7, #4]
 8004086:	6edb      	ldr	r3, [r3, #108]	; 0x6c
 8004088:	4917      	ldr	r1, [pc, #92]	; (80040e8 <HAL_RCCEx_PeriphCLKConfig+0x5c4>)
 800408a:	4313      	orrs	r3, r2
 800408c:	650b      	str	r3, [r1, #80]	; 0x50
 800408e:	e001      	b.n	8004094 <HAL_RCCEx_PeriphCLKConfig+0x570>
 8004090:	7dfb      	ldrb	r3, [r7, #23]
 8004092:	75bb      	strb	r3, [r7, #22]
 8004094:	687b      	ldr	r3, [r7, #4]
 8004096:	681b      	ldr	r3, [r3, #0]
 8004098:	f003 7380 	and.w	r3, r3, #16777216	; 0x1000000
 800409c:	2b00      	cmp	r3, #0
 800409e:	d035      	beq.n	800410c <HAL_RCCEx_PeriphCLKConfig+0x5e8>
 80040a0:	687b      	ldr	r3, [r7, #4]
 80040a2:	6c5b      	ldr	r3, [r3, #68]	; 0x44
 80040a4:	2b03      	cmp	r3, #3
 80040a6:	d81b      	bhi.n	80040e0 <HAL_RCCEx_PeriphCLKConfig+0x5bc>
 80040a8:	a201      	add	r2, pc, #4	; (adr r2, 80040b0 <HAL_RCCEx_PeriphCLKConfig+0x58c>)
 80040aa:	f852 f023 	ldr.w	pc, [r2, r3, lsl #2]
 80040ae:	bf00      	nop
 80040b0:	080040ed 	.word	0x080040ed
 80040b4:	080040c1 	.word	0x080040c1
 80040b8:	080040cf 	.word	0x080040cf
 80040bc:	080040ed 	.word	0x080040ed
 80040c0:	4b09      	ldr	r3, [pc, #36]	; (80040e8 <HAL_RCCEx_PeriphCLKConfig+0x5c4>)
 80040c2:	6adb      	ldr	r3, [r3, #44]	; 0x2c
 80040c4:	4a08      	ldr	r2, [pc, #32]	; (80040e8 <HAL_RCCEx_PeriphCLKConfig+0x5c4>)
 80040c6:	f443 3300 	orr.w	r3, r3, #131072	; 0x20000
 80040ca:	62d3      	str	r3, [r2, #44]	; 0x2c
 80040cc:	e00f      	b.n	80040ee <HAL_RCCEx_PeriphCLKConfig+0x5ca>
 80040ce:	687b      	ldr	r3, [r7, #4]
 80040d0:	3304      	adds	r3, #4
 80040d2:	2102      	movs	r1, #2
 80040d4:	4618      	mov	r0, r3
 80040d6:	f000 fec1 	bl	8004e5c <RCCEx_PLL2_Config>
 80040da:	4603      	mov	r3, r0
 80040dc:	75fb      	strb	r3, [r7, #23]
 80040de:	e006      	b.n	80040ee <HAL_RCCEx_PeriphCLKConfig+0x5ca>
 80040e0:	2301      	movs	r3, #1
 80040e2:	75fb      	strb	r3, [r7, #23]
 80040e4:	e003      	b.n	80040ee <HAL_RCCEx_PeriphCLKConfig+0x5ca>
 80040e6:	bf00      	nop
 80040e8:	58024400 	.word	0x58024400
 80040ec:	bf00      	nop
 80040ee:	7dfb      	ldrb	r3, [r7, #23]
 80040f0:	2b00      	cmp	r3, #0
 80040f2:	d109      	bne.n	8004108 <HAL_RCCEx_PeriphCLKConfig+0x5e4>
 80040f4:	4bba      	ldr	r3, [pc, #744]	; (80043e0 <HAL_RCCEx_PeriphCLKConfig+0x8bc>)
 80040f6:	6cdb      	ldr	r3, [r3, #76]	; 0x4c
 80040f8:	f023 0203 	bic.w	r2, r3, #3
 80040fc:	687b      	ldr	r3, [r7, #4]
 80040fe:	6c5b      	ldr	r3, [r3, #68]	; 0x44
 8004100:	49b7      	ldr	r1, [pc, #732]	; (80043e0 <HAL_RCCEx_PeriphCLKConfig+0x8bc>)
 8004102:	4313      	orrs	r3, r2
 8004104:	64cb      	str	r3, [r1, #76]	; 0x4c
 8004106:	e001      	b.n	800410c <HAL_RCCEx_PeriphCLKConfig+0x5e8>
 8004108:	7dfb      	ldrb	r3, [r7, #23]
 800410a:	75bb      	strb	r3, [r7, #22]
 800410c:	687b      	ldr	r3, [r7, #4]
 800410e:	681b      	ldr	r3, [r3, #0]
 8004110:	f403 0380 	and.w	r3, r3, #4194304	; 0x400000
 8004114:	2b00      	cmp	r3, #0
 8004116:	f000 8086 	beq.w	8004226 <HAL_RCCEx_PeriphCLKConfig+0x702>
 800411a:	4bb2      	ldr	r3, [pc, #712]	; (80043e4 <HAL_RCCEx_PeriphCLKConfig+0x8c0>)
 800411c:	681b      	ldr	r3, [r3, #0]
 800411e:	4ab1      	ldr	r2, [pc, #708]	; (80043e4 <HAL_RCCEx_PeriphCLKConfig+0x8c0>)
 8004120:	f443 7380 	orr.w	r3, r3, #256	; 0x100
 8004124:	6013      	str	r3, [r2, #0]
 8004126:	f7fd f903 	bl	8001330 <HAL_GetTick>
 800412a:	6138      	str	r0, [r7, #16]
 800412c:	e009      	b.n	8004142 <HAL_RCCEx_PeriphCLKConfig+0x61e>
 800412e:	f7fd f8ff 	bl	8001330 <HAL_GetTick>
 8004132:	4602      	mov	r2, r0
 8004134:	693b      	ldr	r3, [r7, #16]
 8004136:	1ad3      	subs	r3, r2, r3
 8004138:	2b64      	cmp	r3, #100	; 0x64
 800413a:	d902      	bls.n	8004142 <HAL_RCCEx_PeriphCLKConfig+0x61e>
 800413c:	2303      	movs	r3, #3
 800413e:	75fb      	strb	r3, [r7, #23]
 8004140:	e005      	b.n	800414e <HAL_RCCEx_PeriphCLKConfig+0x62a>
 8004142:	4ba8      	ldr	r3, [pc, #672]	; (80043e4 <HAL_RCCEx_PeriphCLKConfig+0x8c0>)
 8004144:	681b      	ldr	r3, [r3, #0]
 8004146:	f403 7380 	and.w	r3, r3, #256	; 0x100
 800414a:	2b00      	cmp	r3, #0
 800414c:	d0ef      	beq.n	800412e <HAL_RCCEx_PeriphCLKConfig+0x60a>
 800414e:	7dfb      	ldrb	r3, [r7, #23]
 8004150:	2b00      	cmp	r3, #0
 8004152:	d166      	bne.n	8004222 <HAL_RCCEx_PeriphCLKConfig+0x6fe>
 8004154:	4ba2      	ldr	r3, [pc, #648]	; (80043e0 <HAL_RCCEx_PeriphCLKConfig+0x8bc>)
 8004156:	6f1a      	ldr	r2, [r3, #112]	; 0x70
 8004158:	687b      	ldr	r3, [r7, #4]
 800415a:	f8d3 30b0 	ldr.w	r3, [r3, #176]	; 0xb0
 800415e:	4053      	eors	r3, r2
 8004160:	f403 7340 	and.w	r3, r3, #768	; 0x300
 8004164:	2b00      	cmp	r3, #0
 8004166:	d013      	beq.n	8004190 <HAL_RCCEx_PeriphCLKConfig+0x66c>
 8004168:	4b9d      	ldr	r3, [pc, #628]	; (80043e0 <HAL_RCCEx_PeriphCLKConfig+0x8bc>)
 800416a:	6f1b      	ldr	r3, [r3, #112]	; 0x70
 800416c:	f423 7340 	bic.w	r3, r3, #768	; 0x300
 8004170:	60fb      	str	r3, [r7, #12]
 8004172:	4b9b      	ldr	r3, [pc, #620]	; (80043e0 <HAL_RCCEx_PeriphCLKConfig+0x8bc>)
 8004174:	6f1b      	ldr	r3, [r3, #112]	; 0x70
 8004176:	4a9a      	ldr	r2, [pc, #616]	; (80043e0 <HAL_RCCEx_PeriphCLKConfig+0x8bc>)
 8004178:	f443 3380 	orr.w	r3, r3, #65536	; 0x10000
 800417c:	6713      	str	r3, [r2, #112]	; 0x70
 800417e:	4b98      	ldr	r3, [pc, #608]	; (80043e0 <HAL_RCCEx_PeriphCLKConfig+0x8bc>)
 8004180:	6f1b      	ldr	r3, [r3, #112]	; 0x70
 8004182:	4a97      	ldr	r2, [pc, #604]	; (80043e0 <HAL_RCCEx_PeriphCLKConfig+0x8bc>)
 8004184:	f423 3380 	bic.w	r3, r3, #65536	; 0x10000
 8004188:	6713      	str	r3, [r2, #112]	; 0x70
 800418a:	4a95      	ldr	r2, [pc, #596]	; (80043e0 <HAL_RCCEx_PeriphCLKConfig+0x8bc>)
 800418c:	68fb      	ldr	r3, [r7, #12]
 800418e:	6713      	str	r3, [r2, #112]	; 0x70
 8004190:	687b      	ldr	r3, [r7, #4]
 8004192:	f8d3 30b0 	ldr.w	r3, [r3, #176]	; 0xb0
 8004196:	f5b3 7f80 	cmp.w	r3, #256	; 0x100
 800419a:	d115      	bne.n	80041c8 <HAL_RCCEx_PeriphCLKConfig+0x6a4>
 800419c:	f7fd f8c8 	bl	8001330 <HAL_GetTick>
 80041a0:	6138      	str	r0, [r7, #16]
 80041a2:	e00b      	b.n	80041bc <HAL_RCCEx_PeriphCLKConfig+0x698>
 80041a4:	f7fd f8c4 	bl	8001330 <HAL_GetTick>
 80041a8:	4602      	mov	r2, r0
 80041aa:	693b      	ldr	r3, [r7, #16]
 80041ac:	1ad3      	subs	r3, r2, r3
 80041ae:	f241 3288 	movw	r2, #5000	; 0x1388
 80041b2:	4293      	cmp	r3, r2
 80041b4:	d902      	bls.n	80041bc <HAL_RCCEx_PeriphCLKConfig+0x698>
 80041b6:	2303      	movs	r3, #3
 80041b8:	75fb      	strb	r3, [r7, #23]
 80041ba:	e005      	b.n	80041c8 <HAL_RCCEx_PeriphCLKConfig+0x6a4>
 80041bc:	4b88      	ldr	r3, [pc, #544]	; (80043e0 <HAL_RCCEx_PeriphCLKConfig+0x8bc>)
 80041be:	6f1b      	ldr	r3, [r3, #112]	; 0x70
 80041c0:	f003 0302 	and.w	r3, r3, #2
 80041c4:	2b00      	cmp	r3, #0
 80041c6:	d0ed      	beq.n	80041a4 <HAL_RCCEx_PeriphCLKConfig+0x680>
 80041c8:	7dfb      	ldrb	r3, [r7, #23]
 80041ca:	2b00      	cmp	r3, #0
 80041cc:	d126      	bne.n	800421c <HAL_RCCEx_PeriphCLKConfig+0x6f8>
 80041ce:	687b      	ldr	r3, [r7, #4]
 80041d0:	f8d3 30b0 	ldr.w	r3, [r3, #176]	; 0xb0
 80041d4:	f403 7340 	and.w	r3, r3, #768	; 0x300
 80041d8:	f5b3 7f40 	cmp.w	r3, #768	; 0x300
 80041dc:	d10d      	bne.n	80041fa <HAL_RCCEx_PeriphCLKConfig+0x6d6>
 80041de:	4b80      	ldr	r3, [pc, #512]	; (80043e0 <HAL_RCCEx_PeriphCLKConfig+0x8bc>)
 80041e0:	691b      	ldr	r3, [r3, #16]
 80041e2:	f423 527c 	bic.w	r2, r3, #16128	; 0x3f00
 80041e6:	687b      	ldr	r3, [r7, #4]
 80041e8:	f8d3 30b0 	ldr.w	r3, [r3, #176]	; 0xb0
 80041ec:	0919      	lsrs	r1, r3, #4
 80041ee:	4b7e      	ldr	r3, [pc, #504]	; (80043e8 <HAL_RCCEx_PeriphCLKConfig+0x8c4>)
 80041f0:	400b      	ands	r3, r1
 80041f2:	497b      	ldr	r1, [pc, #492]	; (80043e0 <HAL_RCCEx_PeriphCLKConfig+0x8bc>)
 80041f4:	4313      	orrs	r3, r2
 80041f6:	610b      	str	r3, [r1, #16]
 80041f8:	e005      	b.n	8004206 <HAL_RCCEx_PeriphCLKConfig+0x6e2>
 80041fa:	4b79      	ldr	r3, [pc, #484]	; (80043e0 <HAL_RCCEx_PeriphCLKConfig+0x8bc>)
 80041fc:	691b      	ldr	r3, [r3, #16]
 80041fe:	4a78      	ldr	r2, [pc, #480]	; (80043e0 <HAL_RCCEx_PeriphCLKConfig+0x8bc>)
 8004200:	f423 537c 	bic.w	r3, r3, #16128	; 0x3f00
 8004204:	6113      	str	r3, [r2, #16]
 8004206:	4b76      	ldr	r3, [pc, #472]	; (80043e0 <HAL_RCCEx_PeriphCLKConfig+0x8bc>)
 8004208:	6f1a      	ldr	r2, [r3, #112]	; 0x70
 800420a:	687b      	ldr	r3, [r7, #4]
 800420c:	f8d3 30b0 	ldr.w	r3, [r3, #176]	; 0xb0
 8004210:	f3c3 030b 	ubfx	r3, r3, #0, #12
 8004214:	4972      	ldr	r1, [pc, #456]	; (80043e0 <HAL_RCCEx_PeriphCLKConfig+0x8bc>)
 8004216:	4313      	orrs	r3, r2
 8004218:	670b      	str	r3, [r1, #112]	; 0x70
 800421a:	e004      	b.n	8004226 <HAL_RCCEx_PeriphCLKConfig+0x702>
 800421c:	7dfb      	ldrb	r3, [r7, #23]
 800421e:	75bb      	strb	r3, [r7, #22]
 8004220:	e001      	b.n	8004226 <HAL_RCCEx_PeriphCLKConfig+0x702>
 8004222:	7dfb      	ldrb	r3, [r7, #23]
 8004224:	75bb      	strb	r3, [r7, #22]
 8004226:	687b      	ldr	r3, [r7, #4]
 8004228:	681b      	ldr	r3, [r3, #0]
 800422a:	f003 0301 	and.w	r3, r3, #1
 800422e:	2b00      	cmp	r3, #0
 8004230:	d07d      	beq.n	800432e <HAL_RCCEx_PeriphCLKConfig+0x80a>
 8004232:	687b      	ldr	r3, [r7, #4]
 8004234:	6f9b      	ldr	r3, [r3, #120]	; 0x78
 8004236:	2b28      	cmp	r3, #40	; 0x28
 8004238:	d866      	bhi.n	8004308 <HAL_RCCEx_PeriphCLKConfig+0x7e4>
 800423a:	a201      	add	r2, pc, #4	; (adr r2, 8004240 <HAL_RCCEx_PeriphCLKConfig+0x71c>)
 800423c:	f852 f023 	ldr.w	pc, [r2, r3, lsl #2]
 8004240:	0800430f 	.word	0x0800430f
 8004244:	08004309 	.word	0x08004309
 8004248:	08004309 	.word	0x08004309
 800424c:	08004309 	.word	0x08004309
 8004250:	08004309 	.word	0x08004309
 8004254:	08004309 	.word	0x08004309
 8004258:	08004309 	.word	0x08004309
 800425c:	08004309 	.word	0x08004309
 8004260:	080042e5 	.word	0x080042e5
 8004264:	08004309 	.word	0x08004309
 8004268:	08004309 	.word	0x08004309
 800426c:	08004309 	.word	0x08004309
 8004270:	08004309 	.word	0x08004309
 8004274:	08004309 	.word	0x08004309
 8004278:	08004309 	.word	0x08004309
 800427c:	08004309 	.word	0x08004309
 8004280:	080042f7 	.word	0x080042f7
 8004284:	08004309 	.word	0x08004309
 8004288:	08004309 	.word	0x08004309
 800428c:	08004309 	.word	0x08004309
 8004290:	08004309 	.word	0x08004309
 8004294:	08004309 	.word	0x08004309
 8004298:	08004309 	.word	0x08004309
 800429c:	08004309 	.word	0x08004309
 80042a0:	0800430f 	.word	0x0800430f
 80042a4:	08004309 	.word	0x08004309
 80042a8:	08004309 	.word	0x08004309
 80042ac:	08004309 	.word	0x08004309
 80042b0:	08004309 	.word	0x08004309
 80042b4:	08004309 	.word	0x08004309
 80042b8:	08004309 	.word	0x08004309
 80042bc:	08004309 	.word	0x08004309
 80042c0:	0800430f 	.word	0x0800430f
 80042c4:	08004309 	.word	0x08004309
 80042c8:	08004309 	.word	0x08004309
 80042cc:	08004309 	.word	0x08004309
 80042d0:	08004309 	.word	0x08004309
 80042d4:	08004309 	.word	0x08004309
 80042d8:	08004309 	.word	0x08004309
 80042dc:	08004309 	.word	0x08004309
 80042e0:	0800430f 	.word	0x0800430f
 80042e4:	687b      	ldr	r3, [r7, #4]
 80042e6:	3304      	adds	r3, #4
 80042e8:	2101      	movs	r1, #1
 80042ea:	4618      	mov	r0, r3
 80042ec:	f000 fdb6 	bl	8004e5c <RCCEx_PLL2_Config>
 80042f0:	4603      	mov	r3, r0
 80042f2:	75fb      	strb	r3, [r7, #23]
 80042f4:	e00c      	b.n	8004310 <HAL_RCCEx_PeriphCLKConfig+0x7ec>
 80042f6:	687b      	ldr	r3, [r7, #4]
 80042f8:	3324      	adds	r3, #36	; 0x24
 80042fa:	2101      	movs	r1, #1
 80042fc:	4618      	mov	r0, r3
 80042fe:	f000 fe5f 	bl	8004fc0 <RCCEx_PLL3_Config>
 8004302:	4603      	mov	r3, r0
 8004304:	75fb      	strb	r3, [r7, #23]
 8004306:	e003      	b.n	8004310 <HAL_RCCEx_PeriphCLKConfig+0x7ec>
 8004308:	2301      	movs	r3, #1
 800430a:	75fb      	strb	r3, [r7, #23]
 800430c:	e000      	b.n	8004310 <HAL_RCCEx_PeriphCLKConfig+0x7ec>
 800430e:	bf00      	nop
 8004310:	7dfb      	ldrb	r3, [r7, #23]
 8004312:	2b00      	cmp	r3, #0
 8004314:	d109      	bne.n	800432a <HAL_RCCEx_PeriphCLKConfig+0x806>
 8004316:	4b32      	ldr	r3, [pc, #200]	; (80043e0 <HAL_RCCEx_PeriphCLKConfig+0x8bc>)
 8004318:	6d5b      	ldr	r3, [r3, #84]	; 0x54
 800431a:	f023 0238 	bic.w	r2, r3, #56	; 0x38
 800431e:	687b      	ldr	r3, [r7, #4]
 8004320:	6f9b      	ldr	r3, [r3, #120]	; 0x78
 8004322:	492f      	ldr	r1, [pc, #188]	; (80043e0 <HAL_RCCEx_PeriphCLKConfig+0x8bc>)
 8004324:	4313      	orrs	r3, r2
 8004326:	654b      	str	r3, [r1, #84]	; 0x54
 8004328:	e001      	b.n	800432e <HAL_RCCEx_PeriphCLKConfig+0x80a>
 800432a:	7dfb      	ldrb	r3, [r7, #23]
 800432c:	75bb      	strb	r3, [r7, #22]
 800432e:	687b      	ldr	r3, [r7, #4]
 8004330:	681b      	ldr	r3, [r3, #0]
 8004332:	f003 0302 	and.w	r3, r3, #2
 8004336:	2b00      	cmp	r3, #0
 8004338:	d037      	beq.n	80043aa <HAL_RCCEx_PeriphCLKConfig+0x886>
 800433a:	687b      	ldr	r3, [r7, #4]
 800433c:	6f5b      	ldr	r3, [r3, #116]	; 0x74
 800433e:	2b05      	cmp	r3, #5
 8004340:	d820      	bhi.n	8004384 <HAL_RCCEx_PeriphCLKConfig+0x860>
 8004342:	a201      	add	r2, pc, #4	; (adr r2, 8004348 <HAL_RCCEx_PeriphCLKConfig+0x824>)
 8004344:	f852 f023 	ldr.w	pc, [r2, r3, lsl #2]
 8004348:	0800438b 	.word	0x0800438b
 800434c:	08004361 	.word	0x08004361
 8004350:	08004373 	.word	0x08004373
 8004354:	0800438b 	.word	0x0800438b
 8004358:	0800438b 	.word	0x0800438b
 800435c:	0800438b 	.word	0x0800438b
 8004360:	687b      	ldr	r3, [r7, #4]
 8004362:	3304      	adds	r3, #4
 8004364:	2101      	movs	r1, #1
 8004366:	4618      	mov	r0, r3
 8004368:	f000 fd78 	bl	8004e5c <RCCEx_PLL2_Config>
 800436c:	4603      	mov	r3, r0
 800436e:	75fb      	strb	r3, [r7, #23]
 8004370:	e00c      	b.n	800438c <HAL_RCCEx_PeriphCLKConfig+0x868>
 8004372:	687b      	ldr	r3, [r7, #4]
 8004374:	3324      	adds	r3, #36	; 0x24
 8004376:	2101      	movs	r1, #1
 8004378:	4618      	mov	r0, r3
 800437a:	f000 fe21 	bl	8004fc0 <RCCEx_PLL3_Config>
 800437e:	4603      	mov	r3, r0
 8004380:	75fb      	strb	r3, [r7, #23]
 8004382:	e003      	b.n	800438c <HAL_RCCEx_PeriphCLKConfig+0x868>
 8004384:	2301      	movs	r3, #1
 8004386:	75fb      	strb	r3, [r7, #23]
 8004388:	e000      	b.n	800438c <HAL_RCCEx_PeriphCLKConfig+0x868>
 800438a:	bf00      	nop
 800438c:	7dfb      	ldrb	r3, [r7, #23]
 800438e:	2b00      	cmp	r3, #0
 8004390:	d109      	bne.n	80043a6 <HAL_RCCEx_PeriphCLKConfig+0x882>
 8004392:	4b13      	ldr	r3, [pc, #76]	; (80043e0 <HAL_RCCEx_PeriphCLKConfig+0x8bc>)
 8004394:	6d5b      	ldr	r3, [r3, #84]	; 0x54
 8004396:	f023 0207 	bic.w	r2, r3, #7
 800439a:	687b      	ldr	r3, [r7, #4]
 800439c:	6f5b      	ldr	r3, [r3, #116]	; 0x74
 800439e:	4910      	ldr	r1, [pc, #64]	; (80043e0 <HAL_RCCEx_PeriphCLKConfig+0x8bc>)
 80043a0:	4313      	orrs	r3, r2
 80043a2:	654b      	str	r3, [r1, #84]	; 0x54
 80043a4:	e001      	b.n	80043aa <HAL_RCCEx_PeriphCLKConfig+0x886>
 80043a6:	7dfb      	ldrb	r3, [r7, #23]
 80043a8:	75bb      	strb	r3, [r7, #22]
 80043aa:	687b      	ldr	r3, [r7, #4]
 80043ac:	681b      	ldr	r3, [r3, #0]
 80043ae:	f003 0304 	and.w	r3, r3, #4
 80043b2:	2b00      	cmp	r3, #0
 80043b4:	d040      	beq.n	8004438 <HAL_RCCEx_PeriphCLKConfig+0x914>
 80043b6:	687b      	ldr	r3, [r7, #4]
 80043b8:	f8d3 3090 	ldr.w	r3, [r3, #144]	; 0x90
 80043bc:	2b05      	cmp	r3, #5
 80043be:	d827      	bhi.n	8004410 <HAL_RCCEx_PeriphCLKConfig+0x8ec>
 80043c0:	a201      	add	r2, pc, #4	; (adr r2, 80043c8 <HAL_RCCEx_PeriphCLKConfig+0x8a4>)
 80043c2:	f852 f023 	ldr.w	pc, [r2, r3, lsl #2]
 80043c6:	bf00      	nop
 80043c8:	08004417 	.word	0x08004417
 80043cc:	080043ed 	.word	0x080043ed
 80043d0:	080043ff 	.word	0x080043ff
 80043d4:	08004417 	.word	0x08004417
 80043d8:	08004417 	.word	0x08004417
 80043dc:	08004417 	.word	0x08004417
 80043e0:	58024400 	.word	0x58024400
 80043e4:	58024800 	.word	0x58024800
 80043e8:	00ffffcf 	.word	0x00ffffcf
 80043ec:	687b      	ldr	r3, [r7, #4]
 80043ee:	3304      	adds	r3, #4
 80043f0:	2101      	movs	r1, #1
 80043f2:	4618      	mov	r0, r3
 80043f4:	f000 fd32 	bl	8004e5c <RCCEx_PLL2_Config>
 80043f8:	4603      	mov	r3, r0
 80043fa:	75fb      	strb	r3, [r7, #23]
 80043fc:	e00c      	b.n	8004418 <HAL_RCCEx_PeriphCLKConfig+0x8f4>
 80043fe:	687b      	ldr	r3, [r7, #4]
 8004400:	3324      	adds	r3, #36	; 0x24
 8004402:	2101      	movs	r1, #1
 8004404:	4618      	mov	r0, r3
 8004406:	f000 fddb 	bl	8004fc0 <RCCEx_PLL3_Config>
 800440a:	4603      	mov	r3, r0
 800440c:	75fb      	strb	r3, [r7, #23]
 800440e:	e003      	b.n	8004418 <HAL_RCCEx_PeriphCLKConfig+0x8f4>
 8004410:	2301      	movs	r3, #1
 8004412:	75fb      	strb	r3, [r7, #23]
 8004414:	e000      	b.n	8004418 <HAL_RCCEx_PeriphCLKConfig+0x8f4>
 8004416:	bf00      	nop
 8004418:	7dfb      	ldrb	r3, [r7, #23]
 800441a:	2b00      	cmp	r3, #0
 800441c:	d10a      	bne.n	8004434 <HAL_RCCEx_PeriphCLKConfig+0x910>
 800441e:	4bb2      	ldr	r3, [pc, #712]	; (80046e8 <HAL_RCCEx_PeriphCLKConfig+0xbc4>)
 8004420:	6d9b      	ldr	r3, [r3, #88]	; 0x58
 8004422:	f023 0207 	bic.w	r2, r3, #7
 8004426:	687b      	ldr	r3, [r7, #4]
 8004428:	f8d3 3090 	ldr.w	r3, [r3, #144]	; 0x90
 800442c:	49ae      	ldr	r1, [pc, #696]	; (80046e8 <HAL_RCCEx_PeriphCLKConfig+0xbc4>)
 800442e:	4313      	orrs	r3, r2
 8004430:	658b      	str	r3, [r1, #88]	; 0x58
 8004432:	e001      	b.n	8004438 <HAL_RCCEx_PeriphCLKConfig+0x914>
 8004434:	7dfb      	ldrb	r3, [r7, #23]
 8004436:	75bb      	strb	r3, [r7, #22]
 8004438:	687b      	ldr	r3, [r7, #4]
 800443a:	681b      	ldr	r3, [r3, #0]
 800443c:	f003 0320 	and.w	r3, r3, #32
 8004440:	2b00      	cmp	r3, #0
 8004442:	d044      	beq.n	80044ce <HAL_RCCEx_PeriphCLKConfig+0x9aa>
 8004444:	687b      	ldr	r3, [r7, #4]
 8004446:	f8d3 308c 	ldr.w	r3, [r3, #140]	; 0x8c
 800444a:	f1b3 5f00 	cmp.w	r3, #536870912	; 0x20000000
 800444e:	d01b      	beq.n	8004488 <HAL_RCCEx_PeriphCLKConfig+0x964>
 8004450:	f1b3 5f00 	cmp.w	r3, #536870912	; 0x20000000
 8004454:	d805      	bhi.n	8004462 <HAL_RCCEx_PeriphCLKConfig+0x93e>
 8004456:	2b00      	cmp	r3, #0
 8004458:	d022      	beq.n	80044a0 <HAL_RCCEx_PeriphCLKConfig+0x97c>
 800445a:	f1b3 5f80 	cmp.w	r3, #268435456	; 0x10000000
 800445e:	d00a      	beq.n	8004476 <HAL_RCCEx_PeriphCLKConfig+0x952>
 8004460:	e01b      	b.n	800449a <HAL_RCCEx_PeriphCLKConfig+0x976>
 8004462:	f1b3 4f80 	cmp.w	r3, #1073741824	; 0x40000000
 8004466:	d01d      	beq.n	80044a4 <HAL_RCCEx_PeriphCLKConfig+0x980>
 8004468:	f1b3 4fa0 	cmp.w	r3, #1342177280	; 0x50000000
 800446c:	d01c      	beq.n	80044a8 <HAL_RCCEx_PeriphCLKConfig+0x984>
 800446e:	f1b3 5f40 	cmp.w	r3, #805306368	; 0x30000000
 8004472:	d01b      	beq.n	80044ac <HAL_RCCEx_PeriphCLKConfig+0x988>
 8004474:	e011      	b.n	800449a <HAL_RCCEx_PeriphCLKConfig+0x976>
 8004476:	687b      	ldr	r3, [r7, #4]
 8004478:	3304      	adds	r3, #4
 800447a:	2100      	movs	r1, #0
 800447c:	4618      	mov	r0, r3
 800447e:	f000 fced 	bl	8004e5c <RCCEx_PLL2_Config>
 8004482:	4603      	mov	r3, r0
 8004484:	75fb      	strb	r3, [r7, #23]
 8004486:	e012      	b.n	80044ae <HAL_RCCEx_PeriphCLKConfig+0x98a>
 8004488:	687b      	ldr	r3, [r7, #4]
 800448a:	3324      	adds	r3, #36	; 0x24
 800448c:	2102      	movs	r1, #2
 800448e:	4618      	mov	r0, r3
 8004490:	f000 fd96 	bl	8004fc0 <RCCEx_PLL3_Config>
 8004494:	4603      	mov	r3, r0
 8004496:	75fb      	strb	r3, [r7, #23]
 8004498:	e009      	b.n	80044ae <HAL_RCCEx_PeriphCLKConfig+0x98a>
 800449a:	2301      	movs	r3, #1
 800449c:	75fb      	strb	r3, [r7, #23]
 800449e:	e006      	b.n	80044ae <HAL_RCCEx_PeriphCLKConfig+0x98a>
 80044a0:	bf00      	nop
 80044a2:	e004      	b.n	80044ae <HAL_RCCEx_PeriphCLKConfig+0x98a>
 80044a4:	bf00      	nop
 80044a6:	e002      	b.n	80044ae <HAL_RCCEx_PeriphCLKConfig+0x98a>
 80044a8:	bf00      	nop
 80044aa:	e000      	b.n	80044ae <HAL_RCCEx_PeriphCLKConfig+0x98a>
 80044ac:	bf00      	nop
 80044ae:	7dfb      	ldrb	r3, [r7, #23]
 80044b0:	2b00      	cmp	r3, #0
 80044b2:	d10a      	bne.n	80044ca <HAL_RCCEx_PeriphCLKConfig+0x9a6>
 80044b4:	4b8c      	ldr	r3, [pc, #560]	; (80046e8 <HAL_RCCEx_PeriphCLKConfig+0xbc4>)
 80044b6:	6d5b      	ldr	r3, [r3, #84]	; 0x54
 80044b8:	f023 42e0 	bic.w	r2, r3, #1879048192	; 0x70000000
 80044bc:	687b      	ldr	r3, [r7, #4]
 80044be:	f8d3 308c 	ldr.w	r3, [r3, #140]	; 0x8c
 80044c2:	4989      	ldr	r1, [pc, #548]	; (80046e8 <HAL_RCCEx_PeriphCLKConfig+0xbc4>)
 80044c4:	4313      	orrs	r3, r2
 80044c6:	654b      	str	r3, [r1, #84]	; 0x54
 80044c8:	e001      	b.n	80044ce <HAL_RCCEx_PeriphCLKConfig+0x9aa>
 80044ca:	7dfb      	ldrb	r3, [r7, #23]
 80044cc:	75bb      	strb	r3, [r7, #22]
 80044ce:	687b      	ldr	r3, [r7, #4]
 80044d0:	681b      	ldr	r3, [r3, #0]
 80044d2:	f003 0340 	and.w	r3, r3, #64	; 0x40
 80044d6:	2b00      	cmp	r3, #0
 80044d8:	d044      	beq.n	8004564 <HAL_RCCEx_PeriphCLKConfig+0xa40>
 80044da:	687b      	ldr	r3, [r7, #4]
 80044dc:	f8d3 3098 	ldr.w	r3, [r3, #152]	; 0x98
 80044e0:	f5b3 6f00 	cmp.w	r3, #2048	; 0x800
 80044e4:	d01b      	beq.n	800451e <HAL_RCCEx_PeriphCLKConfig+0x9fa>
 80044e6:	f5b3 6f00 	cmp.w	r3, #2048	; 0x800
 80044ea:	d805      	bhi.n	80044f8 <HAL_RCCEx_PeriphCLKConfig+0x9d4>
 80044ec:	2b00      	cmp	r3, #0
 80044ee:	d022      	beq.n	8004536 <HAL_RCCEx_PeriphCLKConfig+0xa12>
 80044f0:	f5b3 6f80 	cmp.w	r3, #1024	; 0x400
 80044f4:	d00a      	beq.n	800450c <HAL_RCCEx_PeriphCLKConfig+0x9e8>
 80044f6:	e01b      	b.n	8004530 <HAL_RCCEx_PeriphCLKConfig+0xa0c>
 80044f8:	f5b3 5f80 	cmp.w	r3, #4096	; 0x1000
 80044fc:	d01d      	beq.n	800453a <HAL_RCCEx_PeriphCLKConfig+0xa16>
 80044fe:	f5b3 5fa0 	cmp.w	r3, #5120	; 0x1400
 8004502:	d01c      	beq.n	800453e <HAL_RCCEx_PeriphCLKConfig+0xa1a>
 8004504:	f5b3 6f40 	cmp.w	r3, #3072	; 0xc00
 8004508:	d01b      	beq.n	8004542 <HAL_RCCEx_PeriphCLKConfig+0xa1e>
 800450a:	e011      	b.n	8004530 <HAL_RCCEx_PeriphCLKConfig+0xa0c>
 800450c:	687b      	ldr	r3, [r7, #4]
 800450e:	3304      	adds	r3, #4
 8004510:	2100      	movs	r1, #0
 8004512:	4618      	mov	r0, r3
 8004514:	f000 fca2 	bl	8004e5c <RCCEx_PLL2_Config>
 8004518:	4603      	mov	r3, r0
 800451a:	75fb      	strb	r3, [r7, #23]
 800451c:	e012      	b.n	8004544 <HAL_RCCEx_PeriphCLKConfig+0xa20>
 800451e:	687b      	ldr	r3, [r7, #4]
 8004520:	3324      	adds	r3, #36	; 0x24
 8004522:	2102      	movs	r1, #2
 8004524:	4618      	mov	r0, r3
 8004526:	f000 fd4b 	bl	8004fc0 <RCCEx_PLL3_Config>
 800452a:	4603      	mov	r3, r0
 800452c:	75fb      	strb	r3, [r7, #23]
 800452e:	e009      	b.n	8004544 <HAL_RCCEx_PeriphCLKConfig+0xa20>
 8004530:	2301      	movs	r3, #1
 8004532:	75fb      	strb	r3, [r7, #23]
 8004534:	e006      	b.n	8004544 <HAL_RCCEx_PeriphCLKConfig+0xa20>
 8004536:	bf00      	nop
 8004538:	e004      	b.n	8004544 <HAL_RCCEx_PeriphCLKConfig+0xa20>
 800453a:	bf00      	nop
 800453c:	e002      	b.n	8004544 <HAL_RCCEx_PeriphCLKConfig+0xa20>
 800453e:	bf00      	nop
 8004540:	e000      	b.n	8004544 <HAL_RCCEx_PeriphCLKConfig+0xa20>
 8004542:	bf00      	nop
 8004544:	7dfb      	ldrb	r3, [r7, #23]
 8004546:	2b00      	cmp	r3, #0
 8004548:	d10a      	bne.n	8004560 <HAL_RCCEx_PeriphCLKConfig+0xa3c>
 800454a:	4b67      	ldr	r3, [pc, #412]	; (80046e8 <HAL_RCCEx_PeriphCLKConfig+0xbc4>)
 800454c:	6d9b      	ldr	r3, [r3, #88]	; 0x58
 800454e:	f423 52e0 	bic.w	r2, r3, #7168	; 0x1c00
 8004552:	687b      	ldr	r3, [r7, #4]
 8004554:	f8d3 3098 	ldr.w	r3, [r3, #152]	; 0x98
 8004558:	4963      	ldr	r1, [pc, #396]	; (80046e8 <HAL_RCCEx_PeriphCLKConfig+0xbc4>)
 800455a:	4313      	orrs	r3, r2
 800455c:	658b      	str	r3, [r1, #88]	; 0x58
 800455e:	e001      	b.n	8004564 <HAL_RCCEx_PeriphCLKConfig+0xa40>
 8004560:	7dfb      	ldrb	r3, [r7, #23]
 8004562:	75bb      	strb	r3, [r7, #22]
 8004564:	687b      	ldr	r3, [r7, #4]
 8004566:	681b      	ldr	r3, [r3, #0]
 8004568:	f003 0380 	and.w	r3, r3, #128	; 0x80
 800456c:	2b00      	cmp	r3, #0
 800456e:	d044      	beq.n	80045fa <HAL_RCCEx_PeriphCLKConfig+0xad6>
 8004570:	687b      	ldr	r3, [r7, #4]
 8004572:	f8d3 309c 	ldr.w	r3, [r3, #156]	; 0x9c
 8004576:	f5b3 4f80 	cmp.w	r3, #16384	; 0x4000
 800457a:	d01b      	beq.n	80045b4 <HAL_RCCEx_PeriphCLKConfig+0xa90>
 800457c:	f5b3 4f80 	cmp.w	r3, #16384	; 0x4000
 8004580:	d805      	bhi.n	800458e <HAL_RCCEx_PeriphCLKConfig+0xa6a>
 8004582:	2b00      	cmp	r3, #0
 8004584:	d022      	beq.n	80045cc <HAL_RCCEx_PeriphCLKConfig+0xaa8>
 8004586:	f5b3 5f00 	cmp.w	r3, #8192	; 0x2000
 800458a:	d00a      	beq.n	80045a2 <HAL_RCCEx_PeriphCLKConfig+0xa7e>
 800458c:	e01b      	b.n	80045c6 <HAL_RCCEx_PeriphCLKConfig+0xaa2>
 800458e:	f5b3 4f00 	cmp.w	r3, #32768	; 0x8000
 8004592:	d01d      	beq.n	80045d0 <HAL_RCCEx_PeriphCLKConfig+0xaac>
 8004594:	f5b3 4f20 	cmp.w	r3, #40960	; 0xa000
 8004598:	d01c      	beq.n	80045d4 <HAL_RCCEx_PeriphCLKConfig+0xab0>
 800459a:	f5b3 4fc0 	cmp.w	r3, #24576	; 0x6000
 800459e:	d01b      	beq.n	80045d8 <HAL_RCCEx_PeriphCLKConfig+0xab4>
 80045a0:	e011      	b.n	80045c6 <HAL_RCCEx_PeriphCLKConfig+0xaa2>
 80045a2:	687b      	ldr	r3, [r7, #4]
 80045a4:	3304      	adds	r3, #4
 80045a6:	2100      	movs	r1, #0
 80045a8:	4618      	mov	r0, r3
 80045aa:	f000 fc57 	bl	8004e5c <RCCEx_PLL2_Config>
 80045ae:	4603      	mov	r3, r0
 80045b0:	75fb      	strb	r3, [r7, #23]
 80045b2:	e012      	b.n	80045da <HAL_RCCEx_PeriphCLKConfig+0xab6>
 80045b4:	687b      	ldr	r3, [r7, #4]
 80045b6:	3324      	adds	r3, #36	; 0x24
 80045b8:	2102      	movs	r1, #2
 80045ba:	4618      	mov	r0, r3
 80045bc:	f000 fd00 	bl	8004fc0 <RCCEx_PLL3_Config>
 80045c0:	4603      	mov	r3, r0
 80045c2:	75fb      	strb	r3, [r7, #23]
 80045c4:	e009      	b.n	80045da <HAL_RCCEx_PeriphCLKConfig+0xab6>
 80045c6:	2301      	movs	r3, #1
 80045c8:	75fb      	strb	r3, [r7, #23]
 80045ca:	e006      	b.n	80045da <HAL_RCCEx_PeriphCLKConfig+0xab6>
 80045cc:	bf00      	nop
 80045ce:	e004      	b.n	80045da <HAL_RCCEx_PeriphCLKConfig+0xab6>
 80045d0:	bf00      	nop
 80045d2:	e002      	b.n	80045da <HAL_RCCEx_PeriphCLKConfig+0xab6>
 80045d4:	bf00      	nop
 80045d6:	e000      	b.n	80045da <HAL_RCCEx_PeriphCLKConfig+0xab6>
 80045d8:	bf00      	nop
 80045da:	7dfb      	ldrb	r3, [r7, #23]
 80045dc:	2b00      	cmp	r3, #0
 80045de:	d10a      	bne.n	80045f6 <HAL_RCCEx_PeriphCLKConfig+0xad2>
 80045e0:	4b41      	ldr	r3, [pc, #260]	; (80046e8 <HAL_RCCEx_PeriphCLKConfig+0xbc4>)
 80045e2:	6d9b      	ldr	r3, [r3, #88]	; 0x58
 80045e4:	f423 4260 	bic.w	r2, r3, #57344	; 0xe000
 80045e8:	687b      	ldr	r3, [r7, #4]
 80045ea:	f8d3 309c 	ldr.w	r3, [r3, #156]	; 0x9c
 80045ee:	493e      	ldr	r1, [pc, #248]	; (80046e8 <HAL_RCCEx_PeriphCLKConfig+0xbc4>)
 80045f0:	4313      	orrs	r3, r2
 80045f2:	658b      	str	r3, [r1, #88]	; 0x58
 80045f4:	e001      	b.n	80045fa <HAL_RCCEx_PeriphCLKConfig+0xad6>
 80045f6:	7dfb      	ldrb	r3, [r7, #23]
 80045f8:	75bb      	strb	r3, [r7, #22]
 80045fa:	687b      	ldr	r3, [r7, #4]
 80045fc:	681b      	ldr	r3, [r3, #0]
 80045fe:	f003 0308 	and.w	r3, r3, #8
 8004602:	2b00      	cmp	r3, #0
 8004604:	d01a      	beq.n	800463c <HAL_RCCEx_PeriphCLKConfig+0xb18>
 8004606:	687b      	ldr	r3, [r7, #4]
 8004608:	f8d3 3080 	ldr.w	r3, [r3, #128]	; 0x80
 800460c:	f5b3 5f80 	cmp.w	r3, #4096	; 0x1000
 8004610:	d10a      	bne.n	8004628 <HAL_RCCEx_PeriphCLKConfig+0xb04>
 8004612:	687b      	ldr	r3, [r7, #4]
 8004614:	3324      	adds	r3, #36	; 0x24
 8004616:	2102      	movs	r1, #2
 8004618:	4618      	mov	r0, r3
 800461a:	f000 fcd1 	bl	8004fc0 <RCCEx_PLL3_Config>
 800461e:	4603      	mov	r3, r0
 8004620:	2b00      	cmp	r3, #0
 8004622:	d001      	beq.n	8004628 <HAL_RCCEx_PeriphCLKConfig+0xb04>
 8004624:	2301      	movs	r3, #1
 8004626:	75bb      	strb	r3, [r7, #22]
 8004628:	4b2f      	ldr	r3, [pc, #188]	; (80046e8 <HAL_RCCEx_PeriphCLKConfig+0xbc4>)
 800462a:	6d5b      	ldr	r3, [r3, #84]	; 0x54
 800462c:	f423 5240 	bic.w	r2, r3, #12288	; 0x3000
 8004630:	687b      	ldr	r3, [r7, #4]
 8004632:	f8d3 3080 	ldr.w	r3, [r3, #128]	; 0x80
 8004636:	492c      	ldr	r1, [pc, #176]	; (80046e8 <HAL_RCCEx_PeriphCLKConfig+0xbc4>)
 8004638:	4313      	orrs	r3, r2
 800463a:	654b      	str	r3, [r1, #84]	; 0x54
 800463c:	687b      	ldr	r3, [r7, #4]
 800463e:	681b      	ldr	r3, [r3, #0]
 8004640:	f003 0310 	and.w	r3, r3, #16
 8004644:	2b00      	cmp	r3, #0
 8004646:	d01a      	beq.n	800467e <HAL_RCCEx_PeriphCLKConfig+0xb5a>
 8004648:	687b      	ldr	r3, [r7, #4]
 800464a:	f8d3 3094 	ldr.w	r3, [r3, #148]	; 0x94
 800464e:	f5b3 7f80 	cmp.w	r3, #256	; 0x100
 8004652:	d10a      	bne.n	800466a <HAL_RCCEx_PeriphCLKConfig+0xb46>
 8004654:	687b      	ldr	r3, [r7, #4]
 8004656:	3324      	adds	r3, #36	; 0x24
 8004658:	2102      	movs	r1, #2
 800465a:	4618      	mov	r0, r3
 800465c:	f000 fcb0 	bl	8004fc0 <RCCEx_PLL3_Config>
 8004660:	4603      	mov	r3, r0
 8004662:	2b00      	cmp	r3, #0
 8004664:	d001      	beq.n	800466a <HAL_RCCEx_PeriphCLKConfig+0xb46>
 8004666:	2301      	movs	r3, #1
 8004668:	75bb      	strb	r3, [r7, #22]
 800466a:	4b1f      	ldr	r3, [pc, #124]	; (80046e8 <HAL_RCCEx_PeriphCLKConfig+0xbc4>)
 800466c:	6d9b      	ldr	r3, [r3, #88]	; 0x58
 800466e:	f423 7240 	bic.w	r2, r3, #768	; 0x300
 8004672:	687b      	ldr	r3, [r7, #4]
 8004674:	f8d3 3094 	ldr.w	r3, [r3, #148]	; 0x94
 8004678:	491b      	ldr	r1, [pc, #108]	; (80046e8 <HAL_RCCEx_PeriphCLKConfig+0xbc4>)
 800467a:	4313      	orrs	r3, r2
 800467c:	658b      	str	r3, [r1, #88]	; 0x58
 800467e:	687b      	ldr	r3, [r7, #4]
 8004680:	681b      	ldr	r3, [r3, #0]
 8004682:	f403 2300 	and.w	r3, r3, #524288	; 0x80000
 8004686:	2b00      	cmp	r3, #0
 8004688:	d032      	beq.n	80046f0 <HAL_RCCEx_PeriphCLKConfig+0xbcc>
 800468a:	687b      	ldr	r3, [r7, #4]
 800468c:	f8d3 30a0 	ldr.w	r3, [r3, #160]	; 0xa0
 8004690:	f5b3 3f80 	cmp.w	r3, #65536	; 0x10000
 8004694:	d00d      	beq.n	80046b2 <HAL_RCCEx_PeriphCLKConfig+0xb8e>
 8004696:	f5b3 3f00 	cmp.w	r3, #131072	; 0x20000
 800469a:	d016      	beq.n	80046ca <HAL_RCCEx_PeriphCLKConfig+0xba6>
 800469c:	2b00      	cmp	r3, #0
 800469e:	d111      	bne.n	80046c4 <HAL_RCCEx_PeriphCLKConfig+0xba0>
 80046a0:	687b      	ldr	r3, [r7, #4]
 80046a2:	3304      	adds	r3, #4
 80046a4:	2100      	movs	r1, #0
 80046a6:	4618      	mov	r0, r3
 80046a8:	f000 fbd8 	bl	8004e5c <RCCEx_PLL2_Config>
 80046ac:	4603      	mov	r3, r0
 80046ae:	75fb      	strb	r3, [r7, #23]
 80046b0:	e00c      	b.n	80046cc <HAL_RCCEx_PeriphCLKConfig+0xba8>
 80046b2:	687b      	ldr	r3, [r7, #4]
 80046b4:	3324      	adds	r3, #36	; 0x24
 80046b6:	2102      	movs	r1, #2
 80046b8:	4618      	mov	r0, r3
 80046ba:	f000 fc81 	bl	8004fc0 <RCCEx_PLL3_Config>
 80046be:	4603      	mov	r3, r0
 80046c0:	75fb      	strb	r3, [r7, #23]
 80046c2:	e003      	b.n	80046cc <HAL_RCCEx_PeriphCLKConfig+0xba8>
 80046c4:	2301      	movs	r3, #1
 80046c6:	75fb      	strb	r3, [r7, #23]
 80046c8:	e000      	b.n	80046cc <HAL_RCCEx_PeriphCLKConfig+0xba8>
 80046ca:	bf00      	nop
 80046cc:	7dfb      	ldrb	r3, [r7, #23]
 80046ce:	2b00      	cmp	r3, #0
 80046d0:	d10c      	bne.n	80046ec <HAL_RCCEx_PeriphCLKConfig+0xbc8>
 80046d2:	4b05      	ldr	r3, [pc, #20]	; (80046e8 <HAL_RCCEx_PeriphCLKConfig+0xbc4>)
 80046d4:	6d9b      	ldr	r3, [r3, #88]	; 0x58
 80046d6:	f423 3240 	bic.w	r2, r3, #196608	; 0x30000
 80046da:	687b      	ldr	r3, [r7, #4]
 80046dc:	f8d3 30a0 	ldr.w	r3, [r3, #160]	; 0xa0
 80046e0:	4901      	ldr	r1, [pc, #4]	; (80046e8 <HAL_RCCEx_PeriphCLKConfig+0xbc4>)
 80046e2:	4313      	orrs	r3, r2
 80046e4:	658b      	str	r3, [r1, #88]	; 0x58
 80046e6:	e003      	b.n	80046f0 <HAL_RCCEx_PeriphCLKConfig+0xbcc>
 80046e8:	58024400 	.word	0x58024400
 80046ec:	7dfb      	ldrb	r3, [r7, #23]
 80046ee:	75bb      	strb	r3, [r7, #22]
 80046f0:	687b      	ldr	r3, [r7, #4]
 80046f2:	681b      	ldr	r3, [r3, #0]
 80046f4:	f403 2380 	and.w	r3, r3, #262144	; 0x40000
 80046f8:	2b00      	cmp	r3, #0
 80046fa:	d02f      	beq.n	800475c <HAL_RCCEx_PeriphCLKConfig+0xc38>
 80046fc:	687b      	ldr	r3, [r7, #4]
 80046fe:	f8d3 3084 	ldr.w	r3, [r3, #132]	; 0x84
 8004702:	f5b3 1f00 	cmp.w	r3, #2097152	; 0x200000
 8004706:	d00c      	beq.n	8004722 <HAL_RCCEx_PeriphCLKConfig+0xbfe>
 8004708:	f5b3 1f40 	cmp.w	r3, #3145728	; 0x300000
 800470c:	d015      	beq.n	800473a <HAL_RCCEx_PeriphCLKConfig+0xc16>
 800470e:	f5b3 1f80 	cmp.w	r3, #1048576	; 0x100000
 8004712:	d10f      	bne.n	8004734 <HAL_RCCEx_PeriphCLKConfig+0xc10>
 8004714:	4b79      	ldr	r3, [pc, #484]	; (80048fc <HAL_RCCEx_PeriphCLKConfig+0xdd8>)
 8004716:	6adb      	ldr	r3, [r3, #44]	; 0x2c
 8004718:	4a78      	ldr	r2, [pc, #480]	; (80048fc <HAL_RCCEx_PeriphCLKConfig+0xdd8>)
 800471a:	f443 3300 	orr.w	r3, r3, #131072	; 0x20000
 800471e:	62d3      	str	r3, [r2, #44]	; 0x2c
 8004720:	e00c      	b.n	800473c <HAL_RCCEx_PeriphCLKConfig+0xc18>
 8004722:	687b      	ldr	r3, [r7, #4]
 8004724:	3324      	adds	r3, #36	; 0x24
 8004726:	2101      	movs	r1, #1
 8004728:	4618      	mov	r0, r3
 800472a:	f000 fc49 	bl	8004fc0 <RCCEx_PLL3_Config>
 800472e:	4603      	mov	r3, r0
 8004730:	75fb      	strb	r3, [r7, #23]
 8004732:	e003      	b.n	800473c <HAL_RCCEx_PeriphCLKConfig+0xc18>
 8004734:	2301      	movs	r3, #1
 8004736:	75fb      	strb	r3, [r7, #23]
 8004738:	e000      	b.n	800473c <HAL_RCCEx_PeriphCLKConfig+0xc18>
 800473a:	bf00      	nop
 800473c:	7dfb      	ldrb	r3, [r7, #23]
 800473e:	2b00      	cmp	r3, #0
 8004740:	d10a      	bne.n	8004758 <HAL_RCCEx_PeriphCLKConfig+0xc34>
 8004742:	4b6e      	ldr	r3, [pc, #440]	; (80048fc <HAL_RCCEx_PeriphCLKConfig+0xdd8>)
 8004744:	6d5b      	ldr	r3, [r3, #84]	; 0x54
 8004746:	f423 1240 	bic.w	r2, r3, #3145728	; 0x300000
 800474a:	687b      	ldr	r3, [r7, #4]
 800474c:	f8d3 3084 	ldr.w	r3, [r3, #132]	; 0x84
 8004750:	496a      	ldr	r1, [pc, #424]	; (80048fc <HAL_RCCEx_PeriphCLKConfig+0xdd8>)
 8004752:	4313      	orrs	r3, r2
 8004754:	654b      	str	r3, [r1, #84]	; 0x54
 8004756:	e001      	b.n	800475c <HAL_RCCEx_PeriphCLKConfig+0xc38>
 8004758:	7dfb      	ldrb	r3, [r7, #23]
 800475a:	75bb      	strb	r3, [r7, #22]
 800475c:	687b      	ldr	r3, [r7, #4]
 800475e:	681b      	ldr	r3, [r3, #0]
 8004760:	f403 3380 	and.w	r3, r3, #65536	; 0x10000
 8004764:	2b00      	cmp	r3, #0
 8004766:	d029      	beq.n	80047bc <HAL_RCCEx_PeriphCLKConfig+0xc98>
 8004768:	687b      	ldr	r3, [r7, #4]
 800476a:	6cdb      	ldr	r3, [r3, #76]	; 0x4c
 800476c:	2b00      	cmp	r3, #0
 800476e:	d003      	beq.n	8004778 <HAL_RCCEx_PeriphCLKConfig+0xc54>
 8004770:	f5b3 3f80 	cmp.w	r3, #65536	; 0x10000
 8004774:	d007      	beq.n	8004786 <HAL_RCCEx_PeriphCLKConfig+0xc62>
 8004776:	e00f      	b.n	8004798 <HAL_RCCEx_PeriphCLKConfig+0xc74>
 8004778:	4b60      	ldr	r3, [pc, #384]	; (80048fc <HAL_RCCEx_PeriphCLKConfig+0xdd8>)
 800477a:	6adb      	ldr	r3, [r3, #44]	; 0x2c
 800477c:	4a5f      	ldr	r2, [pc, #380]	; (80048fc <HAL_RCCEx_PeriphCLKConfig+0xdd8>)
 800477e:	f443 3300 	orr.w	r3, r3, #131072	; 0x20000
 8004782:	62d3      	str	r3, [r2, #44]	; 0x2c
 8004784:	e00b      	b.n	800479e <HAL_RCCEx_PeriphCLKConfig+0xc7a>
 8004786:	687b      	ldr	r3, [r7, #4]
 8004788:	3304      	adds	r3, #4
 800478a:	2102      	movs	r1, #2
 800478c:	4618      	mov	r0, r3
 800478e:	f000 fb65 	bl	8004e5c <RCCEx_PLL2_Config>
 8004792:	4603      	mov	r3, r0
 8004794:	75fb      	strb	r3, [r7, #23]
 8004796:	e002      	b.n	800479e <HAL_RCCEx_PeriphCLKConfig+0xc7a>
 8004798:	2301      	movs	r3, #1
 800479a:	75fb      	strb	r3, [r7, #23]
 800479c:	bf00      	nop
 800479e:	7dfb      	ldrb	r3, [r7, #23]
 80047a0:	2b00      	cmp	r3, #0
 80047a2:	d109      	bne.n	80047b8 <HAL_RCCEx_PeriphCLKConfig+0xc94>
 80047a4:	4b55      	ldr	r3, [pc, #340]	; (80048fc <HAL_RCCEx_PeriphCLKConfig+0xdd8>)
 80047a6:	6cdb      	ldr	r3, [r3, #76]	; 0x4c
 80047a8:	f423 3280 	bic.w	r2, r3, #65536	; 0x10000
 80047ac:	687b      	ldr	r3, [r7, #4]
 80047ae:	6cdb      	ldr	r3, [r3, #76]	; 0x4c
 80047b0:	4952      	ldr	r1, [pc, #328]	; (80048fc <HAL_RCCEx_PeriphCLKConfig+0xdd8>)
 80047b2:	4313      	orrs	r3, r2
 80047b4:	64cb      	str	r3, [r1, #76]	; 0x4c
 80047b6:	e001      	b.n	80047bc <HAL_RCCEx_PeriphCLKConfig+0xc98>
 80047b8:	7dfb      	ldrb	r3, [r7, #23]
 80047ba:	75bb      	strb	r3, [r7, #22]
 80047bc:	687b      	ldr	r3, [r7, #4]
 80047be:	681b      	ldr	r3, [r3, #0]
 80047c0:	f003 5300 	and.w	r3, r3, #536870912	; 0x20000000
 80047c4:	2b00      	cmp	r3, #0
 80047c6:	d00a      	beq.n	80047de <HAL_RCCEx_PeriphCLKConfig+0xcba>
 80047c8:	687b      	ldr	r3, [r7, #4]
 80047ca:	3324      	adds	r3, #36	; 0x24
 80047cc:	2102      	movs	r1, #2
 80047ce:	4618      	mov	r0, r3
 80047d0:	f000 fbf6 	bl	8004fc0 <RCCEx_PLL3_Config>
 80047d4:	4603      	mov	r3, r0
 80047d6:	2b00      	cmp	r3, #0
 80047d8:	d001      	beq.n	80047de <HAL_RCCEx_PeriphCLKConfig+0xcba>
 80047da:	2301      	movs	r3, #1
 80047dc:	75bb      	strb	r3, [r7, #22]
 80047de:	687b      	ldr	r3, [r7, #4]
 80047e0:	681b      	ldr	r3, [r3, #0]
 80047e2:	f403 3300 	and.w	r3, r3, #131072	; 0x20000
 80047e6:	2b00      	cmp	r3, #0
 80047e8:	d02f      	beq.n	800484a <HAL_RCCEx_PeriphCLKConfig+0xd26>
 80047ea:	687b      	ldr	r3, [r7, #4]
 80047ec:	6fdb      	ldr	r3, [r3, #124]	; 0x7c
 80047ee:	f5b3 7f80 	cmp.w	r3, #256	; 0x100
 80047f2:	d00c      	beq.n	800480e <HAL_RCCEx_PeriphCLKConfig+0xcea>
 80047f4:	f5b3 7f80 	cmp.w	r3, #256	; 0x100
 80047f8:	d802      	bhi.n	8004800 <HAL_RCCEx_PeriphCLKConfig+0xcdc>
 80047fa:	2b00      	cmp	r3, #0
 80047fc:	d011      	beq.n	8004822 <HAL_RCCEx_PeriphCLKConfig+0xcfe>
 80047fe:	e00d      	b.n	800481c <HAL_RCCEx_PeriphCLKConfig+0xcf8>
 8004800:	f5b3 7f00 	cmp.w	r3, #512	; 0x200
 8004804:	d00f      	beq.n	8004826 <HAL_RCCEx_PeriphCLKConfig+0xd02>
 8004806:	f5b3 7f40 	cmp.w	r3, #768	; 0x300
 800480a:	d00e      	beq.n	800482a <HAL_RCCEx_PeriphCLKConfig+0xd06>
 800480c:	e006      	b.n	800481c <HAL_RCCEx_PeriphCLKConfig+0xcf8>
 800480e:	4b3b      	ldr	r3, [pc, #236]	; (80048fc <HAL_RCCEx_PeriphCLKConfig+0xdd8>)
 8004810:	6adb      	ldr	r3, [r3, #44]	; 0x2c
 8004812:	4a3a      	ldr	r2, [pc, #232]	; (80048fc <HAL_RCCEx_PeriphCLKConfig+0xdd8>)
 8004814:	f443 3300 	orr.w	r3, r3, #131072	; 0x20000
 8004818:	62d3      	str	r3, [r2, #44]	; 0x2c
 800481a:	e007      	b.n	800482c <HAL_RCCEx_PeriphCLKConfig+0xd08>
 800481c:	2301      	movs	r3, #1
 800481e:	75fb      	strb	r3, [r7, #23]
 8004820:	e004      	b.n	800482c <HAL_RCCEx_PeriphCLKConfig+0xd08>
 8004822:	bf00      	nop
 8004824:	e002      	b.n	800482c <HAL_RCCEx_PeriphCLKConfig+0xd08>
 8004826:	bf00      	nop
 8004828:	e000      	b.n	800482c <HAL_RCCEx_PeriphCLKConfig+0xd08>
 800482a:	bf00      	nop
 800482c:	7dfb      	ldrb	r3, [r7, #23]
 800482e:	2b00      	cmp	r3, #0
 8004830:	d109      	bne.n	8004846 <HAL_RCCEx_PeriphCLKConfig+0xd22>
 8004832:	4b32      	ldr	r3, [pc, #200]	; (80048fc <HAL_RCCEx_PeriphCLKConfig+0xdd8>)
 8004834:	6d5b      	ldr	r3, [r3, #84]	; 0x54
 8004836:	f423 7240 	bic.w	r2, r3, #768	; 0x300
 800483a:	687b      	ldr	r3, [r7, #4]
 800483c:	6fdb      	ldr	r3, [r3, #124]	; 0x7c
 800483e:	492f      	ldr	r1, [pc, #188]	; (80048fc <HAL_RCCEx_PeriphCLKConfig+0xdd8>)
 8004840:	4313      	orrs	r3, r2
 8004842:	654b      	str	r3, [r1, #84]	; 0x54
 8004844:	e001      	b.n	800484a <HAL_RCCEx_PeriphCLKConfig+0xd26>
 8004846:	7dfb      	ldrb	r3, [r7, #23]
 8004848:	75bb      	strb	r3, [r7, #22]
 800484a:	687b      	ldr	r3, [r7, #4]
 800484c:	681b      	ldr	r3, [r3, #0]
 800484e:	f403 1380 	and.w	r3, r3, #1048576	; 0x100000
 8004852:	2b00      	cmp	r3, #0
 8004854:	d008      	beq.n	8004868 <HAL_RCCEx_PeriphCLKConfig+0xd44>
 8004856:	4b29      	ldr	r3, [pc, #164]	; (80048fc <HAL_RCCEx_PeriphCLKConfig+0xdd8>)
 8004858:	6d1b      	ldr	r3, [r3, #80]	; 0x50
 800485a:	f023 4200 	bic.w	r2, r3, #2147483648	; 0x80000000
 800485e:	687b      	ldr	r3, [r7, #4]
 8004860:	6f1b      	ldr	r3, [r3, #112]	; 0x70
 8004862:	4926      	ldr	r1, [pc, #152]	; (80048fc <HAL_RCCEx_PeriphCLKConfig+0xdd8>)
 8004864:	4313      	orrs	r3, r2
 8004866:	650b      	str	r3, [r1, #80]	; 0x50
 8004868:	687b      	ldr	r3, [r7, #4]
 800486a:	681b      	ldr	r3, [r3, #0]
 800486c:	f003 5380 	and.w	r3, r3, #268435456	; 0x10000000
 8004870:	2b00      	cmp	r3, #0
 8004872:	d009      	beq.n	8004888 <HAL_RCCEx_PeriphCLKConfig+0xd64>
 8004874:	4b21      	ldr	r3, [pc, #132]	; (80048fc <HAL_RCCEx_PeriphCLKConfig+0xdd8>)
 8004876:	691b      	ldr	r3, [r3, #16]
 8004878:	f423 4280 	bic.w	r2, r3, #16384	; 0x4000
 800487c:	687b      	ldr	r3, [r7, #4]
 800487e:	f8d3 30b4 	ldr.w	r3, [r3, #180]	; 0xb4
 8004882:	491e      	ldr	r1, [pc, #120]	; (80048fc <HAL_RCCEx_PeriphCLKConfig+0xdd8>)
 8004884:	4313      	orrs	r3, r2
 8004886:	610b      	str	r3, [r1, #16]
 8004888:	687b      	ldr	r3, [r7, #4]
 800488a:	681b      	ldr	r3, [r3, #0]
 800488c:	f403 1300 	and.w	r3, r3, #2097152	; 0x200000
 8004890:	2b00      	cmp	r3, #0
 8004892:	d008      	beq.n	80048a6 <HAL_RCCEx_PeriphCLKConfig+0xd82>
 8004894:	4b19      	ldr	r3, [pc, #100]	; (80048fc <HAL_RCCEx_PeriphCLKConfig+0xdd8>)
 8004896:	6d1b      	ldr	r3, [r3, #80]	; 0x50
 8004898:	f023 7280 	bic.w	r2, r3, #16777216	; 0x1000000
 800489c:	687b      	ldr	r3, [r7, #4]
 800489e:	6e9b      	ldr	r3, [r3, #104]	; 0x68
 80048a0:	4916      	ldr	r1, [pc, #88]	; (80048fc <HAL_RCCEx_PeriphCLKConfig+0xdd8>)
 80048a2:	4313      	orrs	r3, r2
 80048a4:	650b      	str	r3, [r1, #80]	; 0x50
 80048a6:	687b      	ldr	r3, [r7, #4]
 80048a8:	681b      	ldr	r3, [r3, #0]
 80048aa:	f003 4380 	and.w	r3, r3, #1073741824	; 0x40000000
 80048ae:	2b00      	cmp	r3, #0
 80048b0:	d00d      	beq.n	80048ce <HAL_RCCEx_PeriphCLKConfig+0xdaa>
 80048b2:	4b12      	ldr	r3, [pc, #72]	; (80048fc <HAL_RCCEx_PeriphCLKConfig+0xdd8>)
 80048b4:	691b      	ldr	r3, [r3, #16]
 80048b6:	4a11      	ldr	r2, [pc, #68]	; (80048fc <HAL_RCCEx_PeriphCLKConfig+0xdd8>)
 80048b8:	f423 4300 	bic.w	r3, r3, #32768	; 0x8000
 80048bc:	6113      	str	r3, [r2, #16]
 80048be:	4b0f      	ldr	r3, [pc, #60]	; (80048fc <HAL_RCCEx_PeriphCLKConfig+0xdd8>)
 80048c0:	691a      	ldr	r2, [r3, #16]
 80048c2:	687b      	ldr	r3, [r7, #4]
 80048c4:	f8d3 30b8 	ldr.w	r3, [r3, #184]	; 0xb8
 80048c8:	490c      	ldr	r1, [pc, #48]	; (80048fc <HAL_RCCEx_PeriphCLKConfig+0xdd8>)
 80048ca:	4313      	orrs	r3, r2
 80048cc:	610b      	str	r3, [r1, #16]
 80048ce:	687b      	ldr	r3, [r7, #4]
 80048d0:	681b      	ldr	r3, [r3, #0]
 80048d2:	2b00      	cmp	r3, #0
 80048d4:	da08      	bge.n	80048e8 <HAL_RCCEx_PeriphCLKConfig+0xdc4>
 80048d6:	4b09      	ldr	r3, [pc, #36]	; (80048fc <HAL_RCCEx_PeriphCLKConfig+0xdd8>)
 80048d8:	6cdb      	ldr	r3, [r3, #76]	; 0x4c
 80048da:	f023 5240 	bic.w	r2, r3, #805306368	; 0x30000000
 80048de:	687b      	ldr	r3, [r7, #4]
 80048e0:	6d1b      	ldr	r3, [r3, #80]	; 0x50
 80048e2:	4906      	ldr	r1, [pc, #24]	; (80048fc <HAL_RCCEx_PeriphCLKConfig+0xdd8>)
 80048e4:	4313      	orrs	r3, r2
 80048e6:	64cb      	str	r3, [r1, #76]	; 0x4c
 80048e8:	7dbb      	ldrb	r3, [r7, #22]
 80048ea:	2b00      	cmp	r3, #0
 80048ec:	d101      	bne.n	80048f2 <HAL_RCCEx_PeriphCLKConfig+0xdce>
 80048ee:	2300      	movs	r3, #0
 80048f0:	e000      	b.n	80048f4 <HAL_RCCEx_PeriphCLKConfig+0xdd0>
 80048f2:	2301      	movs	r3, #1
 80048f4:	4618      	mov	r0, r3
 80048f6:	3718      	adds	r7, #24
 80048f8:	46bd      	mov	sp, r7
 80048fa:	bd80      	pop	{r7, pc}
 80048fc:	58024400 	.word	0x58024400

08004900 <HAL_RCCEx_GetD3PCLK1Freq>:
 8004900:	b580      	push	{r7, lr}
 8004902:	af00      	add	r7, sp, #0
 8004904:	f7ff f8b2 	bl	8003a6c <HAL_RCC_GetHCLKFreq>
 8004908:	4601      	mov	r1, r0
 800490a:	4b06      	ldr	r3, [pc, #24]	; (8004924 <HAL_RCCEx_GetD3PCLK1Freq+0x24>)
 800490c:	6a1b      	ldr	r3, [r3, #32]
 800490e:	091b      	lsrs	r3, r3, #4
 8004910:	f003 0307 	and.w	r3, r3, #7
 8004914:	4a04      	ldr	r2, [pc, #16]	; (8004928 <HAL_RCCEx_GetD3PCLK1Freq+0x28>)
 8004916:	5cd3      	ldrb	r3, [r2, r3]
 8004918:	f003 031f 	and.w	r3, r3, #31
 800491c:	fa21 f303 	lsr.w	r3, r1, r3
 8004920:	4618      	mov	r0, r3
 8004922:	bd80      	pop	{r7, pc}
 8004924:	58024400 	.word	0x58024400
 8004928:	080075d8 	.word	0x080075d8

0800492c <HAL_RCCEx_GetPLL2ClockFreq>:
 800492c:	b480      	push	{r7}
 800492e:	b089      	sub	sp, #36	; 0x24
 8004930:	af00      	add	r7, sp, #0
 8004932:	6078      	str	r0, [r7, #4]
 8004934:	4b9d      	ldr	r3, [pc, #628]	; (8004bac <HAL_RCCEx_GetPLL2ClockFreq+0x280>)
 8004936:	6a9b      	ldr	r3, [r3, #40]	; 0x28
 8004938:	f003 0303 	and.w	r3, r3, #3
 800493c:	61bb      	str	r3, [r7, #24]
 800493e:	4b9b      	ldr	r3, [pc, #620]	; (8004bac <HAL_RCCEx_GetPLL2ClockFreq+0x280>)
 8004940:	6a9b      	ldr	r3, [r3, #40]	; 0x28
 8004942:	0b1b      	lsrs	r3, r3, #12
 8004944:	f003 033f 	and.w	r3, r3, #63	; 0x3f
 8004948:	617b      	str	r3, [r7, #20]
 800494a:	4b98      	ldr	r3, [pc, #608]	; (8004bac <HAL_RCCEx_GetPLL2ClockFreq+0x280>)
 800494c:	6adb      	ldr	r3, [r3, #44]	; 0x2c
 800494e:	091b      	lsrs	r3, r3, #4
 8004950:	f003 0301 	and.w	r3, r3, #1
 8004954:	613b      	str	r3, [r7, #16]
 8004956:	4b95      	ldr	r3, [pc, #596]	; (8004bac <HAL_RCCEx_GetPLL2ClockFreq+0x280>)
 8004958:	6bdb      	ldr	r3, [r3, #60]	; 0x3c
 800495a:	08db      	lsrs	r3, r3, #3
 800495c:	f3c3 030c 	ubfx	r3, r3, #0, #13
 8004960:	693a      	ldr	r2, [r7, #16]
 8004962:	fb02 f303 	mul.w	r3, r2, r3
 8004966:	ee07 3a90 	vmov	s15, r3
 800496a:	eef8 7a67 	vcvt.f32.u32	s15, s15
 800496e:	edc7 7a03 	vstr	s15, [r7, #12]
 8004972:	697b      	ldr	r3, [r7, #20]
 8004974:	2b00      	cmp	r3, #0
 8004976:	f000 810a 	beq.w	8004b8e <HAL_RCCEx_GetPLL2ClockFreq+0x262>
 800497a:	69bb      	ldr	r3, [r7, #24]
 800497c:	2b01      	cmp	r3, #1
 800497e:	d05a      	beq.n	8004a36 <HAL_RCCEx_GetPLL2ClockFreq+0x10a>
 8004980:	2b01      	cmp	r3, #1
 8004982:	d302      	bcc.n	800498a <HAL_RCCEx_GetPLL2ClockFreq+0x5e>
 8004984:	2b02      	cmp	r3, #2
 8004986:	d078      	beq.n	8004a7a <HAL_RCCEx_GetPLL2ClockFreq+0x14e>
 8004988:	e099      	b.n	8004abe <HAL_RCCEx_GetPLL2ClockFreq+0x192>
 800498a:	4b88      	ldr	r3, [pc, #544]	; (8004bac <HAL_RCCEx_GetPLL2ClockFreq+0x280>)
 800498c:	681b      	ldr	r3, [r3, #0]
 800498e:	f003 0320 	and.w	r3, r3, #32
 8004992:	2b00      	cmp	r3, #0
 8004994:	d02d      	beq.n	80049f2 <HAL_RCCEx_GetPLL2ClockFreq+0xc6>
 8004996:	4b85      	ldr	r3, [pc, #532]	; (8004bac <HAL_RCCEx_GetPLL2ClockFreq+0x280>)
 8004998:	681b      	ldr	r3, [r3, #0]
 800499a:	08db      	lsrs	r3, r3, #3
 800499c:	f003 0303 	and.w	r3, r3, #3
 80049a0:	4a83      	ldr	r2, [pc, #524]	; (8004bb0 <HAL_RCCEx_GetPLL2ClockFreq+0x284>)
 80049a2:	fa22 f303 	lsr.w	r3, r2, r3
 80049a6:	60bb      	str	r3, [r7, #8]
 80049a8:	68bb      	ldr	r3, [r7, #8]
 80049aa:	ee07 3a90 	vmov	s15, r3
 80049ae:	eef8 6a67 	vcvt.f32.u32	s13, s15
 80049b2:	697b      	ldr	r3, [r7, #20]
 80049b4:	ee07 3a90 	vmov	s15, r3
 80049b8:	eef8 7a67 	vcvt.f32.u32	s15, s15
 80049bc:	ee86 7aa7 	vdiv.f32	s14, s13, s15
 80049c0:	4b7a      	ldr	r3, [pc, #488]	; (8004bac <HAL_RCCEx_GetPLL2ClockFreq+0x280>)
 80049c2:	6b9b      	ldr	r3, [r3, #56]	; 0x38
 80049c4:	f3c3 0308 	ubfx	r3, r3, #0, #9
 80049c8:	ee07 3a90 	vmov	s15, r3
 80049cc:	eef8 6a67 	vcvt.f32.u32	s13, s15
 80049d0:	ed97 6a03 	vldr	s12, [r7, #12]
 80049d4:	eddf 5a77 	vldr	s11, [pc, #476]	; 8004bb4 <HAL_RCCEx_GetPLL2ClockFreq+0x288>
 80049d8:	eec6 7a25 	vdiv.f32	s15, s12, s11
 80049dc:	ee76 7aa7 	vadd.f32	s15, s13, s15
 80049e0:	eef7 6a00 	vmov.f32	s13, #112	; 0x3f800000  1.0
 80049e4:	ee77 7aa6 	vadd.f32	s15, s15, s13
 80049e8:	ee67 7a27 	vmul.f32	s15, s14, s15
 80049ec:	edc7 7a07 	vstr	s15, [r7, #28]
 80049f0:	e087      	b.n	8004b02 <HAL_RCCEx_GetPLL2ClockFreq+0x1d6>
 80049f2:	697b      	ldr	r3, [r7, #20]
 80049f4:	ee07 3a90 	vmov	s15, r3
 80049f8:	eef8 7a67 	vcvt.f32.u32	s15, s15
 80049fc:	eddf 6a6e 	vldr	s13, [pc, #440]	; 8004bb8 <HAL_RCCEx_GetPLL2ClockFreq+0x28c>
 8004a00:	ee86 7aa7 	vdiv.f32	s14, s13, s15
 8004a04:	4b69      	ldr	r3, [pc, #420]	; (8004bac <HAL_RCCEx_GetPLL2ClockFreq+0x280>)
 8004a06:	6b9b      	ldr	r3, [r3, #56]	; 0x38
 8004a08:	f3c3 0308 	ubfx	r3, r3, #0, #9
 8004a0c:	ee07 3a90 	vmov	s15, r3
 8004a10:	eef8 6a67 	vcvt.f32.u32	s13, s15
 8004a14:	ed97 6a03 	vldr	s12, [r7, #12]
 8004a18:	eddf 5a66 	vldr	s11, [pc, #408]	; 8004bb4 <HAL_RCCEx_GetPLL2ClockFreq+0x288>
 8004a1c:	eec6 7a25 	vdiv.f32	s15, s12, s11
 8004a20:	ee76 7aa7 	vadd.f32	s15, s13, s15
 8004a24:	eef7 6a00 	vmov.f32	s13, #112	; 0x3f800000  1.0
 8004a28:	ee77 7aa6 	vadd.f32	s15, s15, s13
 8004a2c:	ee67 7a27 	vmul.f32	s15, s14, s15
 8004a30:	edc7 7a07 	vstr	s15, [r7, #28]
 8004a34:	e065      	b.n	8004b02 <HAL_RCCEx_GetPLL2ClockFreq+0x1d6>
 8004a36:	697b      	ldr	r3, [r7, #20]
 8004a38:	ee07 3a90 	vmov	s15, r3
 8004a3c:	eef8 7a67 	vcvt.f32.u32	s15, s15
 8004a40:	eddf 6a5e 	vldr	s13, [pc, #376]	; 8004bbc <HAL_RCCEx_GetPLL2ClockFreq+0x290>
 8004a44:	ee86 7aa7 	vdiv.f32	s14, s13, s15
 8004a48:	4b58      	ldr	r3, [pc, #352]	; (8004bac <HAL_RCCEx_GetPLL2ClockFreq+0x280>)
 8004a4a:	6b9b      	ldr	r3, [r3, #56]	; 0x38
 8004a4c:	f3c3 0308 	ubfx	r3, r3, #0, #9
 8004a50:	ee07 3a90 	vmov	s15, r3
 8004a54:	eef8 6a67 	vcvt.f32.u32	s13, s15
 8004a58:	ed97 6a03 	vldr	s12, [r7, #12]
 8004a5c:	eddf 5a55 	vldr	s11, [pc, #340]	; 8004bb4 <HAL_RCCEx_GetPLL2ClockFreq+0x288>
 8004a60:	eec6 7a25 	vdiv.f32	s15, s12, s11
 8004a64:	ee76 7aa7 	vadd.f32	s15, s13, s15
 8004a68:	eef7 6a00 	vmov.f32	s13, #112	; 0x3f800000  1.0
 8004a6c:	ee77 7aa6 	vadd.f32	s15, s15, s13
 8004a70:	ee67 7a27 	vmul.f32	s15, s14, s15
 8004a74:	edc7 7a07 	vstr	s15, [r7, #28]
 8004a78:	e043      	b.n	8004b02 <HAL_RCCEx_GetPLL2ClockFreq+0x1d6>
 8004a7a:	697b      	ldr	r3, [r7, #20]
 8004a7c:	ee07 3a90 	vmov	s15, r3
 8004a80:	eef8 7a67 	vcvt.f32.u32	s15, s15
 8004a84:	eddf 6a4e 	vldr	s13, [pc, #312]	; 8004bc0 <HAL_RCCEx_GetPLL2ClockFreq+0x294>
 8004a88:	ee86 7aa7 	vdiv.f32	s14, s13, s15
 8004a8c:	4b47      	ldr	r3, [pc, #284]	; (8004bac <HAL_RCCEx_GetPLL2ClockFreq+0x280>)
 8004a8e:	6b9b      	ldr	r3, [r3, #56]	; 0x38
 8004a90:	f3c3 0308 	ubfx	r3, r3, #0, #9
 8004a94:	ee07 3a90 	vmov	s15, r3
 8004a98:	eef8 6a67 	vcvt.f32.u32	s13, s15
 8004a9c:	ed97 6a03 	vldr	s12, [r7, #12]
 8004aa0:	eddf 5a44 	vldr	s11, [pc, #272]	; 8004bb4 <HAL_RCCEx_GetPLL2ClockFreq+0x288>
 8004aa4:	eec6 7a25 	vdiv.f32	s15, s12, s11
 8004aa8:	ee76 7aa7 	vadd.f32	s15, s13, s15
 8004aac:	eef7 6a00 	vmov.f32	s13, #112	; 0x3f800000  1.0
 8004ab0:	ee77 7aa6 	vadd.f32	s15, s15, s13
 8004ab4:	ee67 7a27 	vmul.f32	s15, s14, s15
 8004ab8:	edc7 7a07 	vstr	s15, [r7, #28]
 8004abc:	e021      	b.n	8004b02 <HAL_RCCEx_GetPLL2ClockFreq+0x1d6>
 8004abe:	697b      	ldr	r3, [r7, #20]
 8004ac0:	ee07 3a90 	vmov	s15, r3
 8004ac4:	eef8 7a67 	vcvt.f32.u32	s15, s15
 8004ac8:	eddf 6a3c 	vldr	s13, [pc, #240]	; 8004bbc <HAL_RCCEx_GetPLL2ClockFreq+0x290>
 8004acc:	ee86 7aa7 	vdiv.f32	s14, s13, s15
 8004ad0:	4b36      	ldr	r3, [pc, #216]	; (8004bac <HAL_RCCEx_GetPLL2ClockFreq+0x280>)
 8004ad2:	6b9b      	ldr	r3, [r3, #56]	; 0x38
 8004ad4:	f3c3 0308 	ubfx	r3, r3, #0, #9
 8004ad8:	ee07 3a90 	vmov	s15, r3
 8004adc:	eef8 6a67 	vcvt.f32.u32	s13, s15
 8004ae0:	ed97 6a03 	vldr	s12, [r7, #12]
 8004ae4:	eddf 5a33 	vldr	s11, [pc, #204]	; 8004bb4 <HAL_RCCEx_GetPLL2ClockFreq+0x288>
 8004ae8:	eec6 7a25 	vdiv.f32	s15, s12, s11
 8004aec:	ee76 7aa7 	vadd.f32	s15, s13, s15
 8004af0:	eef7 6a00 	vmov.f32	s13, #112	; 0x3f800000  1.0
 8004af4:	ee77 7aa6 	vadd.f32	s15, s15, s13
 8004af8:	ee67 7a27 	vmul.f32	s15, s14, s15
 8004afc:	edc7 7a07 	vstr	s15, [r7, #28]
 8004b00:	bf00      	nop
 8004b02:	4b2a      	ldr	r3, [pc, #168]	; (8004bac <HAL_RCCEx_GetPLL2ClockFreq+0x280>)
 8004b04:	6b9b      	ldr	r3, [r3, #56]	; 0x38
 8004b06:	0a5b      	lsrs	r3, r3, #9
 8004b08:	f003 037f 	and.w	r3, r3, #127	; 0x7f
 8004b0c:	ee07 3a90 	vmov	s15, r3
 8004b10:	eef8 7a67 	vcvt.f32.u32	s15, s15
 8004b14:	eeb7 7a00 	vmov.f32	s14, #112	; 0x3f800000  1.0
 8004b18:	ee37 7a87 	vadd.f32	s14, s15, s14
 8004b1c:	edd7 6a07 	vldr	s13, [r7, #28]
 8004b20:	eec6 7a87 	vdiv.f32	s15, s13, s14
 8004b24:	eefc 7ae7 	vcvt.u32.f32	s15, s15
 8004b28:	ee17 2a90 	vmov	r2, s15
 8004b2c:	687b      	ldr	r3, [r7, #4]
 8004b2e:	601a      	str	r2, [r3, #0]
 8004b30:	4b1e      	ldr	r3, [pc, #120]	; (8004bac <HAL_RCCEx_GetPLL2ClockFreq+0x280>)
 8004b32:	6b9b      	ldr	r3, [r3, #56]	; 0x38
 8004b34:	0c1b      	lsrs	r3, r3, #16
 8004b36:	f003 037f 	and.w	r3, r3, #127	; 0x7f
 8004b3a:	ee07 3a90 	vmov	s15, r3
 8004b3e:	eef8 7a67 	vcvt.f32.u32	s15, s15
 8004b42:	eeb7 7a00 	vmov.f32	s14, #112	; 0x3f800000  1.0
 8004b46:	ee37 7a87 	vadd.f32	s14, s15, s14
 8004b4a:	edd7 6a07 	vldr	s13, [r7, #28]
 8004b4e:	eec6 7a87 	vdiv.f32	s15, s13, s14
 8004b52:	eefc 7ae7 	vcvt.u32.f32	s15, s15
 8004b56:	ee17 2a90 	vmov	r2, s15
 8004b5a:	687b      	ldr	r3, [r7, #4]
 8004b5c:	605a      	str	r2, [r3, #4]
 8004b5e:	4b13      	ldr	r3, [pc, #76]	; (8004bac <HAL_RCCEx_GetPLL2ClockFreq+0x280>)
 8004b60:	6b9b      	ldr	r3, [r3, #56]	; 0x38
 8004b62:	0e1b      	lsrs	r3, r3, #24
 8004b64:	f003 037f 	and.w	r3, r3, #127	; 0x7f
 8004b68:	ee07 3a90 	vmov	s15, r3
 8004b6c:	eef8 7a67 	vcvt.f32.u32	s15, s15
 8004b70:	eeb7 7a00 	vmov.f32	s14, #112	; 0x3f800000  1.0
 8004b74:	ee37 7a87 	vadd.f32	s14, s15, s14
 8004b78:	edd7 6a07 	vldr	s13, [r7, #28]
 8004b7c:	eec6 7a87 	vdiv.f32	s15, s13, s14
 8004b80:	eefc 7ae7 	vcvt.u32.f32	s15, s15
 8004b84:	ee17 2a90 	vmov	r2, s15
 8004b88:	687b      	ldr	r3, [r7, #4]
 8004b8a:	609a      	str	r2, [r3, #8]
 8004b8c:	e008      	b.n	8004ba0 <HAL_RCCEx_GetPLL2ClockFreq+0x274>
 8004b8e:	687b      	ldr	r3, [r7, #4]
 8004b90:	2200      	movs	r2, #0
 8004b92:	601a      	str	r2, [r3, #0]
 8004b94:	687b      	ldr	r3, [r7, #4]
 8004b96:	2200      	movs	r2, #0
 8004b98:	605a      	str	r2, [r3, #4]
 8004b9a:	687b      	ldr	r3, [r7, #4]
 8004b9c:	2200      	movs	r2, #0
 8004b9e:	609a      	str	r2, [r3, #8]
 8004ba0:	bf00      	nop
 8004ba2:	3724      	adds	r7, #36	; 0x24
 8004ba4:	46bd      	mov	sp, r7
 8004ba6:	f85d 7b04 	ldr.w	r7, [sp], #4
 8004baa:	4770      	bx	lr
 8004bac:	58024400 	.word	0x58024400
 8004bb0:	03d09000 	.word	0x03d09000
 8004bb4:	46000000 	.word	0x46000000
 8004bb8:	4c742400 	.word	0x4c742400
 8004bbc:	4a742400 	.word	0x4a742400
 8004bc0:	4bbebc20 	.word	0x4bbebc20

08004bc4 <HAL_RCCEx_GetPLL3ClockFreq>:
 8004bc4:	b480      	push	{r7}
 8004bc6:	b089      	sub	sp, #36	; 0x24
 8004bc8:	af00      	add	r7, sp, #0
 8004bca:	6078      	str	r0, [r7, #4]
 8004bcc:	4b9d      	ldr	r3, [pc, #628]	; (8004e44 <HAL_RCCEx_GetPLL3ClockFreq+0x280>)
 8004bce:	6a9b      	ldr	r3, [r3, #40]	; 0x28
 8004bd0:	f003 0303 	and.w	r3, r3, #3
 8004bd4:	61bb      	str	r3, [r7, #24]
 8004bd6:	4b9b      	ldr	r3, [pc, #620]	; (8004e44 <HAL_RCCEx_GetPLL3ClockFreq+0x280>)
 8004bd8:	6a9b      	ldr	r3, [r3, #40]	; 0x28
 8004bda:	0d1b      	lsrs	r3, r3, #20
 8004bdc:	f003 033f 	and.w	r3, r3, #63	; 0x3f
 8004be0:	617b      	str	r3, [r7, #20]
 8004be2:	4b98      	ldr	r3, [pc, #608]	; (8004e44 <HAL_RCCEx_GetPLL3ClockFreq+0x280>)
 8004be4:	6adb      	ldr	r3, [r3, #44]	; 0x2c
 8004be6:	0a1b      	lsrs	r3, r3, #8
 8004be8:	f003 0301 	and.w	r3, r3, #1
 8004bec:	613b      	str	r3, [r7, #16]
 8004bee:	4b95      	ldr	r3, [pc, #596]	; (8004e44 <HAL_RCCEx_GetPLL3ClockFreq+0x280>)
 8004bf0:	6c5b      	ldr	r3, [r3, #68]	; 0x44
 8004bf2:	08db      	lsrs	r3, r3, #3
 8004bf4:	f3c3 030c 	ubfx	r3, r3, #0, #13
 8004bf8:	693a      	ldr	r2, [r7, #16]
 8004bfa:	fb02 f303 	mul.w	r3, r2, r3
 8004bfe:	ee07 3a90 	vmov	s15, r3
 8004c02:	eef8 7a67 	vcvt.f32.u32	s15, s15
 8004c06:	edc7 7a03 	vstr	s15, [r7, #12]
 8004c0a:	697b      	ldr	r3, [r7, #20]
 8004c0c:	2b00      	cmp	r3, #0
 8004c0e:	f000 810a 	beq.w	8004e26 <HAL_RCCEx_GetPLL3ClockFreq+0x262>
 8004c12:	69bb      	ldr	r3, [r7, #24]
 8004c14:	2b01      	cmp	r3, #1
 8004c16:	d05a      	beq.n	8004cce <HAL_RCCEx_GetPLL3ClockFreq+0x10a>
 8004c18:	2b01      	cmp	r3, #1
 8004c1a:	d302      	bcc.n	8004c22 <HAL_RCCEx_GetPLL3ClockFreq+0x5e>
 8004c1c:	2b02      	cmp	r3, #2
 8004c1e:	d078      	beq.n	8004d12 <HAL_RCCEx_GetPLL3ClockFreq+0x14e>
 8004c20:	e099      	b.n	8004d56 <HAL_RCCEx_GetPLL3ClockFreq+0x192>
 8004c22:	4b88      	ldr	r3, [pc, #544]	; (8004e44 <HAL_RCCEx_GetPLL3ClockFreq+0x280>)
 8004c24:	681b      	ldr	r3, [r3, #0]
 8004c26:	f003 0320 	and.w	r3, r3, #32
 8004c2a:	2b00      	cmp	r3, #0
 8004c2c:	d02d      	beq.n	8004c8a <HAL_RCCEx_GetPLL3ClockFreq+0xc6>
 8004c2e:	4b85      	ldr	r3, [pc, #532]	; (8004e44 <HAL_RCCEx_GetPLL3ClockFreq+0x280>)
 8004c30:	681b      	ldr	r3, [r3, #0]
 8004c32:	08db      	lsrs	r3, r3, #3
 8004c34:	f003 0303 	and.w	r3, r3, #3
 8004c38:	4a83      	ldr	r2, [pc, #524]	; (8004e48 <HAL_RCCEx_GetPLL3ClockFreq+0x284>)
 8004c3a:	fa22 f303 	lsr.w	r3, r2, r3
 8004c3e:	60bb      	str	r3, [r7, #8]
 8004c40:	68bb      	ldr	r3, [r7, #8]
 8004c42:	ee07 3a90 	vmov	s15, r3
 8004c46:	eef8 6a67 	vcvt.f32.u32	s13, s15
 8004c4a:	697b      	ldr	r3, [r7, #20]
 8004c4c:	ee07 3a90 	vmov	s15, r3
 8004c50:	eef8 7a67 	vcvt.f32.u32	s15, s15
 8004c54:	ee86 7aa7 	vdiv.f32	s14, s13, s15
 8004c58:	4b7a      	ldr	r3, [pc, #488]	; (8004e44 <HAL_RCCEx_GetPLL3ClockFreq+0x280>)
 8004c5a:	6c1b      	ldr	r3, [r3, #64]	; 0x40
 8004c5c:	f3c3 0308 	ubfx	r3, r3, #0, #9
 8004c60:	ee07 3a90 	vmov	s15, r3
 8004c64:	eef8 6a67 	vcvt.f32.u32	s13, s15
 8004c68:	ed97 6a03 	vldr	s12, [r7, #12]
 8004c6c:	eddf 5a77 	vldr	s11, [pc, #476]	; 8004e4c <HAL_RCCEx_GetPLL3ClockFreq+0x288>
 8004c70:	eec6 7a25 	vdiv.f32	s15, s12, s11
 8004c74:	ee76 7aa7 	vadd.f32	s15, s13, s15
 8004c78:	eef7 6a00 	vmov.f32	s13, #112	; 0x3f800000  1.0
 8004c7c:	ee77 7aa6 	vadd.f32	s15, s15, s13
 8004c80:	ee67 7a27 	vmul.f32	s15, s14, s15
 8004c84:	edc7 7a07 	vstr	s15, [r7, #28]
 8004c88:	e087      	b.n	8004d9a <HAL_RCCEx_GetPLL3ClockFreq+0x1d6>
 8004c8a:	697b      	ldr	r3, [r7, #20]
 8004c8c:	ee07 3a90 	vmov	s15, r3
 8004c90:	eef8 7a67 	vcvt.f32.u32	s15, s15
 8004c94:	eddf 6a6e 	vldr	s13, [pc, #440]	; 8004e50 <HAL_RCCEx_GetPLL3ClockFreq+0x28c>
 8004c98:	ee86 7aa7 	vdiv.f32	s14, s13, s15
 8004c9c:	4b69      	ldr	r3, [pc, #420]	; (8004e44 <HAL_RCCEx_GetPLL3ClockFreq+0x280>)
 8004c9e:	6c1b      	ldr	r3, [r3, #64]	; 0x40
 8004ca0:	f3c3 0308 	ubfx	r3, r3, #0, #9
 8004ca4:	ee07 3a90 	vmov	s15, r3
 8004ca8:	eef8 6a67 	vcvt.f32.u32	s13, s15
 8004cac:	ed97 6a03 	vldr	s12, [r7, #12]
 8004cb0:	eddf 5a66 	vldr	s11, [pc, #408]	; 8004e4c <HAL_RCCEx_GetPLL3ClockFreq+0x288>
 8004cb4:	eec6 7a25 	vdiv.f32	s15, s12, s11
 8004cb8:	ee76 7aa7 	vadd.f32	s15, s13, s15
 8004cbc:	eef7 6a00 	vmov.f32	s13, #112	; 0x3f800000  1.0
 8004cc0:	ee77 7aa6 	vadd.f32	s15, s15, s13
 8004cc4:	ee67 7a27 	vmul.f32	s15, s14, s15
 8004cc8:	edc7 7a07 	vstr	s15, [r7, #28]
 8004ccc:	e065      	b.n	8004d9a <HAL_RCCEx_GetPLL3ClockFreq+0x1d6>
 8004cce:	697b      	ldr	r3, [r7, #20]
 8004cd0:	ee07 3a90 	vmov	s15, r3
 8004cd4:	eef8 7a67 	vcvt.f32.u32	s15, s15
 8004cd8:	eddf 6a5e 	vldr	s13, [pc, #376]	; 8004e54 <HAL_RCCEx_GetPLL3ClockFreq+0x290>
 8004cdc:	ee86 7aa7 	vdiv.f32	s14, s13, s15
 8004ce0:	4b58      	ldr	r3, [pc, #352]	; (8004e44 <HAL_RCCEx_GetPLL3ClockFreq+0x280>)
 8004ce2:	6c1b      	ldr	r3, [r3, #64]	; 0x40
 8004ce4:	f3c3 0308 	ubfx	r3, r3, #0, #9
 8004ce8:	ee07 3a90 	vmov	s15, r3
 8004cec:	eef8 6a67 	vcvt.f32.u32	s13, s15
 8004cf0:	ed97 6a03 	vldr	s12, [r7, #12]
 8004cf4:	eddf 5a55 	vldr	s11, [pc, #340]	; 8004e4c <HAL_RCCEx_GetPLL3ClockFreq+0x288>
 8004cf8:	eec6 7a25 	vdiv.f32	s15, s12, s11
 8004cfc:	ee76 7aa7 	vadd.f32	s15, s13, s15
 8004d00:	eef7 6a00 	vmov.f32	s13, #112	; 0x3f800000  1.0
 8004d04:	ee77 7aa6 	vadd.f32	s15, s15, s13
 8004d08:	ee67 7a27 	vmul.f32	s15, s14, s15
 8004d0c:	edc7 7a07 	vstr	s15, [r7, #28]
 8004d10:	e043      	b.n	8004d9a <HAL_RCCEx_GetPLL3ClockFreq+0x1d6>
 8004d12:	697b      	ldr	r3, [r7, #20]
 8004d14:	ee07 3a90 	vmov	s15, r3
 8004d18:	eef8 7a67 	vcvt.f32.u32	s15, s15
 8004d1c:	eddf 6a4e 	vldr	s13, [pc, #312]	; 8004e58 <HAL_RCCEx_GetPLL3ClockFreq+0x294>
 8004d20:	ee86 7aa7 	vdiv.f32	s14, s13, s15
 8004d24:	4b47      	ldr	r3, [pc, #284]	; (8004e44 <HAL_RCCEx_GetPLL3ClockFreq+0x280>)
 8004d26:	6c1b      	ldr	r3, [r3, #64]	; 0x40
 8004d28:	f3c3 0308 	ubfx	r3, r3, #0, #9
 8004d2c:	ee07 3a90 	vmov	s15, r3
 8004d30:	eef8 6a67 	vcvt.f32.u32	s13, s15
 8004d34:	ed97 6a03 	vldr	s12, [r7, #12]
 8004d38:	eddf 5a44 	vldr	s11, [pc, #272]	; 8004e4c <HAL_RCCEx_GetPLL3ClockFreq+0x288>
 8004d3c:	eec6 7a25 	vdiv.f32	s15, s12, s11
 8004d40:	ee76 7aa7 	vadd.f32	s15, s13, s15
 8004d44:	eef7 6a00 	vmov.f32	s13, #112	; 0x3f800000  1.0
 8004d48:	ee77 7aa6 	vadd.f32	s15, s15, s13
 8004d4c:	ee67 7a27 	vmul.f32	s15, s14, s15
 8004d50:	edc7 7a07 	vstr	s15, [r7, #28]
 8004d54:	e021      	b.n	8004d9a <HAL_RCCEx_GetPLL3ClockFreq+0x1d6>
 8004d56:	697b      	ldr	r3, [r7, #20]
 8004d58:	ee07 3a90 	vmov	s15, r3
 8004d5c:	eef8 7a67 	vcvt.f32.u32	s15, s15
 8004d60:	eddf 6a3c 	vldr	s13, [pc, #240]	; 8004e54 <HAL_RCCEx_GetPLL3ClockFreq+0x290>
 8004d64:	ee86 7aa7 	vdiv.f32	s14, s13, s15
 8004d68:	4b36      	ldr	r3, [pc, #216]	; (8004e44 <HAL_RCCEx_GetPLL3ClockFreq+0x280>)
 8004d6a:	6c1b      	ldr	r3, [r3, #64]	; 0x40
 8004d6c:	f3c3 0308 	ubfx	r3, r3, #0, #9
 8004d70:	ee07 3a90 	vmov	s15, r3
 8004d74:	eef8 6a67 	vcvt.f32.u32	s13, s15
 8004d78:	ed97 6a03 	vldr	s12, [r7, #12]
 8004d7c:	eddf 5a33 	vldr	s11, [pc, #204]	; 8004e4c <HAL_RCCEx_GetPLL3ClockFreq+0x288>
 8004d80:	eec6 7a25 	vdiv.f32	s15, s12, s11
 8004d84:	ee76 7aa7 	vadd.f32	s15, s13, s15
 8004d88:	eef7 6a00 	vmov.f32	s13, #112	; 0x3f800000  1.0
 8004d8c:	ee77 7aa6 	vadd.f32	s15, s15, s13
 8004d90:	ee67 7a27 	vmul.f32	s15, s14, s15
 8004d94:	edc7 7a07 	vstr	s15, [r7, #28]
 8004d98:	bf00      	nop
 8004d9a:	4b2a      	ldr	r3, [pc, #168]	; (8004e44 <HAL_RCCEx_GetPLL3ClockFreq+0x280>)
 8004d9c:	6c1b      	ldr	r3, [r3, #64]	; 0x40
 8004d9e:	0a5b      	lsrs	r3, r3, #9
 8004da0:	f003 037f 	and.w	r3, r3, #127	; 0x7f
 8004da4:	ee07 3a90 	vmov	s15, r3
 8004da8:	eef8 7a67 	vcvt.f32.u32	s15, s15
 8004dac:	eeb7 7a00 	vmov.f32	s14, #112	; 0x3f800000  1.0
 8004db0:	ee37 7a87 	vadd.f32	s14, s15, s14
 8004db4:	edd7 6a07 	vldr	s13, [r7, #28]
 8004db8:	eec6 7a87 	vdiv.f32	s15, s13, s14
 8004dbc:	eefc 7ae7 	vcvt.u32.f32	s15, s15
 8004dc0:	ee17 2a90 	vmov	r2, s15
 8004dc4:	687b      	ldr	r3, [r7, #4]
 8004dc6:	601a      	str	r2, [r3, #0]
 8004dc8:	4b1e      	ldr	r3, [pc, #120]	; (8004e44 <HAL_RCCEx_GetPLL3ClockFreq+0x280>)
 8004dca:	6c1b      	ldr	r3, [r3, #64]	; 0x40
 8004dcc:	0c1b      	lsrs	r3, r3, #16
 8004dce:	f003 037f 	and.w	r3, r3, #127	; 0x7f
 8004dd2:	ee07 3a90 	vmov	s15, r3
 8004dd6:	eef8 7a67 	vcvt.f32.u32	s15, s15
 8004dda:	eeb7 7a00 	vmov.f32	s14, #112	; 0x3f800000  1.0
 8004dde:	ee37 7a87 	vadd.f32	s14, s15, s14
 8004de2:	edd7 6a07 	vldr	s13, [r7, #28]
 8004de6:	eec6 7a87 	vdiv.f32	s15, s13, s14
 8004dea:	eefc 7ae7 	vcvt.u32.f32	s15, s15
 8004dee:	ee17 2a90 	vmov	r2, s15
 8004df2:	687b      	ldr	r3, [r7, #4]
 8004df4:	605a      	str	r2, [r3, #4]
 8004df6:	4b13      	ldr	r3, [pc, #76]	; (8004e44 <HAL_RCCEx_GetPLL3ClockFreq+0x280>)
 8004df8:	6c1b      	ldr	r3, [r3, #64]	; 0x40
 8004dfa:	0e1b      	lsrs	r3, r3, #24
 8004dfc:	f003 037f 	and.w	r3, r3, #127	; 0x7f
 8004e00:	ee07 3a90 	vmov	s15, r3
 8004e04:	eef8 7a67 	vcvt.f32.u32	s15, s15
 8004e08:	eeb7 7a00 	vmov.f32	s14, #112	; 0x3f800000  1.0
 8004e0c:	ee37 7a87 	vadd.f32	s14, s15, s14
 8004e10:	edd7 6a07 	vldr	s13, [r7, #28]
 8004e14:	eec6 7a87 	vdiv.f32	s15, s13, s14
 8004e18:	eefc 7ae7 	vcvt.u32.f32	s15, s15
 8004e1c:	ee17 2a90 	vmov	r2, s15
 8004e20:	687b      	ldr	r3, [r7, #4]
 8004e22:	609a      	str	r2, [r3, #8]
 8004e24:	e008      	b.n	8004e38 <HAL_RCCEx_GetPLL3ClockFreq+0x274>
 8004e26:	687b      	ldr	r3, [r7, #4]
 8004e28:	2200      	movs	r2, #0
 8004e2a:	601a      	str	r2, [r3, #0]
 8004e2c:	687b      	ldr	r3, [r7, #4]
 8004e2e:	2200      	movs	r2, #0
 8004e30:	605a      	str	r2, [r3, #4]
 8004e32:	687b      	ldr	r3, [r7, #4]
 8004e34:	2200      	movs	r2, #0
 8004e36:	609a      	str	r2, [r3, #8]
 8004e38:	bf00      	nop
 8004e3a:	3724      	adds	r7, #36	; 0x24
 8004e3c:	46bd      	mov	sp, r7
 8004e3e:	f85d 7b04 	ldr.w	r7, [sp], #4
 8004e42:	4770      	bx	lr
 8004e44:	58024400 	.word	0x58024400
 8004e48:	03d09000 	.word	0x03d09000
 8004e4c:	46000000 	.word	0x46000000
 8004e50:	4c742400 	.word	0x4c742400
 8004e54:	4a742400 	.word	0x4a742400
 8004e58:	4bbebc20 	.word	0x4bbebc20

08004e5c <RCCEx_PLL2_Config>:
 8004e5c:	b580      	push	{r7, lr}
 8004e5e:	b084      	sub	sp, #16
 8004e60:	af00      	add	r7, sp, #0
 8004e62:	6078      	str	r0, [r7, #4]
 8004e64:	6039      	str	r1, [r7, #0]
 8004e66:	2300      	movs	r3, #0
 8004e68:	73fb      	strb	r3, [r7, #15]
 8004e6a:	4b53      	ldr	r3, [pc, #332]	; (8004fb8 <RCCEx_PLL2_Config+0x15c>)
 8004e6c:	6a9b      	ldr	r3, [r3, #40]	; 0x28
 8004e6e:	f003 0303 	and.w	r3, r3, #3
 8004e72:	2b03      	cmp	r3, #3
 8004e74:	d101      	bne.n	8004e7a <RCCEx_PLL2_Config+0x1e>
 8004e76:	2301      	movs	r3, #1
 8004e78:	e099      	b.n	8004fae <RCCEx_PLL2_Config+0x152>
 8004e7a:	4b4f      	ldr	r3, [pc, #316]	; (8004fb8 <RCCEx_PLL2_Config+0x15c>)
 8004e7c:	681b      	ldr	r3, [r3, #0]
 8004e7e:	4a4e      	ldr	r2, [pc, #312]	; (8004fb8 <RCCEx_PLL2_Config+0x15c>)
 8004e80:	f023 6380 	bic.w	r3, r3, #67108864	; 0x4000000
 8004e84:	6013      	str	r3, [r2, #0]
 8004e86:	f7fc fa53 	bl	8001330 <HAL_GetTick>
 8004e8a:	60b8      	str	r0, [r7, #8]
 8004e8c:	e008      	b.n	8004ea0 <RCCEx_PLL2_Config+0x44>
 8004e8e:	f7fc fa4f 	bl	8001330 <HAL_GetTick>
 8004e92:	4602      	mov	r2, r0
 8004e94:	68bb      	ldr	r3, [r7, #8]
 8004e96:	1ad3      	subs	r3, r2, r3
 8004e98:	2b02      	cmp	r3, #2
 8004e9a:	d901      	bls.n	8004ea0 <RCCEx_PLL2_Config+0x44>
 8004e9c:	2303      	movs	r3, #3
 8004e9e:	e086      	b.n	8004fae <RCCEx_PLL2_Config+0x152>
 8004ea0:	4b45      	ldr	r3, [pc, #276]	; (8004fb8 <RCCEx_PLL2_Config+0x15c>)
 8004ea2:	681b      	ldr	r3, [r3, #0]
 8004ea4:	f003 6300 	and.w	r3, r3, #134217728	; 0x8000000
 8004ea8:	2b00      	cmp	r3, #0
 8004eaa:	d1f0      	bne.n	8004e8e <RCCEx_PLL2_Config+0x32>
 8004eac:	4b42      	ldr	r3, [pc, #264]	; (8004fb8 <RCCEx_PLL2_Config+0x15c>)
 8004eae:	6a9b      	ldr	r3, [r3, #40]	; 0x28
 8004eb0:	f423 327c 	bic.w	r2, r3, #258048	; 0x3f000
 8004eb4:	687b      	ldr	r3, [r7, #4]
 8004eb6:	681b      	ldr	r3, [r3, #0]
 8004eb8:	031b      	lsls	r3, r3, #12
 8004eba:	493f      	ldr	r1, [pc, #252]	; (8004fb8 <RCCEx_PLL2_Config+0x15c>)
 8004ebc:	4313      	orrs	r3, r2
 8004ebe:	628b      	str	r3, [r1, #40]	; 0x28
 8004ec0:	687b      	ldr	r3, [r7, #4]
 8004ec2:	685b      	ldr	r3, [r3, #4]
 8004ec4:	3b01      	subs	r3, #1
 8004ec6:	f3c3 0208 	ubfx	r2, r3, #0, #9
 8004eca:	687b      	ldr	r3, [r7, #4]
 8004ecc:	689b      	ldr	r3, [r3, #8]
 8004ece:	3b01      	subs	r3, #1
 8004ed0:	025b      	lsls	r3, r3, #9
 8004ed2:	b29b      	uxth	r3, r3
 8004ed4:	431a      	orrs	r2, r3
 8004ed6:	687b      	ldr	r3, [r7, #4]
 8004ed8:	68db      	ldr	r3, [r3, #12]
 8004eda:	3b01      	subs	r3, #1
 8004edc:	041b      	lsls	r3, r3, #16
 8004ede:	f403 03fe 	and.w	r3, r3, #8323072	; 0x7f0000
 8004ee2:	431a      	orrs	r2, r3
 8004ee4:	687b      	ldr	r3, [r7, #4]
 8004ee6:	691b      	ldr	r3, [r3, #16]
 8004ee8:	3b01      	subs	r3, #1
 8004eea:	061b      	lsls	r3, r3, #24
 8004eec:	f003 43fe 	and.w	r3, r3, #2130706432	; 0x7f000000
 8004ef0:	4931      	ldr	r1, [pc, #196]	; (8004fb8 <RCCEx_PLL2_Config+0x15c>)
 8004ef2:	4313      	orrs	r3, r2
 8004ef4:	638b      	str	r3, [r1, #56]	; 0x38
 8004ef6:	4b30      	ldr	r3, [pc, #192]	; (8004fb8 <RCCEx_PLL2_Config+0x15c>)
 8004ef8:	6adb      	ldr	r3, [r3, #44]	; 0x2c
 8004efa:	f023 02c0 	bic.w	r2, r3, #192	; 0xc0
 8004efe:	687b      	ldr	r3, [r7, #4]
 8004f00:	695b      	ldr	r3, [r3, #20]
 8004f02:	492d      	ldr	r1, [pc, #180]	; (8004fb8 <RCCEx_PLL2_Config+0x15c>)
 8004f04:	4313      	orrs	r3, r2
 8004f06:	62cb      	str	r3, [r1, #44]	; 0x2c
 8004f08:	4b2b      	ldr	r3, [pc, #172]	; (8004fb8 <RCCEx_PLL2_Config+0x15c>)
 8004f0a:	6adb      	ldr	r3, [r3, #44]	; 0x2c
 8004f0c:	f023 0220 	bic.w	r2, r3, #32
 8004f10:	687b      	ldr	r3, [r7, #4]
 8004f12:	699b      	ldr	r3, [r3, #24]
 8004f14:	4928      	ldr	r1, [pc, #160]	; (8004fb8 <RCCEx_PLL2_Config+0x15c>)
 8004f16:	4313      	orrs	r3, r2
 8004f18:	62cb      	str	r3, [r1, #44]	; 0x2c
 8004f1a:	4b27      	ldr	r3, [pc, #156]	; (8004fb8 <RCCEx_PLL2_Config+0x15c>)
 8004f1c:	6adb      	ldr	r3, [r3, #44]	; 0x2c
 8004f1e:	4a26      	ldr	r2, [pc, #152]	; (8004fb8 <RCCEx_PLL2_Config+0x15c>)
 8004f20:	f023 0310 	bic.w	r3, r3, #16
 8004f24:	62d3      	str	r3, [r2, #44]	; 0x2c
 8004f26:	4b24      	ldr	r3, [pc, #144]	; (8004fb8 <RCCEx_PLL2_Config+0x15c>)
 8004f28:	6bda      	ldr	r2, [r3, #60]	; 0x3c
 8004f2a:	4b24      	ldr	r3, [pc, #144]	; (8004fbc <RCCEx_PLL2_Config+0x160>)
 8004f2c:	4013      	ands	r3, r2
 8004f2e:	687a      	ldr	r2, [r7, #4]
 8004f30:	69d2      	ldr	r2, [r2, #28]
 8004f32:	00d2      	lsls	r2, r2, #3
 8004f34:	4920      	ldr	r1, [pc, #128]	; (8004fb8 <RCCEx_PLL2_Config+0x15c>)
 8004f36:	4313      	orrs	r3, r2
 8004f38:	63cb      	str	r3, [r1, #60]	; 0x3c
 8004f3a:	4b1f      	ldr	r3, [pc, #124]	; (8004fb8 <RCCEx_PLL2_Config+0x15c>)
 8004f3c:	6adb      	ldr	r3, [r3, #44]	; 0x2c
 8004f3e:	4a1e      	ldr	r2, [pc, #120]	; (8004fb8 <RCCEx_PLL2_Config+0x15c>)
 8004f40:	f043 0310 	orr.w	r3, r3, #16
 8004f44:	62d3      	str	r3, [r2, #44]	; 0x2c
 8004f46:	683b      	ldr	r3, [r7, #0]
 8004f48:	2b00      	cmp	r3, #0
 8004f4a:	d106      	bne.n	8004f5a <RCCEx_PLL2_Config+0xfe>
 8004f4c:	4b1a      	ldr	r3, [pc, #104]	; (8004fb8 <RCCEx_PLL2_Config+0x15c>)
 8004f4e:	6adb      	ldr	r3, [r3, #44]	; 0x2c
 8004f50:	4a19      	ldr	r2, [pc, #100]	; (8004fb8 <RCCEx_PLL2_Config+0x15c>)
 8004f52:	f443 2300 	orr.w	r3, r3, #524288	; 0x80000
 8004f56:	62d3      	str	r3, [r2, #44]	; 0x2c
 8004f58:	e00f      	b.n	8004f7a <RCCEx_PLL2_Config+0x11e>
 8004f5a:	683b      	ldr	r3, [r7, #0]
 8004f5c:	2b01      	cmp	r3, #1
 8004f5e:	d106      	bne.n	8004f6e <RCCEx_PLL2_Config+0x112>
 8004f60:	4b15      	ldr	r3, [pc, #84]	; (8004fb8 <RCCEx_PLL2_Config+0x15c>)
 8004f62:	6adb      	ldr	r3, [r3, #44]	; 0x2c
 8004f64:	4a14      	ldr	r2, [pc, #80]	; (8004fb8 <RCCEx_PLL2_Config+0x15c>)
 8004f66:	f443 1380 	orr.w	r3, r3, #1048576	; 0x100000
 8004f6a:	62d3      	str	r3, [r2, #44]	; 0x2c
 8004f6c:	e005      	b.n	8004f7a <RCCEx_PLL2_Config+0x11e>
 8004f6e:	4b12      	ldr	r3, [pc, #72]	; (8004fb8 <RCCEx_PLL2_Config+0x15c>)
 8004f70:	6adb      	ldr	r3, [r3, #44]	; 0x2c
 8004f72:	4a11      	ldr	r2, [pc, #68]	; (8004fb8 <RCCEx_PLL2_Config+0x15c>)
 8004f74:	f443 1300 	orr.w	r3, r3, #2097152	; 0x200000
 8004f78:	62d3      	str	r3, [r2, #44]	; 0x2c
 8004f7a:	4b0f      	ldr	r3, [pc, #60]	; (8004fb8 <RCCEx_PLL2_Config+0x15c>)
 8004f7c:	681b      	ldr	r3, [r3, #0]
 8004f7e:	4a0e      	ldr	r2, [pc, #56]	; (8004fb8 <RCCEx_PLL2_Config+0x15c>)
 8004f80:	f043 6380 	orr.w	r3, r3, #67108864	; 0x4000000
 8004f84:	6013      	str	r3, [r2, #0]
 8004f86:	f7fc f9d3 	bl	8001330 <HAL_GetTick>
 8004f8a:	60b8      	str	r0, [r7, #8]
 8004f8c:	e008      	b.n	8004fa0 <RCCEx_PLL2_Config+0x144>
 8004f8e:	f7fc f9cf 	bl	8001330 <HAL_GetTick>
 8004f92:	4602      	mov	r2, r0
 8004f94:	68bb      	ldr	r3, [r7, #8]
 8004f96:	1ad3      	subs	r3, r2, r3
 8004f98:	2b02      	cmp	r3, #2
 8004f9a:	d901      	bls.n	8004fa0 <RCCEx_PLL2_Config+0x144>
 8004f9c:	2303      	movs	r3, #3
 8004f9e:	e006      	b.n	8004fae <RCCEx_PLL2_Config+0x152>
 8004fa0:	4b05      	ldr	r3, [pc, #20]	; (8004fb8 <RCCEx_PLL2_Config+0x15c>)
 8004fa2:	681b      	ldr	r3, [r3, #0]
 8004fa4:	f003 6300 	and.w	r3, r3, #134217728	; 0x8000000
 8004fa8:	2b00      	cmp	r3, #0
 8004faa:	d0f0      	beq.n	8004f8e <RCCEx_PLL2_Config+0x132>
 8004fac:	7bfb      	ldrb	r3, [r7, #15]
 8004fae:	4618      	mov	r0, r3
 8004fb0:	3710      	adds	r7, #16
 8004fb2:	46bd      	mov	sp, r7
 8004fb4:	bd80      	pop	{r7, pc}
 8004fb6:	bf00      	nop
 8004fb8:	58024400 	.word	0x58024400
 8004fbc:	ffff0007 	.word	0xffff0007

08004fc0 <RCCEx_PLL3_Config>:
 8004fc0:	b580      	push	{r7, lr}
 8004fc2:	b084      	sub	sp, #16
 8004fc4:	af00      	add	r7, sp, #0
 8004fc6:	6078      	str	r0, [r7, #4]
 8004fc8:	6039      	str	r1, [r7, #0]
 8004fca:	2300      	movs	r3, #0
 8004fcc:	73fb      	strb	r3, [r7, #15]
 8004fce:	4b53      	ldr	r3, [pc, #332]	; (800511c <RCCEx_PLL3_Config+0x15c>)
 8004fd0:	6a9b      	ldr	r3, [r3, #40]	; 0x28
 8004fd2:	f003 0303 	and.w	r3, r3, #3
 8004fd6:	2b03      	cmp	r3, #3
 8004fd8:	d101      	bne.n	8004fde <RCCEx_PLL3_Config+0x1e>
 8004fda:	2301      	movs	r3, #1
 8004fdc:	e099      	b.n	8005112 <RCCEx_PLL3_Config+0x152>
 8004fde:	4b4f      	ldr	r3, [pc, #316]	; (800511c <RCCEx_PLL3_Config+0x15c>)
 8004fe0:	681b      	ldr	r3, [r3, #0]
 8004fe2:	4a4e      	ldr	r2, [pc, #312]	; (800511c <RCCEx_PLL3_Config+0x15c>)
 8004fe4:	f023 5380 	bic.w	r3, r3, #268435456	; 0x10000000
 8004fe8:	6013      	str	r3, [r2, #0]
 8004fea:	f7fc f9a1 	bl	8001330 <HAL_GetTick>
 8004fee:	60b8      	str	r0, [r7, #8]
 8004ff0:	e008      	b.n	8005004 <RCCEx_PLL3_Config+0x44>
 8004ff2:	f7fc f99d 	bl	8001330 <HAL_GetTick>
 8004ff6:	4602      	mov	r2, r0
 8004ff8:	68bb      	ldr	r3, [r7, #8]
 8004ffa:	1ad3      	subs	r3, r2, r3
 8004ffc:	2b02      	cmp	r3, #2
 8004ffe:	d901      	bls.n	8005004 <RCCEx_PLL3_Config+0x44>
 8005000:	2303      	movs	r3, #3
 8005002:	e086      	b.n	8005112 <RCCEx_PLL3_Config+0x152>
 8005004:	4b45      	ldr	r3, [pc, #276]	; (800511c <RCCEx_PLL3_Config+0x15c>)
 8005006:	681b      	ldr	r3, [r3, #0]
 8005008:	f003 5300 	and.w	r3, r3, #536870912	; 0x20000000
 800500c:	2b00      	cmp	r3, #0
 800500e:	d1f0      	bne.n	8004ff2 <RCCEx_PLL3_Config+0x32>
 8005010:	4b42      	ldr	r3, [pc, #264]	; (800511c <RCCEx_PLL3_Config+0x15c>)
 8005012:	6a9b      	ldr	r3, [r3, #40]	; 0x28
 8005014:	f023 727c 	bic.w	r2, r3, #66060288	; 0x3f00000
 8005018:	687b      	ldr	r3, [r7, #4]
 800501a:	681b      	ldr	r3, [r3, #0]
 800501c:	051b      	lsls	r3, r3, #20
 800501e:	493f      	ldr	r1, [pc, #252]	; (800511c <RCCEx_PLL3_Config+0x15c>)
 8005020:	4313      	orrs	r3, r2
 8005022:	628b      	str	r3, [r1, #40]	; 0x28
 8005024:	687b      	ldr	r3, [r7, #4]
 8005026:	685b      	ldr	r3, [r3, #4]
 8005028:	3b01      	subs	r3, #1
 800502a:	f3c3 0208 	ubfx	r2, r3, #0, #9
 800502e:	687b      	ldr	r3, [r7, #4]
 8005030:	689b      	ldr	r3, [r3, #8]
 8005032:	3b01      	subs	r3, #1
 8005034:	025b      	lsls	r3, r3, #9
 8005036:	b29b      	uxth	r3, r3
 8005038:	431a      	orrs	r2, r3
 800503a:	687b      	ldr	r3, [r7, #4]
 800503c:	68db      	ldr	r3, [r3, #12]
 800503e:	3b01      	subs	r3, #1
 8005040:	041b      	lsls	r3, r3, #16
 8005042:	f403 03fe 	and.w	r3, r3, #8323072	; 0x7f0000
 8005046:	431a      	orrs	r2, r3
 8005048:	687b      	ldr	r3, [r7, #4]
 800504a:	691b      	ldr	r3, [r3, #16]
 800504c:	3b01      	subs	r3, #1
 800504e:	061b      	lsls	r3, r3, #24
 8005050:	f003 43fe 	and.w	r3, r3, #2130706432	; 0x7f000000
 8005054:	4931      	ldr	r1, [pc, #196]	; (800511c <RCCEx_PLL3_Config+0x15c>)
 8005056:	4313      	orrs	r3, r2
 8005058:	640b      	str	r3, [r1, #64]	; 0x40
 800505a:	4b30      	ldr	r3, [pc, #192]	; (800511c <RCCEx_PLL3_Config+0x15c>)
 800505c:	6adb      	ldr	r3, [r3, #44]	; 0x2c
 800505e:	f423 6240 	bic.w	r2, r3, #3072	; 0xc00
 8005062:	687b      	ldr	r3, [r7, #4]
 8005064:	695b      	ldr	r3, [r3, #20]
 8005066:	492d      	ldr	r1, [pc, #180]	; (800511c <RCCEx_PLL3_Config+0x15c>)
 8005068:	4313      	orrs	r3, r2
 800506a:	62cb      	str	r3, [r1, #44]	; 0x2c
 800506c:	4b2b      	ldr	r3, [pc, #172]	; (800511c <RCCEx_PLL3_Config+0x15c>)
 800506e:	6adb      	ldr	r3, [r3, #44]	; 0x2c
 8005070:	f423 7200 	bic.w	r2, r3, #512	; 0x200
 8005074:	687b      	ldr	r3, [r7, #4]
 8005076:	699b      	ldr	r3, [r3, #24]
 8005078:	4928      	ldr	r1, [pc, #160]	; (800511c <RCCEx_PLL3_Config+0x15c>)
 800507a:	4313      	orrs	r3, r2
 800507c:	62cb      	str	r3, [r1, #44]	; 0x2c
 800507e:	4b27      	ldr	r3, [pc, #156]	; (800511c <RCCEx_PLL3_Config+0x15c>)
 8005080:	6adb      	ldr	r3, [r3, #44]	; 0x2c
 8005082:	4a26      	ldr	r2, [pc, #152]	; (800511c <RCCEx_PLL3_Config+0x15c>)
 8005084:	f423 7380 	bic.w	r3, r3, #256	; 0x100
 8005088:	62d3      	str	r3, [r2, #44]	; 0x2c
 800508a:	4b24      	ldr	r3, [pc, #144]	; (800511c <RCCEx_PLL3_Config+0x15c>)
 800508c:	6c5a      	ldr	r2, [r3, #68]	; 0x44
 800508e:	4b24      	ldr	r3, [pc, #144]	; (8005120 <RCCEx_PLL3_Config+0x160>)
 8005090:	4013      	ands	r3, r2
 8005092:	687a      	ldr	r2, [r7, #4]
 8005094:	69d2      	ldr	r2, [r2, #28]
 8005096:	00d2      	lsls	r2, r2, #3
 8005098:	4920      	ldr	r1, [pc, #128]	; (800511c <RCCEx_PLL3_Config+0x15c>)
 800509a:	4313      	orrs	r3, r2
 800509c:	644b      	str	r3, [r1, #68]	; 0x44
 800509e:	4b1f      	ldr	r3, [pc, #124]	; (800511c <RCCEx_PLL3_Config+0x15c>)
 80050a0:	6adb      	ldr	r3, [r3, #44]	; 0x2c
 80050a2:	4a1e      	ldr	r2, [pc, #120]	; (800511c <RCCEx_PLL3_Config+0x15c>)
 80050a4:	f443 7380 	orr.w	r3, r3, #256	; 0x100
 80050a8:	62d3      	str	r3, [r2, #44]	; 0x2c
 80050aa:	683b      	ldr	r3, [r7, #0]
 80050ac:	2b00      	cmp	r3, #0
 80050ae:	d106      	bne.n	80050be <RCCEx_PLL3_Config+0xfe>
 80050b0:	4b1a      	ldr	r3, [pc, #104]	; (800511c <RCCEx_PLL3_Config+0x15c>)
 80050b2:	6adb      	ldr	r3, [r3, #44]	; 0x2c
 80050b4:	4a19      	ldr	r2, [pc, #100]	; (800511c <RCCEx_PLL3_Config+0x15c>)
 80050b6:	f443 0380 	orr.w	r3, r3, #4194304	; 0x400000
 80050ba:	62d3      	str	r3, [r2, #44]	; 0x2c
 80050bc:	e00f      	b.n	80050de <RCCEx_PLL3_Config+0x11e>
 80050be:	683b      	ldr	r3, [r7, #0]
 80050c0:	2b01      	cmp	r3, #1
 80050c2:	d106      	bne.n	80050d2 <RCCEx_PLL3_Config+0x112>
 80050c4:	4b15      	ldr	r3, [pc, #84]	; (800511c <RCCEx_PLL3_Config+0x15c>)
 80050c6:	6adb      	ldr	r3, [r3, #44]	; 0x2c
 80050c8:	4a14      	ldr	r2, [pc, #80]	; (800511c <RCCEx_PLL3_Config+0x15c>)
 80050ca:	f443 0300 	orr.w	r3, r3, #8388608	; 0x800000
 80050ce:	62d3      	str	r3, [r2, #44]	; 0x2c
 80050d0:	e005      	b.n	80050de <RCCEx_PLL3_Config+0x11e>
 80050d2:	4b12      	ldr	r3, [pc, #72]	; (800511c <RCCEx_PLL3_Config+0x15c>)
 80050d4:	6adb      	ldr	r3, [r3, #44]	; 0x2c
 80050d6:	4a11      	ldr	r2, [pc, #68]	; (800511c <RCCEx_PLL3_Config+0x15c>)
 80050d8:	f043 7380 	orr.w	r3, r3, #16777216	; 0x1000000
 80050dc:	62d3      	str	r3, [r2, #44]	; 0x2c
 80050de:	4b0f      	ldr	r3, [pc, #60]	; (800511c <RCCEx_PLL3_Config+0x15c>)
 80050e0:	681b      	ldr	r3, [r3, #0]
 80050e2:	4a0e      	ldr	r2, [pc, #56]	; (800511c <RCCEx_PLL3_Config+0x15c>)
 80050e4:	f043 5380 	orr.w	r3, r3, #268435456	; 0x10000000
 80050e8:	6013      	str	r3, [r2, #0]
 80050ea:	f7fc f921 	bl	8001330 <HAL_GetTick>
 80050ee:	60b8      	str	r0, [r7, #8]
 80050f0:	e008      	b.n	8005104 <RCCEx_PLL3_Config+0x144>
 80050f2:	f7fc f91d 	bl	8001330 <HAL_GetTick>
 80050f6:	4602      	mov	r2, r0
 80050f8:	68bb      	ldr	r3, [r7, #8]
 80050fa:	1ad3      	subs	r3, r2, r3
 80050fc:	2b02      	cmp	r3, #2
 80050fe:	d901      	bls.n	8005104 <RCCEx_PLL3_Config+0x144>
 8005100:	2303      	movs	r3, #3
 8005102:	e006      	b.n	8005112 <RCCEx_PLL3_Config+0x152>
 8005104:	4b05      	ldr	r3, [pc, #20]	; (800511c <RCCEx_PLL3_Config+0x15c>)
 8005106:	681b      	ldr	r3, [r3, #0]
 8005108:	f003 5300 	and.w	r3, r3, #536870912	; 0x20000000
 800510c:	2b00      	cmp	r3, #0
 800510e:	d0f0      	beq.n	80050f2 <RCCEx_PLL3_Config+0x132>
 8005110:	7bfb      	ldrb	r3, [r7, #15]
 8005112:	4618      	mov	r0, r3
 8005114:	3710      	adds	r7, #16
 8005116:	46bd      	mov	sp, r7
 8005118:	bd80      	pop	{r7, pc}
 800511a:	bf00      	nop
 800511c:	58024400 	.word	0x58024400
 8005120:	ffff0007 	.word	0xffff0007

08005124 <HAL_UART_Init>:
 8005124:	b580      	push	{r7, lr}
 8005126:	b082      	sub	sp, #8
 8005128:	af00      	add	r7, sp, #0
 800512a:	6078      	str	r0, [r7, #4]
 800512c:	687b      	ldr	r3, [r7, #4]
 800512e:	2b00      	cmp	r3, #0
 8005130:	d101      	bne.n	8005136 <HAL_UART_Init+0x12>
 8005132:	2301      	movs	r3, #1
 8005134:	e042      	b.n	80051bc <HAL_UART_Init+0x98>
 8005136:	687b      	ldr	r3, [r7, #4]
 8005138:	f8d3 3080 	ldr.w	r3, [r3, #128]	; 0x80
 800513c:	2b00      	cmp	r3, #0
 800513e:	d106      	bne.n	800514e <HAL_UART_Init+0x2a>
 8005140:	687b      	ldr	r3, [r7, #4]
 8005142:	2200      	movs	r2, #0
 8005144:	f883 207c 	strb.w	r2, [r3, #124]	; 0x7c
 8005148:	6878      	ldr	r0, [r7, #4]
 800514a:	f7fb fefd 	bl	8000f48 <HAL_UART_MspInit>
 800514e:	687b      	ldr	r3, [r7, #4]
 8005150:	2224      	movs	r2, #36	; 0x24
 8005152:	f8c3 2080 	str.w	r2, [r3, #128]	; 0x80
 8005156:	687b      	ldr	r3, [r7, #4]
 8005158:	681b      	ldr	r3, [r3, #0]
 800515a:	681a      	ldr	r2, [r3, #0]
 800515c:	687b      	ldr	r3, [r7, #4]
 800515e:	681b      	ldr	r3, [r3, #0]
 8005160:	f022 0201 	bic.w	r2, r2, #1
 8005164:	601a      	str	r2, [r3, #0]
 8005166:	6878      	ldr	r0, [r7, #4]
 8005168:	f000 f992 	bl	8005490 <UART_SetConfig>
 800516c:	4603      	mov	r3, r0
 800516e:	2b01      	cmp	r3, #1
 8005170:	d101      	bne.n	8005176 <HAL_UART_Init+0x52>
 8005172:	2301      	movs	r3, #1
 8005174:	e022      	b.n	80051bc <HAL_UART_Init+0x98>
 8005176:	687b      	ldr	r3, [r7, #4]
 8005178:	6a9b      	ldr	r3, [r3, #40]	; 0x28
 800517a:	2b00      	cmp	r3, #0
 800517c:	d002      	beq.n	8005184 <HAL_UART_Init+0x60>
 800517e:	6878      	ldr	r0, [r7, #4]
 8005180:	f000 ff36 	bl	8005ff0 <UART_AdvFeatureConfig>
 8005184:	687b      	ldr	r3, [r7, #4]
 8005186:	681b      	ldr	r3, [r3, #0]
 8005188:	685a      	ldr	r2, [r3, #4]
 800518a:	687b      	ldr	r3, [r7, #4]
 800518c:	681b      	ldr	r3, [r3, #0]
 800518e:	f422 4290 	bic.w	r2, r2, #18432	; 0x4800
 8005192:	605a      	str	r2, [r3, #4]
 8005194:	687b      	ldr	r3, [r7, #4]
 8005196:	681b      	ldr	r3, [r3, #0]
 8005198:	689a      	ldr	r2, [r3, #8]
 800519a:	687b      	ldr	r3, [r7, #4]
 800519c:	681b      	ldr	r3, [r3, #0]
 800519e:	f022 022a 	bic.w	r2, r2, #42	; 0x2a
 80051a2:	609a      	str	r2, [r3, #8]
 80051a4:	687b      	ldr	r3, [r7, #4]
 80051a6:	681b      	ldr	r3, [r3, #0]
 80051a8:	681a      	ldr	r2, [r3, #0]
 80051aa:	687b      	ldr	r3, [r7, #4]
 80051ac:	681b      	ldr	r3, [r3, #0]
 80051ae:	f042 0201 	orr.w	r2, r2, #1
 80051b2:	601a      	str	r2, [r3, #0]
 80051b4:	6878      	ldr	r0, [r7, #4]
 80051b6:	f000 ffbd 	bl	8006134 <UART_CheckIdleState>
 80051ba:	4603      	mov	r3, r0
 80051bc:	4618      	mov	r0, r3
 80051be:	3708      	adds	r7, #8
 80051c0:	46bd      	mov	sp, r7
 80051c2:	bd80      	pop	{r7, pc}

080051c4 <HAL_UART_Transmit>:
 80051c4:	b580      	push	{r7, lr}
 80051c6:	b08a      	sub	sp, #40	; 0x28
 80051c8:	af02      	add	r7, sp, #8
 80051ca:	60f8      	str	r0, [r7, #12]
 80051cc:	60b9      	str	r1, [r7, #8]
 80051ce:	603b      	str	r3, [r7, #0]
 80051d0:	4613      	mov	r3, r2
 80051d2:	80fb      	strh	r3, [r7, #6]
 80051d4:	68fb      	ldr	r3, [r7, #12]
 80051d6:	f8d3 3080 	ldr.w	r3, [r3, #128]	; 0x80
 80051da:	2b20      	cmp	r3, #32
 80051dc:	f040 8083 	bne.w	80052e6 <HAL_UART_Transmit+0x122>
 80051e0:	68bb      	ldr	r3, [r7, #8]
 80051e2:	2b00      	cmp	r3, #0
 80051e4:	d002      	beq.n	80051ec <HAL_UART_Transmit+0x28>
 80051e6:	88fb      	ldrh	r3, [r7, #6]
 80051e8:	2b00      	cmp	r3, #0
 80051ea:	d101      	bne.n	80051f0 <HAL_UART_Transmit+0x2c>
 80051ec:	2301      	movs	r3, #1
 80051ee:	e07b      	b.n	80052e8 <HAL_UART_Transmit+0x124>
 80051f0:	68fb      	ldr	r3, [r7, #12]
 80051f2:	f893 307c 	ldrb.w	r3, [r3, #124]	; 0x7c
 80051f6:	2b01      	cmp	r3, #1
 80051f8:	d101      	bne.n	80051fe <HAL_UART_Transmit+0x3a>
 80051fa:	2302      	movs	r3, #2
 80051fc:	e074      	b.n	80052e8 <HAL_UART_Transmit+0x124>
 80051fe:	68fb      	ldr	r3, [r7, #12]
 8005200:	2201      	movs	r2, #1
 8005202:	f883 207c 	strb.w	r2, [r3, #124]	; 0x7c
 8005206:	68fb      	ldr	r3, [r7, #12]
 8005208:	2200      	movs	r2, #0
 800520a:	f8c3 2088 	str.w	r2, [r3, #136]	; 0x88
 800520e:	68fb      	ldr	r3, [r7, #12]
 8005210:	2221      	movs	r2, #33	; 0x21
 8005212:	f8c3 2080 	str.w	r2, [r3, #128]	; 0x80
 8005216:	f7fc f88b 	bl	8001330 <HAL_GetTick>
 800521a:	6178      	str	r0, [r7, #20]
 800521c:	68fb      	ldr	r3, [r7, #12]
 800521e:	88fa      	ldrh	r2, [r7, #6]
 8005220:	f8a3 2054 	strh.w	r2, [r3, #84]	; 0x54
 8005224:	68fb      	ldr	r3, [r7, #12]
 8005226:	88fa      	ldrh	r2, [r7, #6]
 8005228:	f8a3 2056 	strh.w	r2, [r3, #86]	; 0x56
 800522c:	68fb      	ldr	r3, [r7, #12]
 800522e:	689b      	ldr	r3, [r3, #8]
 8005230:	f5b3 5f80 	cmp.w	r3, #4096	; 0x1000
 8005234:	d108      	bne.n	8005248 <HAL_UART_Transmit+0x84>
 8005236:	68fb      	ldr	r3, [r7, #12]
 8005238:	691b      	ldr	r3, [r3, #16]
 800523a:	2b00      	cmp	r3, #0
 800523c:	d104      	bne.n	8005248 <HAL_UART_Transmit+0x84>
 800523e:	2300      	movs	r3, #0
 8005240:	61fb      	str	r3, [r7, #28]
 8005242:	68bb      	ldr	r3, [r7, #8]
 8005244:	61bb      	str	r3, [r7, #24]
 8005246:	e003      	b.n	8005250 <HAL_UART_Transmit+0x8c>
 8005248:	68bb      	ldr	r3, [r7, #8]
 800524a:	61fb      	str	r3, [r7, #28]
 800524c:	2300      	movs	r3, #0
 800524e:	61bb      	str	r3, [r7, #24]
 8005250:	68fb      	ldr	r3, [r7, #12]
 8005252:	2200      	movs	r2, #0
 8005254:	f883 207c 	strb.w	r2, [r3, #124]	; 0x7c
 8005258:	e02c      	b.n	80052b4 <HAL_UART_Transmit+0xf0>
 800525a:	683b      	ldr	r3, [r7, #0]
 800525c:	9300      	str	r3, [sp, #0]
 800525e:	697b      	ldr	r3, [r7, #20]
 8005260:	2200      	movs	r2, #0
 8005262:	2180      	movs	r1, #128	; 0x80
 8005264:	68f8      	ldr	r0, [r7, #12]
 8005266:	f000 ffad 	bl	80061c4 <UART_WaitOnFlagUntilTimeout>
 800526a:	4603      	mov	r3, r0
 800526c:	2b00      	cmp	r3, #0
 800526e:	d001      	beq.n	8005274 <HAL_UART_Transmit+0xb0>
 8005270:	2303      	movs	r3, #3
 8005272:	e039      	b.n	80052e8 <HAL_UART_Transmit+0x124>
 8005274:	69fb      	ldr	r3, [r7, #28]
 8005276:	2b00      	cmp	r3, #0
 8005278:	d10b      	bne.n	8005292 <HAL_UART_Transmit+0xce>
 800527a:	69bb      	ldr	r3, [r7, #24]
 800527c:	881b      	ldrh	r3, [r3, #0]
 800527e:	461a      	mov	r2, r3
 8005280:	68fb      	ldr	r3, [r7, #12]
 8005282:	681b      	ldr	r3, [r3, #0]
 8005284:	f3c2 0208 	ubfx	r2, r2, #0, #9
 8005288:	629a      	str	r2, [r3, #40]	; 0x28
 800528a:	69bb      	ldr	r3, [r7, #24]
 800528c:	3302      	adds	r3, #2
 800528e:	61bb      	str	r3, [r7, #24]
 8005290:	e007      	b.n	80052a2 <HAL_UART_Transmit+0xde>
 8005292:	69fb      	ldr	r3, [r7, #28]
 8005294:	781a      	ldrb	r2, [r3, #0]
 8005296:	68fb      	ldr	r3, [r7, #12]
 8005298:	681b      	ldr	r3, [r3, #0]
 800529a:	629a      	str	r2, [r3, #40]	; 0x28
 800529c:	69fb      	ldr	r3, [r7, #28]
 800529e:	3301      	adds	r3, #1
 80052a0:	61fb      	str	r3, [r7, #28]
 80052a2:	68fb      	ldr	r3, [r7, #12]
 80052a4:	f8b3 3056 	ldrh.w	r3, [r3, #86]	; 0x56
 80052a8:	b29b      	uxth	r3, r3
 80052aa:	3b01      	subs	r3, #1
 80052ac:	b29a      	uxth	r2, r3
 80052ae:	68fb      	ldr	r3, [r7, #12]
 80052b0:	f8a3 2056 	strh.w	r2, [r3, #86]	; 0x56
 80052b4:	68fb      	ldr	r3, [r7, #12]
 80052b6:	f8b3 3056 	ldrh.w	r3, [r3, #86]	; 0x56
 80052ba:	b29b      	uxth	r3, r3
 80052bc:	2b00      	cmp	r3, #0
 80052be:	d1cc      	bne.n	800525a <HAL_UART_Transmit+0x96>
 80052c0:	683b      	ldr	r3, [r7, #0]
 80052c2:	9300      	str	r3, [sp, #0]
 80052c4:	697b      	ldr	r3, [r7, #20]
 80052c6:	2200      	movs	r2, #0
 80052c8:	2140      	movs	r1, #64	; 0x40
 80052ca:	68f8      	ldr	r0, [r7, #12]
 80052cc:	f000 ff7a 	bl	80061c4 <UART_WaitOnFlagUntilTimeout>
 80052d0:	4603      	mov	r3, r0
 80052d2:	2b00      	cmp	r3, #0
 80052d4:	d001      	beq.n	80052da <HAL_UART_Transmit+0x116>
 80052d6:	2303      	movs	r3, #3
 80052d8:	e006      	b.n	80052e8 <HAL_UART_Transmit+0x124>
 80052da:	68fb      	ldr	r3, [r7, #12]
 80052dc:	2220      	movs	r2, #32
 80052de:	f8c3 2080 	str.w	r2, [r3, #128]	; 0x80
 80052e2:	2300      	movs	r3, #0
 80052e4:	e000      	b.n	80052e8 <HAL_UART_Transmit+0x124>
 80052e6:	2302      	movs	r3, #2
 80052e8:	4618      	mov	r0, r3
 80052ea:	3720      	adds	r7, #32
 80052ec:	46bd      	mov	sp, r7
 80052ee:	bd80      	pop	{r7, pc}

080052f0 <HAL_UART_Receive>:
 80052f0:	b580      	push	{r7, lr}
 80052f2:	b08a      	sub	sp, #40	; 0x28
 80052f4:	af02      	add	r7, sp, #8
 80052f6:	60f8      	str	r0, [r7, #12]
 80052f8:	60b9      	str	r1, [r7, #8]
 80052fa:	603b      	str	r3, [r7, #0]
 80052fc:	4613      	mov	r3, r2
 80052fe:	80fb      	strh	r3, [r7, #6]
 8005300:	68fb      	ldr	r3, [r7, #12]
 8005302:	f8d3 3084 	ldr.w	r3, [r3, #132]	; 0x84
 8005306:	2b20      	cmp	r3, #32
 8005308:	f040 80bd 	bne.w	8005486 <HAL_UART_Receive+0x196>
 800530c:	68bb      	ldr	r3, [r7, #8]
 800530e:	2b00      	cmp	r3, #0
 8005310:	d002      	beq.n	8005318 <HAL_UART_Receive+0x28>
 8005312:	88fb      	ldrh	r3, [r7, #6]
 8005314:	2b00      	cmp	r3, #0
 8005316:	d101      	bne.n	800531c <HAL_UART_Receive+0x2c>
 8005318:	2301      	movs	r3, #1
 800531a:	e0b5      	b.n	8005488 <HAL_UART_Receive+0x198>
 800531c:	68fb      	ldr	r3, [r7, #12]
 800531e:	f893 307c 	ldrb.w	r3, [r3, #124]	; 0x7c
 8005322:	2b01      	cmp	r3, #1
 8005324:	d101      	bne.n	800532a <HAL_UART_Receive+0x3a>
 8005326:	2302      	movs	r3, #2
 8005328:	e0ae      	b.n	8005488 <HAL_UART_Receive+0x198>
 800532a:	68fb      	ldr	r3, [r7, #12]
 800532c:	2201      	movs	r2, #1
 800532e:	f883 207c 	strb.w	r2, [r3, #124]	; 0x7c
 8005332:	68fb      	ldr	r3, [r7, #12]
 8005334:	2200      	movs	r2, #0
 8005336:	f8c3 2088 	str.w	r2, [r3, #136]	; 0x88
 800533a:	68fb      	ldr	r3, [r7, #12]
 800533c:	2222      	movs	r2, #34	; 0x22
 800533e:	f8c3 2084 	str.w	r2, [r3, #132]	; 0x84
 8005342:	f7fb fff5 	bl	8001330 <HAL_GetTick>
 8005346:	6178      	str	r0, [r7, #20]
 8005348:	68fb      	ldr	r3, [r7, #12]
 800534a:	88fa      	ldrh	r2, [r7, #6]
 800534c:	f8a3 205c 	strh.w	r2, [r3, #92]	; 0x5c
 8005350:	68fb      	ldr	r3, [r7, #12]
 8005352:	88fa      	ldrh	r2, [r7, #6]
 8005354:	f8a3 205e 	strh.w	r2, [r3, #94]	; 0x5e
 8005358:	68fb      	ldr	r3, [r7, #12]
 800535a:	689b      	ldr	r3, [r3, #8]
 800535c:	f5b3 5f80 	cmp.w	r3, #4096	; 0x1000
 8005360:	d10e      	bne.n	8005380 <HAL_UART_Receive+0x90>
 8005362:	68fb      	ldr	r3, [r7, #12]
 8005364:	691b      	ldr	r3, [r3, #16]
 8005366:	2b00      	cmp	r3, #0
 8005368:	d105      	bne.n	8005376 <HAL_UART_Receive+0x86>
 800536a:	68fb      	ldr	r3, [r7, #12]
 800536c:	f240 12ff 	movw	r2, #511	; 0x1ff
 8005370:	f8a3 2060 	strh.w	r2, [r3, #96]	; 0x60
 8005374:	e02d      	b.n	80053d2 <HAL_UART_Receive+0xe2>
 8005376:	68fb      	ldr	r3, [r7, #12]
 8005378:	22ff      	movs	r2, #255	; 0xff
 800537a:	f8a3 2060 	strh.w	r2, [r3, #96]	; 0x60
 800537e:	e028      	b.n	80053d2 <HAL_UART_Receive+0xe2>
 8005380:	68fb      	ldr	r3, [r7, #12]
 8005382:	689b      	ldr	r3, [r3, #8]
 8005384:	2b00      	cmp	r3, #0
 8005386:	d10d      	bne.n	80053a4 <HAL_UART_Receive+0xb4>
 8005388:	68fb      	ldr	r3, [r7, #12]
 800538a:	691b      	ldr	r3, [r3, #16]
 800538c:	2b00      	cmp	r3, #0
 800538e:	d104      	bne.n	800539a <HAL_UART_Receive+0xaa>
 8005390:	68fb      	ldr	r3, [r7, #12]
 8005392:	22ff      	movs	r2, #255	; 0xff
 8005394:	f8a3 2060 	strh.w	r2, [r3, #96]	; 0x60
 8005398:	e01b      	b.n	80053d2 <HAL_UART_Receive+0xe2>
 800539a:	68fb      	ldr	r3, [r7, #12]
 800539c:	227f      	movs	r2, #127	; 0x7f
 800539e:	f8a3 2060 	strh.w	r2, [r3, #96]	; 0x60
 80053a2:	e016      	b.n	80053d2 <HAL_UART_Receive+0xe2>
 80053a4:	68fb      	ldr	r3, [r7, #12]
 80053a6:	689b      	ldr	r3, [r3, #8]
 80053a8:	f1b3 5f80 	cmp.w	r3, #268435456	; 0x10000000
 80053ac:	d10d      	bne.n	80053ca <HAL_UART_Receive+0xda>
 80053ae:	68fb      	ldr	r3, [r7, #12]
 80053b0:	691b      	ldr	r3, [r3, #16]
 80053b2:	2b00      	cmp	r3, #0
 80053b4:	d104      	bne.n	80053c0 <HAL_UART_Receive+0xd0>
 80053b6:	68fb      	ldr	r3, [r7, #12]
 80053b8:	227f      	movs	r2, #127	; 0x7f
 80053ba:	f8a3 2060 	strh.w	r2, [r3, #96]	; 0x60
 80053be:	e008      	b.n	80053d2 <HAL_UART_Receive+0xe2>
 80053c0:	68fb      	ldr	r3, [r7, #12]
 80053c2:	223f      	movs	r2, #63	; 0x3f
 80053c4:	f8a3 2060 	strh.w	r2, [r3, #96]	; 0x60
 80053c8:	e003      	b.n	80053d2 <HAL_UART_Receive+0xe2>
 80053ca:	68fb      	ldr	r3, [r7, #12]
 80053cc:	2200      	movs	r2, #0
 80053ce:	f8a3 2060 	strh.w	r2, [r3, #96]	; 0x60
 80053d2:	68fb      	ldr	r3, [r7, #12]
 80053d4:	f8b3 3060 	ldrh.w	r3, [r3, #96]	; 0x60
 80053d8:	827b      	strh	r3, [r7, #18]
 80053da:	68fb      	ldr	r3, [r7, #12]
 80053dc:	689b      	ldr	r3, [r3, #8]
 80053de:	f5b3 5f80 	cmp.w	r3, #4096	; 0x1000
 80053e2:	d108      	bne.n	80053f6 <HAL_UART_Receive+0x106>
 80053e4:	68fb      	ldr	r3, [r7, #12]
 80053e6:	691b      	ldr	r3, [r3, #16]
 80053e8:	2b00      	cmp	r3, #0
 80053ea:	d104      	bne.n	80053f6 <HAL_UART_Receive+0x106>
 80053ec:	2300      	movs	r3, #0
 80053ee:	61fb      	str	r3, [r7, #28]
 80053f0:	68bb      	ldr	r3, [r7, #8]
 80053f2:	61bb      	str	r3, [r7, #24]
 80053f4:	e003      	b.n	80053fe <HAL_UART_Receive+0x10e>
 80053f6:	68bb      	ldr	r3, [r7, #8]
 80053f8:	61fb      	str	r3, [r7, #28]
 80053fa:	2300      	movs	r3, #0
 80053fc:	61bb      	str	r3, [r7, #24]
 80053fe:	68fb      	ldr	r3, [r7, #12]
 8005400:	2200      	movs	r2, #0
 8005402:	f883 207c 	strb.w	r2, [r3, #124]	; 0x7c
 8005406:	e032      	b.n	800546e <HAL_UART_Receive+0x17e>
 8005408:	683b      	ldr	r3, [r7, #0]
 800540a:	9300      	str	r3, [sp, #0]
 800540c:	697b      	ldr	r3, [r7, #20]
 800540e:	2200      	movs	r2, #0
 8005410:	2120      	movs	r1, #32
 8005412:	68f8      	ldr	r0, [r7, #12]
 8005414:	f000 fed6 	bl	80061c4 <UART_WaitOnFlagUntilTimeout>
 8005418:	4603      	mov	r3, r0
 800541a:	2b00      	cmp	r3, #0
 800541c:	d001      	beq.n	8005422 <HAL_UART_Receive+0x132>
 800541e:	2303      	movs	r3, #3
 8005420:	e032      	b.n	8005488 <HAL_UART_Receive+0x198>
 8005422:	69fb      	ldr	r3, [r7, #28]
 8005424:	2b00      	cmp	r3, #0
 8005426:	d10c      	bne.n	8005442 <HAL_UART_Receive+0x152>
 8005428:	68fb      	ldr	r3, [r7, #12]
 800542a:	681b      	ldr	r3, [r3, #0]
 800542c:	6a5b      	ldr	r3, [r3, #36]	; 0x24
 800542e:	b29a      	uxth	r2, r3
 8005430:	8a7b      	ldrh	r3, [r7, #18]
 8005432:	4013      	ands	r3, r2
 8005434:	b29a      	uxth	r2, r3
 8005436:	69bb      	ldr	r3, [r7, #24]
 8005438:	801a      	strh	r2, [r3, #0]
 800543a:	69bb      	ldr	r3, [r7, #24]
 800543c:	3302      	adds	r3, #2
 800543e:	61bb      	str	r3, [r7, #24]
 8005440:	e00c      	b.n	800545c <HAL_UART_Receive+0x16c>
 8005442:	68fb      	ldr	r3, [r7, #12]
 8005444:	681b      	ldr	r3, [r3, #0]
 8005446:	6a5b      	ldr	r3, [r3, #36]	; 0x24
 8005448:	b2da      	uxtb	r2, r3
 800544a:	8a7b      	ldrh	r3, [r7, #18]
 800544c:	b2db      	uxtb	r3, r3
 800544e:	4013      	ands	r3, r2
 8005450:	b2da      	uxtb	r2, r3
 8005452:	69fb      	ldr	r3, [r7, #28]
 8005454:	701a      	strb	r2, [r3, #0]
 8005456:	69fb      	ldr	r3, [r7, #28]
 8005458:	3301      	adds	r3, #1
 800545a:	61fb      	str	r3, [r7, #28]
 800545c:	68fb      	ldr	r3, [r7, #12]
 800545e:	f8b3 305e 	ldrh.w	r3, [r3, #94]	; 0x5e
 8005462:	b29b      	uxth	r3, r3
 8005464:	3b01      	subs	r3, #1
 8005466:	b29a      	uxth	r2, r3
 8005468:	68fb      	ldr	r3, [r7, #12]
 800546a:	f8a3 205e 	strh.w	r2, [r3, #94]	; 0x5e
 800546e:	68fb      	ldr	r3, [r7, #12]
 8005470:	f8b3 305e 	ldrh.w	r3, [r3, #94]	; 0x5e
 8005474:	b29b      	uxth	r3, r3
 8005476:	2b00      	cmp	r3, #0
 8005478:	d1c6      	bne.n	8005408 <HAL_UART_Receive+0x118>
 800547a:	68fb      	ldr	r3, [r7, #12]
 800547c:	2220      	movs	r2, #32
 800547e:	f8c3 2084 	str.w	r2, [r3, #132]	; 0x84
 8005482:	2300      	movs	r3, #0
 8005484:	e000      	b.n	8005488 <HAL_UART_Receive+0x198>
 8005486:	2302      	movs	r3, #2
 8005488:	4618      	mov	r0, r3
 800548a:	3720      	adds	r7, #32
 800548c:	46bd      	mov	sp, r7
 800548e:	bd80      	pop	{r7, pc}

08005490 <UART_SetConfig>:
 8005490:	e92d 4890 	stmdb	sp!, {r4, r7, fp, lr}
 8005494:	b08e      	sub	sp, #56	; 0x38
 8005496:	af00      	add	r7, sp, #0
 8005498:	6078      	str	r0, [r7, #4]
 800549a:	2300      	movs	r3, #0
 800549c:	f887 3032 	strb.w	r3, [r7, #50]	; 0x32
 80054a0:	687b      	ldr	r3, [r7, #4]
 80054a2:	689a      	ldr	r2, [r3, #8]
 80054a4:	687b      	ldr	r3, [r7, #4]
 80054a6:	691b      	ldr	r3, [r3, #16]
 80054a8:	431a      	orrs	r2, r3
 80054aa:	687b      	ldr	r3, [r7, #4]
 80054ac:	695b      	ldr	r3, [r3, #20]
 80054ae:	431a      	orrs	r2, r3
 80054b0:	687b      	ldr	r3, [r7, #4]
 80054b2:	69db      	ldr	r3, [r3, #28]
 80054b4:	4313      	orrs	r3, r2
 80054b6:	637b      	str	r3, [r7, #52]	; 0x34
 80054b8:	687b      	ldr	r3, [r7, #4]
 80054ba:	6e5b      	ldr	r3, [r3, #100]	; 0x64
 80054bc:	6b7a      	ldr	r2, [r7, #52]	; 0x34
 80054be:	4313      	orrs	r3, r2
 80054c0:	637b      	str	r3, [r7, #52]	; 0x34
 80054c2:	687b      	ldr	r3, [r7, #4]
 80054c4:	681b      	ldr	r3, [r3, #0]
 80054c6:	681a      	ldr	r2, [r3, #0]
 80054c8:	4bc1      	ldr	r3, [pc, #772]	; (80057d0 <UART_SetConfig+0x340>)
 80054ca:	4013      	ands	r3, r2
 80054cc:	687a      	ldr	r2, [r7, #4]
 80054ce:	6812      	ldr	r2, [r2, #0]
 80054d0:	6b79      	ldr	r1, [r7, #52]	; 0x34
 80054d2:	430b      	orrs	r3, r1
 80054d4:	6013      	str	r3, [r2, #0]
 80054d6:	687b      	ldr	r3, [r7, #4]
 80054d8:	681b      	ldr	r3, [r3, #0]
 80054da:	685b      	ldr	r3, [r3, #4]
 80054dc:	f423 5140 	bic.w	r1, r3, #12288	; 0x3000
 80054e0:	687b      	ldr	r3, [r7, #4]
 80054e2:	68da      	ldr	r2, [r3, #12]
 80054e4:	687b      	ldr	r3, [r7, #4]
 80054e6:	681b      	ldr	r3, [r3, #0]
 80054e8:	430a      	orrs	r2, r1
 80054ea:	605a      	str	r2, [r3, #4]
 80054ec:	687b      	ldr	r3, [r7, #4]
 80054ee:	699b      	ldr	r3, [r3, #24]
 80054f0:	637b      	str	r3, [r7, #52]	; 0x34
 80054f2:	687b      	ldr	r3, [r7, #4]
 80054f4:	681b      	ldr	r3, [r3, #0]
 80054f6:	4ab7      	ldr	r2, [pc, #732]	; (80057d4 <UART_SetConfig+0x344>)
 80054f8:	4293      	cmp	r3, r2
 80054fa:	d004      	beq.n	8005506 <UART_SetConfig+0x76>
 80054fc:	687b      	ldr	r3, [r7, #4]
 80054fe:	6a1b      	ldr	r3, [r3, #32]
 8005500:	6b7a      	ldr	r2, [r7, #52]	; 0x34
 8005502:	4313      	orrs	r3, r2
 8005504:	637b      	str	r3, [r7, #52]	; 0x34
 8005506:	687b      	ldr	r3, [r7, #4]
 8005508:	681b      	ldr	r3, [r3, #0]
 800550a:	689a      	ldr	r2, [r3, #8]
 800550c:	4bb2      	ldr	r3, [pc, #712]	; (80057d8 <UART_SetConfig+0x348>)
 800550e:	4013      	ands	r3, r2
 8005510:	687a      	ldr	r2, [r7, #4]
 8005512:	6812      	ldr	r2, [r2, #0]
 8005514:	6b79      	ldr	r1, [r7, #52]	; 0x34
 8005516:	430b      	orrs	r3, r1
 8005518:	6093      	str	r3, [r2, #8]
 800551a:	687b      	ldr	r3, [r7, #4]
 800551c:	681b      	ldr	r3, [r3, #0]
 800551e:	6adb      	ldr	r3, [r3, #44]	; 0x2c
 8005520:	f023 010f 	bic.w	r1, r3, #15
 8005524:	687b      	ldr	r3, [r7, #4]
 8005526:	6a5a      	ldr	r2, [r3, #36]	; 0x24
 8005528:	687b      	ldr	r3, [r7, #4]
 800552a:	681b      	ldr	r3, [r3, #0]
 800552c:	430a      	orrs	r2, r1
 800552e:	62da      	str	r2, [r3, #44]	; 0x2c
 8005530:	687b      	ldr	r3, [r7, #4]
 8005532:	681b      	ldr	r3, [r3, #0]
 8005534:	4aa9      	ldr	r2, [pc, #676]	; (80057dc <UART_SetConfig+0x34c>)
 8005536:	4293      	cmp	r3, r2
 8005538:	d177      	bne.n	800562a <UART_SetConfig+0x19a>
 800553a:	4ba9      	ldr	r3, [pc, #676]	; (80057e0 <UART_SetConfig+0x350>)
 800553c:	6d5b      	ldr	r3, [r3, #84]	; 0x54
 800553e:	f003 0338 	and.w	r3, r3, #56	; 0x38
 8005542:	2b28      	cmp	r3, #40	; 0x28
 8005544:	d86c      	bhi.n	8005620 <UART_SetConfig+0x190>
 8005546:	a201      	add	r2, pc, #4	; (adr r2, 800554c <UART_SetConfig+0xbc>)
 8005548:	f852 f023 	ldr.w	pc, [r2, r3, lsl #2]
 800554c:	080055f1 	.word	0x080055f1
 8005550:	08005621 	.word	0x08005621
 8005554:	08005621 	.word	0x08005621
 8005558:	08005621 	.word	0x08005621
 800555c:	08005621 	.word	0x08005621
 8005560:	08005621 	.word	0x08005621
 8005564:	08005621 	.word	0x08005621
 8005568:	08005621 	.word	0x08005621
 800556c:	080055f9 	.word	0x080055f9
 8005570:	08005621 	.word	0x08005621
 8005574:	08005621 	.word	0x08005621
 8005578:	08005621 	.word	0x08005621
 800557c:	08005621 	.word	0x08005621
 8005580:	08005621 	.word	0x08005621
 8005584:	08005621 	.word	0x08005621
 8005588:	08005621 	.word	0x08005621
 800558c:	08005601 	.word	0x08005601
 8005590:	08005621 	.word	0x08005621
 8005594:	08005621 	.word	0x08005621
 8005598:	08005621 	.word	0x08005621
 800559c:	08005621 	.word	0x08005621
 80055a0:	08005621 	.word	0x08005621
 80055a4:	08005621 	.word	0x08005621
 80055a8:	08005621 	.word	0x08005621
 80055ac:	08005609 	.word	0x08005609
 80055b0:	08005621 	.word	0x08005621
 80055b4:	08005621 	.word	0x08005621
 80055b8:	08005621 	.word	0x08005621
 80055bc:	08005621 	.word	0x08005621
 80055c0:	08005621 	.word	0x08005621
 80055c4:	08005621 	.word	0x08005621
 80055c8:	08005621 	.word	0x08005621
 80055cc:	08005611 	.word	0x08005611
 80055d0:	08005621 	.word	0x08005621
 80055d4:	08005621 	.word	0x08005621
 80055d8:	08005621 	.word	0x08005621
 80055dc:	08005621 	.word	0x08005621
 80055e0:	08005621 	.word	0x08005621
 80055e4:	08005621 	.word	0x08005621
 80055e8:	08005621 	.word	0x08005621
 80055ec:	08005619 	.word	0x08005619
 80055f0:	2301      	movs	r3, #1
 80055f2:	f887 3033 	strb.w	r3, [r7, #51]	; 0x33
 80055f6:	e233      	b.n	8005a60 <UART_SetConfig+0x5d0>
 80055f8:	2304      	movs	r3, #4
 80055fa:	f887 3033 	strb.w	r3, [r7, #51]	; 0x33
 80055fe:	e22f      	b.n	8005a60 <UART_SetConfig+0x5d0>
 8005600:	2308      	movs	r3, #8
 8005602:	f887 3033 	strb.w	r3, [r7, #51]	; 0x33
 8005606:	e22b      	b.n	8005a60 <UART_SetConfig+0x5d0>
 8005608:	2310      	movs	r3, #16
 800560a:	f887 3033 	strb.w	r3, [r7, #51]	; 0x33
 800560e:	e227      	b.n	8005a60 <UART_SetConfig+0x5d0>
 8005610:	2320      	movs	r3, #32
 8005612:	f887 3033 	strb.w	r3, [r7, #51]	; 0x33
 8005616:	e223      	b.n	8005a60 <UART_SetConfig+0x5d0>
 8005618:	2340      	movs	r3, #64	; 0x40
 800561a:	f887 3033 	strb.w	r3, [r7, #51]	; 0x33
 800561e:	e21f      	b.n	8005a60 <UART_SetConfig+0x5d0>
 8005620:	2380      	movs	r3, #128	; 0x80
 8005622:	f887 3033 	strb.w	r3, [r7, #51]	; 0x33
 8005626:	bf00      	nop
 8005628:	e21a      	b.n	8005a60 <UART_SetConfig+0x5d0>
 800562a:	687b      	ldr	r3, [r7, #4]
 800562c:	681b      	ldr	r3, [r3, #0]
 800562e:	4a6d      	ldr	r2, [pc, #436]	; (80057e4 <UART_SetConfig+0x354>)
 8005630:	4293      	cmp	r3, r2
 8005632:	d132      	bne.n	800569a <UART_SetConfig+0x20a>
 8005634:	4b6a      	ldr	r3, [pc, #424]	; (80057e0 <UART_SetConfig+0x350>)
 8005636:	6d5b      	ldr	r3, [r3, #84]	; 0x54
 8005638:	f003 0307 	and.w	r3, r3, #7
 800563c:	2b05      	cmp	r3, #5
 800563e:	d827      	bhi.n	8005690 <UART_SetConfig+0x200>
 8005640:	a201      	add	r2, pc, #4	; (adr r2, 8005648 <UART_SetConfig+0x1b8>)
 8005642:	f852 f023 	ldr.w	pc, [r2, r3, lsl #2]
 8005646:	bf00      	nop
 8005648:	08005661 	.word	0x08005661
 800564c:	08005669 	.word	0x08005669
 8005650:	08005671 	.word	0x08005671
 8005654:	08005679 	.word	0x08005679
 8005658:	08005681 	.word	0x08005681
 800565c:	08005689 	.word	0x08005689
 8005660:	2300      	movs	r3, #0
 8005662:	f887 3033 	strb.w	r3, [r7, #51]	; 0x33
 8005666:	e1fb      	b.n	8005a60 <UART_SetConfig+0x5d0>
 8005668:	2304      	movs	r3, #4
 800566a:	f887 3033 	strb.w	r3, [r7, #51]	; 0x33
 800566e:	e1f7      	b.n	8005a60 <UART_SetConfig+0x5d0>
 8005670:	2308      	movs	r3, #8
 8005672:	f887 3033 	strb.w	r3, [r7, #51]	; 0x33
 8005676:	e1f3      	b.n	8005a60 <UART_SetConfig+0x5d0>
 8005678:	2310      	movs	r3, #16
 800567a:	f887 3033 	strb.w	r3, [r7, #51]	; 0x33
 800567e:	e1ef      	b.n	8005a60 <UART_SetConfig+0x5d0>
 8005680:	2320      	movs	r3, #32
 8005682:	f887 3033 	strb.w	r3, [r7, #51]	; 0x33
 8005686:	e1eb      	b.n	8005a60 <UART_SetConfig+0x5d0>
 8005688:	2340      	movs	r3, #64	; 0x40
 800568a:	f887 3033 	strb.w	r3, [r7, #51]	; 0x33
 800568e:	e1e7      	b.n	8005a60 <UART_SetConfig+0x5d0>
 8005690:	2380      	movs	r3, #128	; 0x80
 8005692:	f887 3033 	strb.w	r3, [r7, #51]	; 0x33
 8005696:	bf00      	nop
 8005698:	e1e2      	b.n	8005a60 <UART_SetConfig+0x5d0>
 800569a:	687b      	ldr	r3, [r7, #4]
 800569c:	681b      	ldr	r3, [r3, #0]
 800569e:	4a52      	ldr	r2, [pc, #328]	; (80057e8 <UART_SetConfig+0x358>)
 80056a0:	4293      	cmp	r3, r2
 80056a2:	d132      	bne.n	800570a <UART_SetConfig+0x27a>
 80056a4:	4b4e      	ldr	r3, [pc, #312]	; (80057e0 <UART_SetConfig+0x350>)
 80056a6:	6d5b      	ldr	r3, [r3, #84]	; 0x54
 80056a8:	f003 0307 	and.w	r3, r3, #7
 80056ac:	2b05      	cmp	r3, #5
 80056ae:	d827      	bhi.n	8005700 <UART_SetConfig+0x270>
 80056b0:	a201      	add	r2, pc, #4	; (adr r2, 80056b8 <UART_SetConfig+0x228>)
 80056b2:	f852 f023 	ldr.w	pc, [r2, r3, lsl #2]
 80056b6:	bf00      	nop
 80056b8:	080056d1 	.word	0x080056d1
 80056bc:	080056d9 	.word	0x080056d9
 80056c0:	080056e1 	.word	0x080056e1
 80056c4:	080056e9 	.word	0x080056e9
 80056c8:	080056f1 	.word	0x080056f1
 80056cc:	080056f9 	.word	0x080056f9
 80056d0:	2300      	movs	r3, #0
 80056d2:	f887 3033 	strb.w	r3, [r7, #51]	; 0x33
 80056d6:	e1c3      	b.n	8005a60 <UART_SetConfig+0x5d0>
 80056d8:	2304      	movs	r3, #4
 80056da:	f887 3033 	strb.w	r3, [r7, #51]	; 0x33
 80056de:	e1bf      	b.n	8005a60 <UART_SetConfig+0x5d0>
 80056e0:	2308      	movs	r3, #8
 80056e2:	f887 3033 	strb.w	r3, [r7, #51]	; 0x33
 80056e6:	e1bb      	b.n	8005a60 <UART_SetConfig+0x5d0>
 80056e8:	2310      	movs	r3, #16
 80056ea:	f887 3033 	strb.w	r3, [r7, #51]	; 0x33
 80056ee:	e1b7      	b.n	8005a60 <UART_SetConfig+0x5d0>
 80056f0:	2320      	movs	r3, #32
 80056f2:	f887 3033 	strb.w	r3, [r7, #51]	; 0x33
 80056f6:	e1b3      	b.n	8005a60 <UART_SetConfig+0x5d0>
 80056f8:	2340      	movs	r3, #64	; 0x40
 80056fa:	f887 3033 	strb.w	r3, [r7, #51]	; 0x33
 80056fe:	e1af      	b.n	8005a60 <UART_SetConfig+0x5d0>
 8005700:	2380      	movs	r3, #128	; 0x80
 8005702:	f887 3033 	strb.w	r3, [r7, #51]	; 0x33
 8005706:	bf00      	nop
 8005708:	e1aa      	b.n	8005a60 <UART_SetConfig+0x5d0>
 800570a:	687b      	ldr	r3, [r7, #4]
 800570c:	681b      	ldr	r3, [r3, #0]
 800570e:	4a37      	ldr	r2, [pc, #220]	; (80057ec <UART_SetConfig+0x35c>)
 8005710:	4293      	cmp	r3, r2
 8005712:	d132      	bne.n	800577a <UART_SetConfig+0x2ea>
 8005714:	4b32      	ldr	r3, [pc, #200]	; (80057e0 <UART_SetConfig+0x350>)
 8005716:	6d5b      	ldr	r3, [r3, #84]	; 0x54
 8005718:	f003 0307 	and.w	r3, r3, #7
 800571c:	2b05      	cmp	r3, #5
 800571e:	d827      	bhi.n	8005770 <UART_SetConfig+0x2e0>
 8005720:	a201      	add	r2, pc, #4	; (adr r2, 8005728 <UART_SetConfig+0x298>)
 8005722:	f852 f023 	ldr.w	pc, [r2, r3, lsl #2]
 8005726:	bf00      	nop
 8005728:	08005741 	.word	0x08005741
 800572c:	08005749 	.word	0x08005749
 8005730:	08005751 	.word	0x08005751
 8005734:	08005759 	.word	0x08005759
 8005738:	08005761 	.word	0x08005761
 800573c:	08005769 	.word	0x08005769
 8005740:	2300      	movs	r3, #0
 8005742:	f887 3033 	strb.w	r3, [r7, #51]	; 0x33
 8005746:	e18b      	b.n	8005a60 <UART_SetConfig+0x5d0>
 8005748:	2304      	movs	r3, #4
 800574a:	f887 3033 	strb.w	r3, [r7, #51]	; 0x33
 800574e:	e187      	b.n	8005a60 <UART_SetConfig+0x5d0>
 8005750:	2308      	movs	r3, #8
 8005752:	f887 3033 	strb.w	r3, [r7, #51]	; 0x33
 8005756:	e183      	b.n	8005a60 <UART_SetConfig+0x5d0>
 8005758:	2310      	movs	r3, #16
 800575a:	f887 3033 	strb.w	r3, [r7, #51]	; 0x33
 800575e:	e17f      	b.n	8005a60 <UART_SetConfig+0x5d0>
 8005760:	2320      	movs	r3, #32
 8005762:	f887 3033 	strb.w	r3, [r7, #51]	; 0x33
 8005766:	e17b      	b.n	8005a60 <UART_SetConfig+0x5d0>
 8005768:	2340      	movs	r3, #64	; 0x40
 800576a:	f887 3033 	strb.w	r3, [r7, #51]	; 0x33
 800576e:	e177      	b.n	8005a60 <UART_SetConfig+0x5d0>
 8005770:	2380      	movs	r3, #128	; 0x80
 8005772:	f887 3033 	strb.w	r3, [r7, #51]	; 0x33
 8005776:	bf00      	nop
 8005778:	e172      	b.n	8005a60 <UART_SetConfig+0x5d0>
 800577a:	687b      	ldr	r3, [r7, #4]
 800577c:	681b      	ldr	r3, [r3, #0]
 800577e:	4a1c      	ldr	r2, [pc, #112]	; (80057f0 <UART_SetConfig+0x360>)
 8005780:	4293      	cmp	r3, r2
 8005782:	d144      	bne.n	800580e <UART_SetConfig+0x37e>
 8005784:	4b16      	ldr	r3, [pc, #88]	; (80057e0 <UART_SetConfig+0x350>)
 8005786:	6d5b      	ldr	r3, [r3, #84]	; 0x54
 8005788:	f003 0307 	and.w	r3, r3, #7
 800578c:	2b05      	cmp	r3, #5
 800578e:	d839      	bhi.n	8005804 <UART_SetConfig+0x374>
 8005790:	a201      	add	r2, pc, #4	; (adr r2, 8005798 <UART_SetConfig+0x308>)
 8005792:	f852 f023 	ldr.w	pc, [r2, r3, lsl #2]
 8005796:	bf00      	nop
 8005798:	080057b1 	.word	0x080057b1
 800579c:	080057b9 	.word	0x080057b9
 80057a0:	080057c1 	.word	0x080057c1
 80057a4:	080057c9 	.word	0x080057c9
 80057a8:	080057f5 	.word	0x080057f5
 80057ac:	080057fd 	.word	0x080057fd
 80057b0:	2300      	movs	r3, #0
 80057b2:	f887 3033 	strb.w	r3, [r7, #51]	; 0x33
 80057b6:	e153      	b.n	8005a60 <UART_SetConfig+0x5d0>
 80057b8:	2304      	movs	r3, #4
 80057ba:	f887 3033 	strb.w	r3, [r7, #51]	; 0x33
 80057be:	e14f      	b.n	8005a60 <UART_SetConfig+0x5d0>
 80057c0:	2308      	movs	r3, #8
 80057c2:	f887 3033 	strb.w	r3, [r7, #51]	; 0x33
 80057c6:	e14b      	b.n	8005a60 <UART_SetConfig+0x5d0>
 80057c8:	2310      	movs	r3, #16
 80057ca:	f887 3033 	strb.w	r3, [r7, #51]	; 0x33
 80057ce:	e147      	b.n	8005a60 <UART_SetConfig+0x5d0>
 80057d0:	cfff69f3 	.word	0xcfff69f3
 80057d4:	58000c00 	.word	0x58000c00
 80057d8:	11fff4ff 	.word	0x11fff4ff
 80057dc:	40011000 	.word	0x40011000
 80057e0:	58024400 	.word	0x58024400
 80057e4:	40004400 	.word	0x40004400
 80057e8:	40004800 	.word	0x40004800
 80057ec:	40004c00 	.word	0x40004c00
 80057f0:	40005000 	.word	0x40005000
 80057f4:	2320      	movs	r3, #32
 80057f6:	f887 3033 	strb.w	r3, [r7, #51]	; 0x33
 80057fa:	e131      	b.n	8005a60 <UART_SetConfig+0x5d0>
 80057fc:	2340      	movs	r3, #64	; 0x40
 80057fe:	f887 3033 	strb.w	r3, [r7, #51]	; 0x33
 8005802:	e12d      	b.n	8005a60 <UART_SetConfig+0x5d0>
 8005804:	2380      	movs	r3, #128	; 0x80
 8005806:	f887 3033 	strb.w	r3, [r7, #51]	; 0x33
 800580a:	bf00      	nop
 800580c:	e128      	b.n	8005a60 <UART_SetConfig+0x5d0>
 800580e:	687b      	ldr	r3, [r7, #4]
 8005810:	681b      	ldr	r3, [r3, #0]
 8005812:	4ab6      	ldr	r2, [pc, #728]	; (8005aec <UART_SetConfig+0x65c>)
 8005814:	4293      	cmp	r3, r2
 8005816:	d178      	bne.n	800590a <UART_SetConfig+0x47a>
 8005818:	4bb5      	ldr	r3, [pc, #724]	; (8005af0 <UART_SetConfig+0x660>)
 800581a:	6d5b      	ldr	r3, [r3, #84]	; 0x54
 800581c:	f003 0338 	and.w	r3, r3, #56	; 0x38
 8005820:	2b28      	cmp	r3, #40	; 0x28
 8005822:	d86d      	bhi.n	8005900 <UART_SetConfig+0x470>
 8005824:	a201      	add	r2, pc, #4	; (adr r2, 800582c <UART_SetConfig+0x39c>)
 8005826:	f852 f023 	ldr.w	pc, [r2, r3, lsl #2]
 800582a:	bf00      	nop
 800582c:	080058d1 	.word	0x080058d1
 8005830:	08005901 	.word	0x08005901
 8005834:	08005901 	.word	0x08005901
 8005838:	08005901 	.word	0x08005901
 800583c:	08005901 	.word	0x08005901
 8005840:	08005901 	.word	0x08005901
 8005844:	08005901 	.word	0x08005901
 8005848:	08005901 	.word	0x08005901
 800584c:	080058d9 	.word	0x080058d9
 8005850:	08005901 	.word	0x08005901
 8005854:	08005901 	.word	0x08005901
 8005858:	08005901 	.word	0x08005901
 800585c:	08005901 	.word	0x08005901
 8005860:	08005901 	.word	0x08005901
 8005864:	08005901 	.word	0x08005901
 8005868:	08005901 	.word	0x08005901
 800586c:	080058e1 	.word	0x080058e1
 8005870:	08005901 	.word	0x08005901
 8005874:	08005901 	.word	0x08005901
 8005878:	08005901 	.word	0x08005901
 800587c:	08005901 	.word	0x08005901
 8005880:	08005901 	.word	0x08005901
 8005884:	08005901 	.word	0x08005901
 8005888:	08005901 	.word	0x08005901
 800588c:	080058e9 	.word	0x080058e9
 8005890:	08005901 	.word	0x08005901
 8005894:	08005901 	.word	0x08005901
 8005898:	08005901 	.word	0x08005901
 800589c:	08005901 	.word	0x08005901
 80058a0:	08005901 	.word	0x08005901
 80058a4:	08005901 	.word	0x08005901
 80058a8:	08005901 	.word	0x08005901
 80058ac:	080058f1 	.word	0x080058f1
 80058b0:	08005901 	.word	0x08005901
 80058b4:	08005901 	.word	0x08005901
 80058b8:	08005901 	.word	0x08005901
 80058bc:	08005901 	.word	0x08005901
 80058c0:	08005901 	.word	0x08005901
 80058c4:	08005901 	.word	0x08005901
 80058c8:	08005901 	.word	0x08005901
 80058cc:	080058f9 	.word	0x080058f9
 80058d0:	2301      	movs	r3, #1
 80058d2:	f887 3033 	strb.w	r3, [r7, #51]	; 0x33
 80058d6:	e0c3      	b.n	8005a60 <UART_SetConfig+0x5d0>
 80058d8:	2304      	movs	r3, #4
 80058da:	f887 3033 	strb.w	r3, [r7, #51]	; 0x33
 80058de:	e0bf      	b.n	8005a60 <UART_SetConfig+0x5d0>
 80058e0:	2308      	movs	r3, #8
 80058e2:	f887 3033 	strb.w	r3, [r7, #51]	; 0x33
 80058e6:	e0bb      	b.n	8005a60 <UART_SetConfig+0x5d0>
 80058e8:	2310      	movs	r3, #16
 80058ea:	f887 3033 	strb.w	r3, [r7, #51]	; 0x33
 80058ee:	e0b7      	b.n	8005a60 <UART_SetConfig+0x5d0>
 80058f0:	2320      	movs	r3, #32
 80058f2:	f887 3033 	strb.w	r3, [r7, #51]	; 0x33
 80058f6:	e0b3      	b.n	8005a60 <UART_SetConfig+0x5d0>
 80058f8:	2340      	movs	r3, #64	; 0x40
 80058fa:	f887 3033 	strb.w	r3, [r7, #51]	; 0x33
 80058fe:	e0af      	b.n	8005a60 <UART_SetConfig+0x5d0>
 8005900:	2380      	movs	r3, #128	; 0x80
 8005902:	f887 3033 	strb.w	r3, [r7, #51]	; 0x33
 8005906:	bf00      	nop
 8005908:	e0aa      	b.n	8005a60 <UART_SetConfig+0x5d0>
 800590a:	687b      	ldr	r3, [r7, #4]
 800590c:	681b      	ldr	r3, [r3, #0]
 800590e:	4a79      	ldr	r2, [pc, #484]	; (8005af4 <UART_SetConfig+0x664>)
 8005910:	4293      	cmp	r3, r2
 8005912:	d132      	bne.n	800597a <UART_SetConfig+0x4ea>
 8005914:	4b76      	ldr	r3, [pc, #472]	; (8005af0 <UART_SetConfig+0x660>)
 8005916:	6d5b      	ldr	r3, [r3, #84]	; 0x54
 8005918:	f003 0307 	and.w	r3, r3, #7
 800591c:	2b05      	cmp	r3, #5
 800591e:	d827      	bhi.n	8005970 <UART_SetConfig+0x4e0>
 8005920:	a201      	add	r2, pc, #4	; (adr r2, 8005928 <UART_SetConfig+0x498>)
 8005922:	f852 f023 	ldr.w	pc, [r2, r3, lsl #2]
 8005926:	bf00      	nop
 8005928:	08005941 	.word	0x08005941
 800592c:	08005949 	.word	0x08005949
 8005930:	08005951 	.word	0x08005951
 8005934:	08005959 	.word	0x08005959
 8005938:	08005961 	.word	0x08005961
 800593c:	08005969 	.word	0x08005969
 8005940:	2300      	movs	r3, #0
 8005942:	f887 3033 	strb.w	r3, [r7, #51]	; 0x33
 8005946:	e08b      	b.n	8005a60 <UART_SetConfig+0x5d0>
 8005948:	2304      	movs	r3, #4
 800594a:	f887 3033 	strb.w	r3, [r7, #51]	; 0x33
 800594e:	e087      	b.n	8005a60 <UART_SetConfig+0x5d0>
 8005950:	2308      	movs	r3, #8
 8005952:	f887 3033 	strb.w	r3, [r7, #51]	; 0x33
 8005956:	e083      	b.n	8005a60 <UART_SetConfig+0x5d0>
 8005958:	2310      	movs	r3, #16
 800595a:	f887 3033 	strb.w	r3, [r7, #51]	; 0x33
 800595e:	e07f      	b.n	8005a60 <UART_SetConfig+0x5d0>
 8005960:	2320      	movs	r3, #32
 8005962:	f887 3033 	strb.w	r3, [r7, #51]	; 0x33
 8005966:	e07b      	b.n	8005a60 <UART_SetConfig+0x5d0>
 8005968:	2340      	movs	r3, #64	; 0x40
 800596a:	f887 3033 	strb.w	r3, [r7, #51]	; 0x33
 800596e:	e077      	b.n	8005a60 <UART_SetConfig+0x5d0>
 8005970:	2380      	movs	r3, #128	; 0x80
 8005972:	f887 3033 	strb.w	r3, [r7, #51]	; 0x33
 8005976:	bf00      	nop
 8005978:	e072      	b.n	8005a60 <UART_SetConfig+0x5d0>
 800597a:	687b      	ldr	r3, [r7, #4]
 800597c:	681b      	ldr	r3, [r3, #0]
 800597e:	4a5e      	ldr	r2, [pc, #376]	; (8005af8 <UART_SetConfig+0x668>)
 8005980:	4293      	cmp	r3, r2
 8005982:	d132      	bne.n	80059ea <UART_SetConfig+0x55a>
 8005984:	4b5a      	ldr	r3, [pc, #360]	; (8005af0 <UART_SetConfig+0x660>)
 8005986:	6d5b      	ldr	r3, [r3, #84]	; 0x54
 8005988:	f003 0307 	and.w	r3, r3, #7
 800598c:	2b05      	cmp	r3, #5
 800598e:	d827      	bhi.n	80059e0 <UART_SetConfig+0x550>
 8005990:	a201      	add	r2, pc, #4	; (adr r2, 8005998 <UART_SetConfig+0x508>)
 8005992:	f852 f023 	ldr.w	pc, [r2, r3, lsl #2]
 8005996:	bf00      	nop
 8005998:	080059b1 	.word	0x080059b1
 800599c:	080059b9 	.word	0x080059b9
 80059a0:	080059c1 	.word	0x080059c1
 80059a4:	080059c9 	.word	0x080059c9
 80059a8:	080059d1 	.word	0x080059d1
 80059ac:	080059d9 	.word	0x080059d9
 80059b0:	2300      	movs	r3, #0
 80059b2:	f887 3033 	strb.w	r3, [r7, #51]	; 0x33
 80059b6:	e053      	b.n	8005a60 <UART_SetConfig+0x5d0>
 80059b8:	2304      	movs	r3, #4
 80059ba:	f887 3033 	strb.w	r3, [r7, #51]	; 0x33
 80059be:	e04f      	b.n	8005a60 <UART_SetConfig+0x5d0>
 80059c0:	2308      	movs	r3, #8
 80059c2:	f887 3033 	strb.w	r3, [r7, #51]	; 0x33
 80059c6:	e04b      	b.n	8005a60 <UART_SetConfig+0x5d0>
 80059c8:	2310      	movs	r3, #16
 80059ca:	f887 3033 	strb.w	r3, [r7, #51]	; 0x33
 80059ce:	e047      	b.n	8005a60 <UART_SetConfig+0x5d0>
 80059d0:	2320      	movs	r3, #32
 80059d2:	f887 3033 	strb.w	r3, [r7, #51]	; 0x33
 80059d6:	e043      	b.n	8005a60 <UART_SetConfig+0x5d0>
 80059d8:	2340      	movs	r3, #64	; 0x40
 80059da:	f887 3033 	strb.w	r3, [r7, #51]	; 0x33
 80059de:	e03f      	b.n	8005a60 <UART_SetConfig+0x5d0>
 80059e0:	2380      	movs	r3, #128	; 0x80
 80059e2:	f887 3033 	strb.w	r3, [r7, #51]	; 0x33
 80059e6:	bf00      	nop
 80059e8:	e03a      	b.n	8005a60 <UART_SetConfig+0x5d0>
 80059ea:	687b      	ldr	r3, [r7, #4]
 80059ec:	681b      	ldr	r3, [r3, #0]
 80059ee:	4a43      	ldr	r2, [pc, #268]	; (8005afc <UART_SetConfig+0x66c>)
 80059f0:	4293      	cmp	r3, r2
 80059f2:	d132      	bne.n	8005a5a <UART_SetConfig+0x5ca>
 80059f4:	4b3e      	ldr	r3, [pc, #248]	; (8005af0 <UART_SetConfig+0x660>)
 80059f6:	6d9b      	ldr	r3, [r3, #88]	; 0x58
 80059f8:	f003 0307 	and.w	r3, r3, #7
 80059fc:	2b05      	cmp	r3, #5
 80059fe:	d827      	bhi.n	8005a50 <UART_SetConfig+0x5c0>
 8005a00:	a201      	add	r2, pc, #4	; (adr r2, 8005a08 <UART_SetConfig+0x578>)
 8005a02:	f852 f023 	ldr.w	pc, [r2, r3, lsl #2]
 8005a06:	bf00      	nop
 8005a08:	08005a21 	.word	0x08005a21
 8005a0c:	08005a29 	.word	0x08005a29
 8005a10:	08005a31 	.word	0x08005a31
 8005a14:	08005a39 	.word	0x08005a39
 8005a18:	08005a41 	.word	0x08005a41
 8005a1c:	08005a49 	.word	0x08005a49
 8005a20:	2302      	movs	r3, #2
 8005a22:	f887 3033 	strb.w	r3, [r7, #51]	; 0x33
 8005a26:	e01b      	b.n	8005a60 <UART_SetConfig+0x5d0>
 8005a28:	2304      	movs	r3, #4
 8005a2a:	f887 3033 	strb.w	r3, [r7, #51]	; 0x33
 8005a2e:	e017      	b.n	8005a60 <UART_SetConfig+0x5d0>
 8005a30:	2308      	movs	r3, #8
 8005a32:	f887 3033 	strb.w	r3, [r7, #51]	; 0x33
 8005a36:	e013      	b.n	8005a60 <UART_SetConfig+0x5d0>
 8005a38:	2310      	movs	r3, #16
 8005a3a:	f887 3033 	strb.w	r3, [r7, #51]	; 0x33
 8005a3e:	e00f      	b.n	8005a60 <UART_SetConfig+0x5d0>
 8005a40:	2320      	movs	r3, #32
 8005a42:	f887 3033 	strb.w	r3, [r7, #51]	; 0x33
 8005a46:	e00b      	b.n	8005a60 <UART_SetConfig+0x5d0>
 8005a48:	2340      	movs	r3, #64	; 0x40
 8005a4a:	f887 3033 	strb.w	r3, [r7, #51]	; 0x33
 8005a4e:	e007      	b.n	8005a60 <UART_SetConfig+0x5d0>
 8005a50:	2380      	movs	r3, #128	; 0x80
 8005a52:	f887 3033 	strb.w	r3, [r7, #51]	; 0x33
 8005a56:	bf00      	nop
 8005a58:	e002      	b.n	8005a60 <UART_SetConfig+0x5d0>
 8005a5a:	2380      	movs	r3, #128	; 0x80
 8005a5c:	f887 3033 	strb.w	r3, [r7, #51]	; 0x33
 8005a60:	687b      	ldr	r3, [r7, #4]
 8005a62:	681b      	ldr	r3, [r3, #0]
 8005a64:	4a25      	ldr	r2, [pc, #148]	; (8005afc <UART_SetConfig+0x66c>)
 8005a66:	4293      	cmp	r3, r2
 8005a68:	f040 80b8 	bne.w	8005bdc <UART_SetConfig+0x74c>
 8005a6c:	f897 3033 	ldrb.w	r3, [r7, #51]	; 0x33
 8005a70:	2b08      	cmp	r3, #8
 8005a72:	d019      	beq.n	8005aa8 <UART_SetConfig+0x618>
 8005a74:	2b08      	cmp	r3, #8
 8005a76:	dc04      	bgt.n	8005a82 <UART_SetConfig+0x5f2>
 8005a78:	2b02      	cmp	r3, #2
 8005a7a:	d009      	beq.n	8005a90 <UART_SetConfig+0x600>
 8005a7c:	2b04      	cmp	r3, #4
 8005a7e:	d00b      	beq.n	8005a98 <UART_SetConfig+0x608>
 8005a80:	e042      	b.n	8005b08 <UART_SetConfig+0x678>
 8005a82:	2b20      	cmp	r3, #32
 8005a84:	d02b      	beq.n	8005ade <UART_SetConfig+0x64e>
 8005a86:	2b40      	cmp	r3, #64	; 0x40
 8005a88:	d02c      	beq.n	8005ae4 <UART_SetConfig+0x654>
 8005a8a:	2b10      	cmp	r3, #16
 8005a8c:	d014      	beq.n	8005ab8 <UART_SetConfig+0x628>
 8005a8e:	e03b      	b.n	8005b08 <UART_SetConfig+0x678>
 8005a90:	f7fe ff36 	bl	8004900 <HAL_RCCEx_GetD3PCLK1Freq>
 8005a94:	62f8      	str	r0, [r7, #44]	; 0x2c
 8005a96:	e03d      	b.n	8005b14 <UART_SetConfig+0x684>
 8005a98:	f107 0314 	add.w	r3, r7, #20
 8005a9c:	4618      	mov	r0, r3
 8005a9e:	f7fe ff45 	bl	800492c <HAL_RCCEx_GetPLL2ClockFreq>
 8005aa2:	69bb      	ldr	r3, [r7, #24]
 8005aa4:	62fb      	str	r3, [r7, #44]	; 0x2c
 8005aa6:	e035      	b.n	8005b14 <UART_SetConfig+0x684>
 8005aa8:	f107 0308 	add.w	r3, r7, #8
 8005aac:	4618      	mov	r0, r3
 8005aae:	f7ff f889 	bl	8004bc4 <HAL_RCCEx_GetPLL3ClockFreq>
 8005ab2:	68fb      	ldr	r3, [r7, #12]
 8005ab4:	62fb      	str	r3, [r7, #44]	; 0x2c
 8005ab6:	e02d      	b.n	8005b14 <UART_SetConfig+0x684>
 8005ab8:	4b0d      	ldr	r3, [pc, #52]	; (8005af0 <UART_SetConfig+0x660>)
 8005aba:	681b      	ldr	r3, [r3, #0]
 8005abc:	f003 0320 	and.w	r3, r3, #32
 8005ac0:	2b00      	cmp	r3, #0
 8005ac2:	d009      	beq.n	8005ad8 <UART_SetConfig+0x648>
 8005ac4:	4b0a      	ldr	r3, [pc, #40]	; (8005af0 <UART_SetConfig+0x660>)
 8005ac6:	681b      	ldr	r3, [r3, #0]
 8005ac8:	08db      	lsrs	r3, r3, #3
 8005aca:	f003 0303 	and.w	r3, r3, #3
 8005ace:	4a0c      	ldr	r2, [pc, #48]	; (8005b00 <UART_SetConfig+0x670>)
 8005ad0:	fa22 f303 	lsr.w	r3, r2, r3
 8005ad4:	62fb      	str	r3, [r7, #44]	; 0x2c
 8005ad6:	e01d      	b.n	8005b14 <UART_SetConfig+0x684>
 8005ad8:	4b09      	ldr	r3, [pc, #36]	; (8005b00 <UART_SetConfig+0x670>)
 8005ada:	62fb      	str	r3, [r7, #44]	; 0x2c
 8005adc:	e01a      	b.n	8005b14 <UART_SetConfig+0x684>
 8005ade:	4b09      	ldr	r3, [pc, #36]	; (8005b04 <UART_SetConfig+0x674>)
 8005ae0:	62fb      	str	r3, [r7, #44]	; 0x2c
 8005ae2:	e017      	b.n	8005b14 <UART_SetConfig+0x684>
 8005ae4:	f44f 4300 	mov.w	r3, #32768	; 0x8000
 8005ae8:	62fb      	str	r3, [r7, #44]	; 0x2c
 8005aea:	e013      	b.n	8005b14 <UART_SetConfig+0x684>
 8005aec:	40011400 	.word	0x40011400
 8005af0:	58024400 	.word	0x58024400
 8005af4:	40007800 	.word	0x40007800
 8005af8:	40007c00 	.word	0x40007c00
 8005afc:	58000c00 	.word	0x58000c00
 8005b00:	03d09000 	.word	0x03d09000
 8005b04:	003d0900 	.word	0x003d0900
 8005b08:	2300      	movs	r3, #0
 8005b0a:	62fb      	str	r3, [r7, #44]	; 0x2c
 8005b0c:	2301      	movs	r3, #1
 8005b0e:	f887 3032 	strb.w	r3, [r7, #50]	; 0x32
 8005b12:	bf00      	nop
 8005b14:	6afb      	ldr	r3, [r7, #44]	; 0x2c
 8005b16:	2b00      	cmp	r3, #0
 8005b18:	f000 824d 	beq.w	8005fb6 <UART_SetConfig+0xb26>
 8005b1c:	687b      	ldr	r3, [r7, #4]
 8005b1e:	6a5b      	ldr	r3, [r3, #36]	; 0x24
 8005b20:	4aad      	ldr	r2, [pc, #692]	; (8005dd8 <UART_SetConfig+0x948>)
 8005b22:	f832 3013 	ldrh.w	r3, [r2, r3, lsl #1]
 8005b26:	461a      	mov	r2, r3
 8005b28:	6afb      	ldr	r3, [r7, #44]	; 0x2c
 8005b2a:	fbb3 f3f2 	udiv	r3, r3, r2
 8005b2e:	623b      	str	r3, [r7, #32]
 8005b30:	687b      	ldr	r3, [r7, #4]
 8005b32:	685a      	ldr	r2, [r3, #4]
 8005b34:	4613      	mov	r3, r2
 8005b36:	005b      	lsls	r3, r3, #1
 8005b38:	4413      	add	r3, r2
 8005b3a:	6a3a      	ldr	r2, [r7, #32]
 8005b3c:	429a      	cmp	r2, r3
 8005b3e:	d305      	bcc.n	8005b4c <UART_SetConfig+0x6bc>
 8005b40:	687b      	ldr	r3, [r7, #4]
 8005b42:	685b      	ldr	r3, [r3, #4]
 8005b44:	031b      	lsls	r3, r3, #12
 8005b46:	6a3a      	ldr	r2, [r7, #32]
 8005b48:	429a      	cmp	r2, r3
 8005b4a:	d903      	bls.n	8005b54 <UART_SetConfig+0x6c4>
 8005b4c:	2301      	movs	r3, #1
 8005b4e:	f887 3032 	strb.w	r3, [r7, #50]	; 0x32
 8005b52:	e230      	b.n	8005fb6 <UART_SetConfig+0xb26>
 8005b54:	6afb      	ldr	r3, [r7, #44]	; 0x2c
 8005b56:	4618      	mov	r0, r3
 8005b58:	f04f 0100 	mov.w	r1, #0
 8005b5c:	687b      	ldr	r3, [r7, #4]
 8005b5e:	6a5b      	ldr	r3, [r3, #36]	; 0x24
 8005b60:	4a9d      	ldr	r2, [pc, #628]	; (8005dd8 <UART_SetConfig+0x948>)
 8005b62:	f832 3013 	ldrh.w	r3, [r2, r3, lsl #1]
 8005b66:	b29b      	uxth	r3, r3
 8005b68:	f04f 0400 	mov.w	r4, #0
 8005b6c:	461a      	mov	r2, r3
 8005b6e:	4623      	mov	r3, r4
 8005b70:	f7fa fc06 	bl	8000380 <__aeabi_uldivmod>
 8005b74:	4603      	mov	r3, r0
 8005b76:	460c      	mov	r4, r1
 8005b78:	4619      	mov	r1, r3
 8005b7a:	4622      	mov	r2, r4
 8005b7c:	f04f 0300 	mov.w	r3, #0
 8005b80:	f04f 0400 	mov.w	r4, #0
 8005b84:	0214      	lsls	r4, r2, #8
 8005b86:	ea44 6411 	orr.w	r4, r4, r1, lsr #24
 8005b8a:	020b      	lsls	r3, r1, #8
 8005b8c:	687a      	ldr	r2, [r7, #4]
 8005b8e:	6852      	ldr	r2, [r2, #4]
 8005b90:	0852      	lsrs	r2, r2, #1
 8005b92:	4611      	mov	r1, r2
 8005b94:	f04f 0200 	mov.w	r2, #0
 8005b98:	eb13 0b01 	adds.w	fp, r3, r1
 8005b9c:	eb44 0c02 	adc.w	ip, r4, r2
 8005ba0:	4658      	mov	r0, fp
 8005ba2:	4661      	mov	r1, ip
 8005ba4:	687b      	ldr	r3, [r7, #4]
 8005ba6:	685b      	ldr	r3, [r3, #4]
 8005ba8:	f04f 0400 	mov.w	r4, #0
 8005bac:	461a      	mov	r2, r3
 8005bae:	4623      	mov	r3, r4
 8005bb0:	f7fa fbe6 	bl	8000380 <__aeabi_uldivmod>
 8005bb4:	4603      	mov	r3, r0
 8005bb6:	460c      	mov	r4, r1
 8005bb8:	62bb      	str	r3, [r7, #40]	; 0x28
 8005bba:	6abb      	ldr	r3, [r7, #40]	; 0x28
 8005bbc:	f5b3 7f40 	cmp.w	r3, #768	; 0x300
 8005bc0:	d308      	bcc.n	8005bd4 <UART_SetConfig+0x744>
 8005bc2:	6abb      	ldr	r3, [r7, #40]	; 0x28
 8005bc4:	f5b3 1f80 	cmp.w	r3, #1048576	; 0x100000
 8005bc8:	d204      	bcs.n	8005bd4 <UART_SetConfig+0x744>
 8005bca:	687b      	ldr	r3, [r7, #4]
 8005bcc:	681b      	ldr	r3, [r3, #0]
 8005bce:	6aba      	ldr	r2, [r7, #40]	; 0x28
 8005bd0:	60da      	str	r2, [r3, #12]
 8005bd2:	e1f0      	b.n	8005fb6 <UART_SetConfig+0xb26>
 8005bd4:	2301      	movs	r3, #1
 8005bd6:	f887 3032 	strb.w	r3, [r7, #50]	; 0x32
 8005bda:	e1ec      	b.n	8005fb6 <UART_SetConfig+0xb26>
 8005bdc:	687b      	ldr	r3, [r7, #4]
 8005bde:	69db      	ldr	r3, [r3, #28]
 8005be0:	f5b3 4f00 	cmp.w	r3, #32768	; 0x8000
 8005be4:	f040 8100 	bne.w	8005de8 <UART_SetConfig+0x958>
 8005be8:	f897 3033 	ldrb.w	r3, [r7, #51]	; 0x33
 8005bec:	2b40      	cmp	r3, #64	; 0x40
 8005bee:	f200 80b7 	bhi.w	8005d60 <UART_SetConfig+0x8d0>
 8005bf2:	a201      	add	r2, pc, #4	; (adr r2, 8005bf8 <UART_SetConfig+0x768>)
 8005bf4:	f852 f023 	ldr.w	pc, [r2, r3, lsl #2]
 8005bf8:	08005cfd 	.word	0x08005cfd
 8005bfc:	08005d05 	.word	0x08005d05
 8005c00:	08005d61 	.word	0x08005d61
 8005c04:	08005d61 	.word	0x08005d61
 8005c08:	08005d0d 	.word	0x08005d0d
 8005c0c:	08005d61 	.word	0x08005d61
 8005c10:	08005d61 	.word	0x08005d61
 8005c14:	08005d61 	.word	0x08005d61
 8005c18:	08005d1d 	.word	0x08005d1d
 8005c1c:	08005d61 	.word	0x08005d61
 8005c20:	08005d61 	.word	0x08005d61
 8005c24:	08005d61 	.word	0x08005d61
 8005c28:	08005d61 	.word	0x08005d61
 8005c2c:	08005d61 	.word	0x08005d61
 8005c30:	08005d61 	.word	0x08005d61
 8005c34:	08005d61 	.word	0x08005d61
 8005c38:	08005d2d 	.word	0x08005d2d
 8005c3c:	08005d61 	.word	0x08005d61
 8005c40:	08005d61 	.word	0x08005d61
 8005c44:	08005d61 	.word	0x08005d61
 8005c48:	08005d61 	.word	0x08005d61
 8005c4c:	08005d61 	.word	0x08005d61
 8005c50:	08005d61 	.word	0x08005d61
 8005c54:	08005d61 	.word	0x08005d61
 8005c58:	08005d61 	.word	0x08005d61
 8005c5c:	08005d61 	.word	0x08005d61
 8005c60:	08005d61 	.word	0x08005d61
 8005c64:	08005d61 	.word	0x08005d61
 8005c68:	08005d61 	.word	0x08005d61
 8005c6c:	08005d61 	.word	0x08005d61
 8005c70:	08005d61 	.word	0x08005d61
 8005c74:	08005d61 	.word	0x08005d61
 8005c78:	08005d53 	.word	0x08005d53
 8005c7c:	08005d61 	.word	0x08005d61
 8005c80:	08005d61 	.word	0x08005d61
 8005c84:	08005d61 	.word	0x08005d61
 8005c88:	08005d61 	.word	0x08005d61
 8005c8c:	08005d61 	.word	0x08005d61
 8005c90:	08005d61 	.word	0x08005d61
 8005c94:	08005d61 	.word	0x08005d61
 8005c98:	08005d61 	.word	0x08005d61
 8005c9c:	08005d61 	.word	0x08005d61
 8005ca0:	08005d61 	.word	0x08005d61
 8005ca4:	08005d61 	.word	0x08005d61
 8005ca8:	08005d61 	.word	0x08005d61
 8005cac:	08005d61 	.word	0x08005d61
 8005cb0:	08005d61 	.word	0x08005d61
 8005cb4:	08005d61 	.word	0x08005d61
 8005cb8:	08005d61 	.word	0x08005d61
 8005cbc:	08005d61 	.word	0x08005d61
 8005cc0:	08005d61 	.word	0x08005d61
 8005cc4:	08005d61 	.word	0x08005d61
 8005cc8:	08005d61 	.word	0x08005d61
 8005ccc:	08005d61 	.word	0x08005d61
 8005cd0:	08005d61 	.word	0x08005d61
 8005cd4:	08005d61 	.word	0x08005d61
 8005cd8:	08005d61 	.word	0x08005d61
 8005cdc:	08005d61 	.word	0x08005d61
 8005ce0:	08005d61 	.word	0x08005d61
 8005ce4:	08005d61 	.word	0x08005d61
 8005ce8:	08005d61 	.word	0x08005d61
 8005cec:	08005d61 	.word	0x08005d61
 8005cf0:	08005d61 	.word	0x08005d61
 8005cf4:	08005d61 	.word	0x08005d61
 8005cf8:	08005d59 	.word	0x08005d59
 8005cfc:	f7fd fee6 	bl	8003acc <HAL_RCC_GetPCLK1Freq>
 8005d00:	62f8      	str	r0, [r7, #44]	; 0x2c
 8005d02:	e033      	b.n	8005d6c <UART_SetConfig+0x8dc>
 8005d04:	f7fd fef8 	bl	8003af8 <HAL_RCC_GetPCLK2Freq>
 8005d08:	62f8      	str	r0, [r7, #44]	; 0x2c
 8005d0a:	e02f      	b.n	8005d6c <UART_SetConfig+0x8dc>
 8005d0c:	f107 0314 	add.w	r3, r7, #20
 8005d10:	4618      	mov	r0, r3
 8005d12:	f7fe fe0b 	bl	800492c <HAL_RCCEx_GetPLL2ClockFreq>
 8005d16:	69bb      	ldr	r3, [r7, #24]
 8005d18:	62fb      	str	r3, [r7, #44]	; 0x2c
 8005d1a:	e027      	b.n	8005d6c <UART_SetConfig+0x8dc>
 8005d1c:	f107 0308 	add.w	r3, r7, #8
 8005d20:	4618      	mov	r0, r3
 8005d22:	f7fe ff4f 	bl	8004bc4 <HAL_RCCEx_GetPLL3ClockFreq>
 8005d26:	68fb      	ldr	r3, [r7, #12]
 8005d28:	62fb      	str	r3, [r7, #44]	; 0x2c
 8005d2a:	e01f      	b.n	8005d6c <UART_SetConfig+0x8dc>
 8005d2c:	4b2b      	ldr	r3, [pc, #172]	; (8005ddc <UART_SetConfig+0x94c>)
 8005d2e:	681b      	ldr	r3, [r3, #0]
 8005d30:	f003 0320 	and.w	r3, r3, #32
 8005d34:	2b00      	cmp	r3, #0
 8005d36:	d009      	beq.n	8005d4c <UART_SetConfig+0x8bc>
 8005d38:	4b28      	ldr	r3, [pc, #160]	; (8005ddc <UART_SetConfig+0x94c>)
 8005d3a:	681b      	ldr	r3, [r3, #0]
 8005d3c:	08db      	lsrs	r3, r3, #3
 8005d3e:	f003 0303 	and.w	r3, r3, #3
 8005d42:	4a27      	ldr	r2, [pc, #156]	; (8005de0 <UART_SetConfig+0x950>)
 8005d44:	fa22 f303 	lsr.w	r3, r2, r3
 8005d48:	62fb      	str	r3, [r7, #44]	; 0x2c
 8005d4a:	e00f      	b.n	8005d6c <UART_SetConfig+0x8dc>
 8005d4c:	4b24      	ldr	r3, [pc, #144]	; (8005de0 <UART_SetConfig+0x950>)
 8005d4e:	62fb      	str	r3, [r7, #44]	; 0x2c
 8005d50:	e00c      	b.n	8005d6c <UART_SetConfig+0x8dc>
 8005d52:	4b24      	ldr	r3, [pc, #144]	; (8005de4 <UART_SetConfig+0x954>)
 8005d54:	62fb      	str	r3, [r7, #44]	; 0x2c
 8005d56:	e009      	b.n	8005d6c <UART_SetConfig+0x8dc>
 8005d58:	f44f 4300 	mov.w	r3, #32768	; 0x8000
 8005d5c:	62fb      	str	r3, [r7, #44]	; 0x2c
 8005d5e:	e005      	b.n	8005d6c <UART_SetConfig+0x8dc>
 8005d60:	2300      	movs	r3, #0
 8005d62:	62fb      	str	r3, [r7, #44]	; 0x2c
 8005d64:	2301      	movs	r3, #1
 8005d66:	f887 3032 	strb.w	r3, [r7, #50]	; 0x32
 8005d6a:	bf00      	nop
 8005d6c:	6afb      	ldr	r3, [r7, #44]	; 0x2c
 8005d6e:	2b00      	cmp	r3, #0
 8005d70:	f000 8121 	beq.w	8005fb6 <UART_SetConfig+0xb26>
 8005d74:	687b      	ldr	r3, [r7, #4]
 8005d76:	6a5b      	ldr	r3, [r3, #36]	; 0x24
 8005d78:	4a17      	ldr	r2, [pc, #92]	; (8005dd8 <UART_SetConfig+0x948>)
 8005d7a:	f832 3013 	ldrh.w	r3, [r2, r3, lsl #1]
 8005d7e:	461a      	mov	r2, r3
 8005d80:	6afb      	ldr	r3, [r7, #44]	; 0x2c
 8005d82:	fbb3 f3f2 	udiv	r3, r3, r2
 8005d86:	005a      	lsls	r2, r3, #1
 8005d88:	687b      	ldr	r3, [r7, #4]
 8005d8a:	685b      	ldr	r3, [r3, #4]
 8005d8c:	085b      	lsrs	r3, r3, #1
 8005d8e:	441a      	add	r2, r3
 8005d90:	687b      	ldr	r3, [r7, #4]
 8005d92:	685b      	ldr	r3, [r3, #4]
 8005d94:	fbb2 f3f3 	udiv	r3, r2, r3
 8005d98:	b29b      	uxth	r3, r3
 8005d9a:	62bb      	str	r3, [r7, #40]	; 0x28
 8005d9c:	6abb      	ldr	r3, [r7, #40]	; 0x28
 8005d9e:	2b0f      	cmp	r3, #15
 8005da0:	d916      	bls.n	8005dd0 <UART_SetConfig+0x940>
 8005da2:	6abb      	ldr	r3, [r7, #40]	; 0x28
 8005da4:	f5b3 3f80 	cmp.w	r3, #65536	; 0x10000
 8005da8:	d212      	bcs.n	8005dd0 <UART_SetConfig+0x940>
 8005daa:	6abb      	ldr	r3, [r7, #40]	; 0x28
 8005dac:	b29b      	uxth	r3, r3
 8005dae:	f023 030f 	bic.w	r3, r3, #15
 8005db2:	84fb      	strh	r3, [r7, #38]	; 0x26
 8005db4:	6abb      	ldr	r3, [r7, #40]	; 0x28
 8005db6:	085b      	lsrs	r3, r3, #1
 8005db8:	b29b      	uxth	r3, r3
 8005dba:	f003 0307 	and.w	r3, r3, #7
 8005dbe:	b29a      	uxth	r2, r3
 8005dc0:	8cfb      	ldrh	r3, [r7, #38]	; 0x26
 8005dc2:	4313      	orrs	r3, r2
 8005dc4:	84fb      	strh	r3, [r7, #38]	; 0x26
 8005dc6:	687b      	ldr	r3, [r7, #4]
 8005dc8:	681b      	ldr	r3, [r3, #0]
 8005dca:	8cfa      	ldrh	r2, [r7, #38]	; 0x26
 8005dcc:	60da      	str	r2, [r3, #12]
 8005dce:	e0f2      	b.n	8005fb6 <UART_SetConfig+0xb26>
 8005dd0:	2301      	movs	r3, #1
 8005dd2:	f887 3032 	strb.w	r3, [r7, #50]	; 0x32
 8005dd6:	e0ee      	b.n	8005fb6 <UART_SetConfig+0xb26>
 8005dd8:	080075f8 	.word	0x080075f8
 8005ddc:	58024400 	.word	0x58024400
 8005de0:	03d09000 	.word	0x03d09000
 8005de4:	003d0900 	.word	0x003d0900
 8005de8:	f897 3033 	ldrb.w	r3, [r7, #51]	; 0x33
 8005dec:	2b40      	cmp	r3, #64	; 0x40
 8005dee:	f200 80b7 	bhi.w	8005f60 <UART_SetConfig+0xad0>
 8005df2:	a201      	add	r2, pc, #4	; (adr r2, 8005df8 <UART_SetConfig+0x968>)
 8005df4:	f852 f023 	ldr.w	pc, [r2, r3, lsl #2]
 8005df8:	08005efd 	.word	0x08005efd
 8005dfc:	08005f05 	.word	0x08005f05
 8005e00:	08005f61 	.word	0x08005f61
 8005e04:	08005f61 	.word	0x08005f61
 8005e08:	08005f0d 	.word	0x08005f0d
 8005e0c:	08005f61 	.word	0x08005f61
 8005e10:	08005f61 	.word	0x08005f61
 8005e14:	08005f61 	.word	0x08005f61
 8005e18:	08005f1d 	.word	0x08005f1d
 8005e1c:	08005f61 	.word	0x08005f61
 8005e20:	08005f61 	.word	0x08005f61
 8005e24:	08005f61 	.word	0x08005f61
 8005e28:	08005f61 	.word	0x08005f61
 8005e2c:	08005f61 	.word	0x08005f61
 8005e30:	08005f61 	.word	0x08005f61
 8005e34:	08005f61 	.word	0x08005f61
 8005e38:	08005f2d 	.word	0x08005f2d
 8005e3c:	08005f61 	.word	0x08005f61
 8005e40:	08005f61 	.word	0x08005f61
 8005e44:	08005f61 	.word	0x08005f61
 8005e48:	08005f61 	.word	0x08005f61
 8005e4c:	08005f61 	.word	0x08005f61
 8005e50:	08005f61 	.word	0x08005f61
 8005e54:	08005f61 	.word	0x08005f61
 8005e58:	08005f61 	.word	0x08005f61
 8005e5c:	08005f61 	.word	0x08005f61
 8005e60:	08005f61 	.word	0x08005f61
 8005e64:	08005f61 	.word	0x08005f61
 8005e68:	08005f61 	.word	0x08005f61
 8005e6c:	08005f61 	.word	0x08005f61
 8005e70:	08005f61 	.word	0x08005f61
 8005e74:	08005f61 	.word	0x08005f61
 8005e78:	08005f53 	.word	0x08005f53
 8005e7c:	08005f61 	.word	0x08005f61
 8005e80:	08005f61 	.word	0x08005f61
 8005e84:	08005f61 	.word	0x08005f61
 8005e88:	08005f61 	.word	0x08005f61
 8005e8c:	08005f61 	.word	0x08005f61
 8005e90:	08005f61 	.word	0x08005f61
 8005e94:	08005f61 	.word	0x08005f61
 8005e98:	08005f61 	.word	0x08005f61
 8005e9c:	08005f61 	.word	0x08005f61
 8005ea0:	08005f61 	.word	0x08005f61
 8005ea4:	08005f61 	.word	0x08005f61
 8005ea8:	08005f61 	.word	0x08005f61
 8005eac:	08005f61 	.word	0x08005f61
 8005eb0:	08005f61 	.word	0x08005f61
 8005eb4:	08005f61 	.word	0x08005f61
 8005eb8:	08005f61 	.word	0x08005f61
 8005ebc:	08005f61 	.word	0x08005f61
 8005ec0:	08005f61 	.word	0x08005f61
 8005ec4:	08005f61 	.word	0x08005f61
 8005ec8:	08005f61 	.word	0x08005f61
 8005ecc:	08005f61 	.word	0x08005f61
 8005ed0:	08005f61 	.word	0x08005f61
 8005ed4:	08005f61 	.word	0x08005f61
 8005ed8:	08005f61 	.word	0x08005f61
 8005edc:	08005f61 	.word	0x08005f61
 8005ee0:	08005f61 	.word	0x08005f61
 8005ee4:	08005f61 	.word	0x08005f61
 8005ee8:	08005f61 	.word	0x08005f61
 8005eec:	08005f61 	.word	0x08005f61
 8005ef0:	08005f61 	.word	0x08005f61
 8005ef4:	08005f61 	.word	0x08005f61
 8005ef8:	08005f59 	.word	0x08005f59
 8005efc:	f7fd fde6 	bl	8003acc <HAL_RCC_GetPCLK1Freq>
 8005f00:	62f8      	str	r0, [r7, #44]	; 0x2c
 8005f02:	e033      	b.n	8005f6c <UART_SetConfig+0xadc>
 8005f04:	f7fd fdf8 	bl	8003af8 <HAL_RCC_GetPCLK2Freq>
 8005f08:	62f8      	str	r0, [r7, #44]	; 0x2c
 8005f0a:	e02f      	b.n	8005f6c <UART_SetConfig+0xadc>
 8005f0c:	f107 0314 	add.w	r3, r7, #20
 8005f10:	4618      	mov	r0, r3
 8005f12:	f7fe fd0b 	bl	800492c <HAL_RCCEx_GetPLL2ClockFreq>
 8005f16:	69bb      	ldr	r3, [r7, #24]
 8005f18:	62fb      	str	r3, [r7, #44]	; 0x2c
 8005f1a:	e027      	b.n	8005f6c <UART_SetConfig+0xadc>
 8005f1c:	f107 0308 	add.w	r3, r7, #8
 8005f20:	4618      	mov	r0, r3
 8005f22:	f7fe fe4f 	bl	8004bc4 <HAL_RCCEx_GetPLL3ClockFreq>
 8005f26:	68fb      	ldr	r3, [r7, #12]
 8005f28:	62fb      	str	r3, [r7, #44]	; 0x2c
 8005f2a:	e01f      	b.n	8005f6c <UART_SetConfig+0xadc>
 8005f2c:	4b2c      	ldr	r3, [pc, #176]	; (8005fe0 <UART_SetConfig+0xb50>)
 8005f2e:	681b      	ldr	r3, [r3, #0]
 8005f30:	f003 0320 	and.w	r3, r3, #32
 8005f34:	2b00      	cmp	r3, #0
 8005f36:	d009      	beq.n	8005f4c <UART_SetConfig+0xabc>
 8005f38:	4b29      	ldr	r3, [pc, #164]	; (8005fe0 <UART_SetConfig+0xb50>)
 8005f3a:	681b      	ldr	r3, [r3, #0]
 8005f3c:	08db      	lsrs	r3, r3, #3
 8005f3e:	f003 0303 	and.w	r3, r3, #3
 8005f42:	4a28      	ldr	r2, [pc, #160]	; (8005fe4 <UART_SetConfig+0xb54>)
 8005f44:	fa22 f303 	lsr.w	r3, r2, r3
 8005f48:	62fb      	str	r3, [r7, #44]	; 0x2c
 8005f4a:	e00f      	b.n	8005f6c <UART_SetConfig+0xadc>
 8005f4c:	4b25      	ldr	r3, [pc, #148]	; (8005fe4 <UART_SetConfig+0xb54>)
 8005f4e:	62fb      	str	r3, [r7, #44]	; 0x2c
 8005f50:	e00c      	b.n	8005f6c <UART_SetConfig+0xadc>
 8005f52:	4b25      	ldr	r3, [pc, #148]	; (8005fe8 <UART_SetConfig+0xb58>)
 8005f54:	62fb      	str	r3, [r7, #44]	; 0x2c
 8005f56:	e009      	b.n	8005f6c <UART_SetConfig+0xadc>
 8005f58:	f44f 4300 	mov.w	r3, #32768	; 0x8000
 8005f5c:	62fb      	str	r3, [r7, #44]	; 0x2c
 8005f5e:	e005      	b.n	8005f6c <UART_SetConfig+0xadc>
 8005f60:	2300      	movs	r3, #0
 8005f62:	62fb      	str	r3, [r7, #44]	; 0x2c
 8005f64:	2301      	movs	r3, #1
 8005f66:	f887 3032 	strb.w	r3, [r7, #50]	; 0x32
 8005f6a:	bf00      	nop
 8005f6c:	6afb      	ldr	r3, [r7, #44]	; 0x2c
 8005f6e:	2b00      	cmp	r3, #0
 8005f70:	d021      	beq.n	8005fb6 <UART_SetConfig+0xb26>
 8005f72:	687b      	ldr	r3, [r7, #4]
 8005f74:	6a5b      	ldr	r3, [r3, #36]	; 0x24
 8005f76:	4a1d      	ldr	r2, [pc, #116]	; (8005fec <UART_SetConfig+0xb5c>)
 8005f78:	f832 3013 	ldrh.w	r3, [r2, r3, lsl #1]
 8005f7c:	461a      	mov	r2, r3
 8005f7e:	6afb      	ldr	r3, [r7, #44]	; 0x2c
 8005f80:	fbb3 f2f2 	udiv	r2, r3, r2
 8005f84:	687b      	ldr	r3, [r7, #4]
 8005f86:	685b      	ldr	r3, [r3, #4]
 8005f88:	085b      	lsrs	r3, r3, #1
 8005f8a:	441a      	add	r2, r3
 8005f8c:	687b      	ldr	r3, [r7, #4]
 8005f8e:	685b      	ldr	r3, [r3, #4]
 8005f90:	fbb2 f3f3 	udiv	r3, r2, r3
 8005f94:	b29b      	uxth	r3, r3
 8005f96:	62bb      	str	r3, [r7, #40]	; 0x28
 8005f98:	6abb      	ldr	r3, [r7, #40]	; 0x28
 8005f9a:	2b0f      	cmp	r3, #15
 8005f9c:	d908      	bls.n	8005fb0 <UART_SetConfig+0xb20>
 8005f9e:	6abb      	ldr	r3, [r7, #40]	; 0x28
 8005fa0:	f5b3 3f80 	cmp.w	r3, #65536	; 0x10000
 8005fa4:	d204      	bcs.n	8005fb0 <UART_SetConfig+0xb20>
 8005fa6:	687b      	ldr	r3, [r7, #4]
 8005fa8:	681b      	ldr	r3, [r3, #0]
 8005faa:	6aba      	ldr	r2, [r7, #40]	; 0x28
 8005fac:	60da      	str	r2, [r3, #12]
 8005fae:	e002      	b.n	8005fb6 <UART_SetConfig+0xb26>
 8005fb0:	2301      	movs	r3, #1
 8005fb2:	f887 3032 	strb.w	r3, [r7, #50]	; 0x32
 8005fb6:	687b      	ldr	r3, [r7, #4]
 8005fb8:	2201      	movs	r2, #1
 8005fba:	f8a3 206a 	strh.w	r2, [r3, #106]	; 0x6a
 8005fbe:	687b      	ldr	r3, [r7, #4]
 8005fc0:	2201      	movs	r2, #1
 8005fc2:	f8a3 2068 	strh.w	r2, [r3, #104]	; 0x68
 8005fc6:	687b      	ldr	r3, [r7, #4]
 8005fc8:	2200      	movs	r2, #0
 8005fca:	66da      	str	r2, [r3, #108]	; 0x6c
 8005fcc:	687b      	ldr	r3, [r7, #4]
 8005fce:	2200      	movs	r2, #0
 8005fd0:	671a      	str	r2, [r3, #112]	; 0x70
 8005fd2:	f897 3032 	ldrb.w	r3, [r7, #50]	; 0x32
 8005fd6:	4618      	mov	r0, r3
 8005fd8:	3738      	adds	r7, #56	; 0x38
 8005fda:	46bd      	mov	sp, r7
 8005fdc:	e8bd 8890 	ldmia.w	sp!, {r4, r7, fp, pc}
 8005fe0:	58024400 	.word	0x58024400
 8005fe4:	03d09000 	.word	0x03d09000
 8005fe8:	003d0900 	.word	0x003d0900
 8005fec:	080075f8 	.word	0x080075f8

08005ff0 <UART_AdvFeatureConfig>:
 8005ff0:	b480      	push	{r7}
 8005ff2:	b083      	sub	sp, #12
 8005ff4:	af00      	add	r7, sp, #0
 8005ff6:	6078      	str	r0, [r7, #4]
 8005ff8:	687b      	ldr	r3, [r7, #4]
 8005ffa:	6a9b      	ldr	r3, [r3, #40]	; 0x28
 8005ffc:	f003 0301 	and.w	r3, r3, #1
 8006000:	2b00      	cmp	r3, #0
 8006002:	d00a      	beq.n	800601a <UART_AdvFeatureConfig+0x2a>
 8006004:	687b      	ldr	r3, [r7, #4]
 8006006:	681b      	ldr	r3, [r3, #0]
 8006008:	685b      	ldr	r3, [r3, #4]
 800600a:	f423 3100 	bic.w	r1, r3, #131072	; 0x20000
 800600e:	687b      	ldr	r3, [r7, #4]
 8006010:	6ada      	ldr	r2, [r3, #44]	; 0x2c
 8006012:	687b      	ldr	r3, [r7, #4]
 8006014:	681b      	ldr	r3, [r3, #0]
 8006016:	430a      	orrs	r2, r1
 8006018:	605a      	str	r2, [r3, #4]
 800601a:	687b      	ldr	r3, [r7, #4]
 800601c:	6a9b      	ldr	r3, [r3, #40]	; 0x28
 800601e:	f003 0302 	and.w	r3, r3, #2
 8006022:	2b00      	cmp	r3, #0
 8006024:	d00a      	beq.n	800603c <UART_AdvFeatureConfig+0x4c>
 8006026:	687b      	ldr	r3, [r7, #4]
 8006028:	681b      	ldr	r3, [r3, #0]
 800602a:	685b      	ldr	r3, [r3, #4]
 800602c:	f423 3180 	bic.w	r1, r3, #65536	; 0x10000
 8006030:	687b      	ldr	r3, [r7, #4]
 8006032:	6b1a      	ldr	r2, [r3, #48]	; 0x30
 8006034:	687b      	ldr	r3, [r7, #4]
 8006036:	681b      	ldr	r3, [r3, #0]
 8006038:	430a      	orrs	r2, r1
 800603a:	605a      	str	r2, [r3, #4]
 800603c:	687b      	ldr	r3, [r7, #4]
 800603e:	6a9b      	ldr	r3, [r3, #40]	; 0x28
 8006040:	f003 0304 	and.w	r3, r3, #4
 8006044:	2b00      	cmp	r3, #0
 8006046:	d00a      	beq.n	800605e <UART_AdvFeatureConfig+0x6e>
 8006048:	687b      	ldr	r3, [r7, #4]
 800604a:	681b      	ldr	r3, [r3, #0]
 800604c:	685b      	ldr	r3, [r3, #4]
 800604e:	f423 2180 	bic.w	r1, r3, #262144	; 0x40000
 8006052:	687b      	ldr	r3, [r7, #4]
 8006054:	6b5a      	ldr	r2, [r3, #52]	; 0x34
 8006056:	687b      	ldr	r3, [r7, #4]
 8006058:	681b      	ldr	r3, [r3, #0]
 800605a:	430a      	orrs	r2, r1
 800605c:	605a      	str	r2, [r3, #4]
 800605e:	687b      	ldr	r3, [r7, #4]
 8006060:	6a9b      	ldr	r3, [r3, #40]	; 0x28
 8006062:	f003 0308 	and.w	r3, r3, #8
 8006066:	2b00      	cmp	r3, #0
 8006068:	d00a      	beq.n	8006080 <UART_AdvFeatureConfig+0x90>
 800606a:	687b      	ldr	r3, [r7, #4]
 800606c:	681b      	ldr	r3, [r3, #0]
 800606e:	685b      	ldr	r3, [r3, #4]
 8006070:	f423 4100 	bic.w	r1, r3, #32768	; 0x8000
 8006074:	687b      	ldr	r3, [r7, #4]
 8006076:	6b9a      	ldr	r2, [r3, #56]	; 0x38
 8006078:	687b      	ldr	r3, [r7, #4]
 800607a:	681b      	ldr	r3, [r3, #0]
 800607c:	430a      	orrs	r2, r1
 800607e:	605a      	str	r2, [r3, #4]
 8006080:	687b      	ldr	r3, [r7, #4]
 8006082:	6a9b      	ldr	r3, [r3, #40]	; 0x28
 8006084:	f003 0310 	and.w	r3, r3, #16
 8006088:	2b00      	cmp	r3, #0
 800608a:	d00a      	beq.n	80060a2 <UART_AdvFeatureConfig+0xb2>
 800608c:	687b      	ldr	r3, [r7, #4]
 800608e:	681b      	ldr	r3, [r3, #0]
 8006090:	689b      	ldr	r3, [r3, #8]
 8006092:	f423 5180 	bic.w	r1, r3, #4096	; 0x1000
 8006096:	687b      	ldr	r3, [r7, #4]
 8006098:	6bda      	ldr	r2, [r3, #60]	; 0x3c
 800609a:	687b      	ldr	r3, [r7, #4]
 800609c:	681b      	ldr	r3, [r3, #0]
 800609e:	430a      	orrs	r2, r1
 80060a0:	609a      	str	r2, [r3, #8]
 80060a2:	687b      	ldr	r3, [r7, #4]
 80060a4:	6a9b      	ldr	r3, [r3, #40]	; 0x28
 80060a6:	f003 0320 	and.w	r3, r3, #32
 80060aa:	2b00      	cmp	r3, #0
 80060ac:	d00a      	beq.n	80060c4 <UART_AdvFeatureConfig+0xd4>
 80060ae:	687b      	ldr	r3, [r7, #4]
 80060b0:	681b      	ldr	r3, [r3, #0]
 80060b2:	689b      	ldr	r3, [r3, #8]
 80060b4:	f423 5100 	bic.w	r1, r3, #8192	; 0x2000
 80060b8:	687b      	ldr	r3, [r7, #4]
 80060ba:	6c1a      	ldr	r2, [r3, #64]	; 0x40
 80060bc:	687b      	ldr	r3, [r7, #4]
 80060be:	681b      	ldr	r3, [r3, #0]
 80060c0:	430a      	orrs	r2, r1
 80060c2:	609a      	str	r2, [r3, #8]
 80060c4:	687b      	ldr	r3, [r7, #4]
 80060c6:	6a9b      	ldr	r3, [r3, #40]	; 0x28
 80060c8:	f003 0340 	and.w	r3, r3, #64	; 0x40
 80060cc:	2b00      	cmp	r3, #0
 80060ce:	d01a      	beq.n	8006106 <UART_AdvFeatureConfig+0x116>
 80060d0:	687b      	ldr	r3, [r7, #4]
 80060d2:	681b      	ldr	r3, [r3, #0]
 80060d4:	685b      	ldr	r3, [r3, #4]
 80060d6:	f423 1180 	bic.w	r1, r3, #1048576	; 0x100000
 80060da:	687b      	ldr	r3, [r7, #4]
 80060dc:	6c5a      	ldr	r2, [r3, #68]	; 0x44
 80060de:	687b      	ldr	r3, [r7, #4]
 80060e0:	681b      	ldr	r3, [r3, #0]
 80060e2:	430a      	orrs	r2, r1
 80060e4:	605a      	str	r2, [r3, #4]
 80060e6:	687b      	ldr	r3, [r7, #4]
 80060e8:	6c5b      	ldr	r3, [r3, #68]	; 0x44
 80060ea:	f5b3 1f80 	cmp.w	r3, #1048576	; 0x100000
 80060ee:	d10a      	bne.n	8006106 <UART_AdvFeatureConfig+0x116>
 80060f0:	687b      	ldr	r3, [r7, #4]
 80060f2:	681b      	ldr	r3, [r3, #0]
 80060f4:	685b      	ldr	r3, [r3, #4]
 80060f6:	f423 01c0 	bic.w	r1, r3, #6291456	; 0x600000
 80060fa:	687b      	ldr	r3, [r7, #4]
 80060fc:	6c9a      	ldr	r2, [r3, #72]	; 0x48
 80060fe:	687b      	ldr	r3, [r7, #4]
 8006100:	681b      	ldr	r3, [r3, #0]
 8006102:	430a      	orrs	r2, r1
 8006104:	605a      	str	r2, [r3, #4]
 8006106:	687b      	ldr	r3, [r7, #4]
 8006108:	6a9b      	ldr	r3, [r3, #40]	; 0x28
 800610a:	f003 0380 	and.w	r3, r3, #128	; 0x80
 800610e:	2b00      	cmp	r3, #0
 8006110:	d00a      	beq.n	8006128 <UART_AdvFeatureConfig+0x138>
 8006112:	687b      	ldr	r3, [r7, #4]
 8006114:	681b      	ldr	r3, [r3, #0]
 8006116:	685b      	ldr	r3, [r3, #4]
 8006118:	f423 2100 	bic.w	r1, r3, #524288	; 0x80000
 800611c:	687b      	ldr	r3, [r7, #4]
 800611e:	6cda      	ldr	r2, [r3, #76]	; 0x4c
 8006120:	687b      	ldr	r3, [r7, #4]
 8006122:	681b      	ldr	r3, [r3, #0]
 8006124:	430a      	orrs	r2, r1
 8006126:	605a      	str	r2, [r3, #4]
 8006128:	bf00      	nop
 800612a:	370c      	adds	r7, #12
 800612c:	46bd      	mov	sp, r7
 800612e:	f85d 7b04 	ldr.w	r7, [sp], #4
 8006132:	4770      	bx	lr

08006134 <UART_CheckIdleState>:
 8006134:	b580      	push	{r7, lr}
 8006136:	b086      	sub	sp, #24
 8006138:	af02      	add	r7, sp, #8
 800613a:	6078      	str	r0, [r7, #4]
 800613c:	687b      	ldr	r3, [r7, #4]
 800613e:	2200      	movs	r2, #0
 8006140:	f8c3 2088 	str.w	r2, [r3, #136]	; 0x88
 8006144:	f7fb f8f4 	bl	8001330 <HAL_GetTick>
 8006148:	60f8      	str	r0, [r7, #12]
 800614a:	687b      	ldr	r3, [r7, #4]
 800614c:	681b      	ldr	r3, [r3, #0]
 800614e:	681b      	ldr	r3, [r3, #0]
 8006150:	f003 0308 	and.w	r3, r3, #8
 8006154:	2b08      	cmp	r3, #8
 8006156:	d10e      	bne.n	8006176 <UART_CheckIdleState+0x42>
 8006158:	f06f 437e 	mvn.w	r3, #4261412864	; 0xfe000000
 800615c:	9300      	str	r3, [sp, #0]
 800615e:	68fb      	ldr	r3, [r7, #12]
 8006160:	2200      	movs	r2, #0
 8006162:	f44f 1100 	mov.w	r1, #2097152	; 0x200000
 8006166:	6878      	ldr	r0, [r7, #4]
 8006168:	f000 f82c 	bl	80061c4 <UART_WaitOnFlagUntilTimeout>
 800616c:	4603      	mov	r3, r0
 800616e:	2b00      	cmp	r3, #0
 8006170:	d001      	beq.n	8006176 <UART_CheckIdleState+0x42>
 8006172:	2303      	movs	r3, #3
 8006174:	e022      	b.n	80061bc <UART_CheckIdleState+0x88>
 8006176:	687b      	ldr	r3, [r7, #4]
 8006178:	681b      	ldr	r3, [r3, #0]
 800617a:	681b      	ldr	r3, [r3, #0]
 800617c:	f003 0304 	and.w	r3, r3, #4
 8006180:	2b04      	cmp	r3, #4
 8006182:	d10e      	bne.n	80061a2 <UART_CheckIdleState+0x6e>
 8006184:	f06f 437e 	mvn.w	r3, #4261412864	; 0xfe000000
 8006188:	9300      	str	r3, [sp, #0]
 800618a:	68fb      	ldr	r3, [r7, #12]
 800618c:	2200      	movs	r2, #0
 800618e:	f44f 0180 	mov.w	r1, #4194304	; 0x400000
 8006192:	6878      	ldr	r0, [r7, #4]
 8006194:	f000 f816 	bl	80061c4 <UART_WaitOnFlagUntilTimeout>
 8006198:	4603      	mov	r3, r0
 800619a:	2b00      	cmp	r3, #0
 800619c:	d001      	beq.n	80061a2 <UART_CheckIdleState+0x6e>
 800619e:	2303      	movs	r3, #3
 80061a0:	e00c      	b.n	80061bc <UART_CheckIdleState+0x88>
 80061a2:	687b      	ldr	r3, [r7, #4]
 80061a4:	2220      	movs	r2, #32
 80061a6:	f8c3 2080 	str.w	r2, [r3, #128]	; 0x80
 80061aa:	687b      	ldr	r3, [r7, #4]
 80061ac:	2220      	movs	r2, #32
 80061ae:	f8c3 2084 	str.w	r2, [r3, #132]	; 0x84
 80061b2:	687b      	ldr	r3, [r7, #4]
 80061b4:	2200      	movs	r2, #0
 80061b6:	f883 207c 	strb.w	r2, [r3, #124]	; 0x7c
 80061ba:	2300      	movs	r3, #0
 80061bc:	4618      	mov	r0, r3
 80061be:	3710      	adds	r7, #16
 80061c0:	46bd      	mov	sp, r7
 80061c2:	bd80      	pop	{r7, pc}

080061c4 <UART_WaitOnFlagUntilTimeout>:
 80061c4:	b580      	push	{r7, lr}
 80061c6:	b084      	sub	sp, #16
 80061c8:	af00      	add	r7, sp, #0
 80061ca:	60f8      	str	r0, [r7, #12]
 80061cc:	60b9      	str	r1, [r7, #8]
 80061ce:	603b      	str	r3, [r7, #0]
 80061d0:	4613      	mov	r3, r2
 80061d2:	71fb      	strb	r3, [r7, #7]
 80061d4:	e062      	b.n	800629c <UART_WaitOnFlagUntilTimeout+0xd8>
 80061d6:	69bb      	ldr	r3, [r7, #24]
 80061d8:	f1b3 3fff 	cmp.w	r3, #4294967295
 80061dc:	d05e      	beq.n	800629c <UART_WaitOnFlagUntilTimeout+0xd8>
 80061de:	f7fb f8a7 	bl	8001330 <HAL_GetTick>
 80061e2:	4602      	mov	r2, r0
 80061e4:	683b      	ldr	r3, [r7, #0]
 80061e6:	1ad3      	subs	r3, r2, r3
 80061e8:	69ba      	ldr	r2, [r7, #24]
 80061ea:	429a      	cmp	r2, r3
 80061ec:	d302      	bcc.n	80061f4 <UART_WaitOnFlagUntilTimeout+0x30>
 80061ee:	69bb      	ldr	r3, [r7, #24]
 80061f0:	2b00      	cmp	r3, #0
 80061f2:	d11d      	bne.n	8006230 <UART_WaitOnFlagUntilTimeout+0x6c>
 80061f4:	68fb      	ldr	r3, [r7, #12]
 80061f6:	681b      	ldr	r3, [r3, #0]
 80061f8:	681a      	ldr	r2, [r3, #0]
 80061fa:	68fb      	ldr	r3, [r7, #12]
 80061fc:	681b      	ldr	r3, [r3, #0]
 80061fe:	f422 72d0 	bic.w	r2, r2, #416	; 0x1a0
 8006202:	601a      	str	r2, [r3, #0]
 8006204:	68fb      	ldr	r3, [r7, #12]
 8006206:	681b      	ldr	r3, [r3, #0]
 8006208:	689a      	ldr	r2, [r3, #8]
 800620a:	68fb      	ldr	r3, [r7, #12]
 800620c:	681b      	ldr	r3, [r3, #0]
 800620e:	f022 0201 	bic.w	r2, r2, #1
 8006212:	609a      	str	r2, [r3, #8]
 8006214:	68fb      	ldr	r3, [r7, #12]
 8006216:	2220      	movs	r2, #32
 8006218:	f8c3 2080 	str.w	r2, [r3, #128]	; 0x80
 800621c:	68fb      	ldr	r3, [r7, #12]
 800621e:	2220      	movs	r2, #32
 8006220:	f8c3 2084 	str.w	r2, [r3, #132]	; 0x84
 8006224:	68fb      	ldr	r3, [r7, #12]
 8006226:	2200      	movs	r2, #0
 8006228:	f883 207c 	strb.w	r2, [r3, #124]	; 0x7c
 800622c:	2303      	movs	r3, #3
 800622e:	e045      	b.n	80062bc <UART_WaitOnFlagUntilTimeout+0xf8>
 8006230:	68fb      	ldr	r3, [r7, #12]
 8006232:	681b      	ldr	r3, [r3, #0]
 8006234:	681b      	ldr	r3, [r3, #0]
 8006236:	f003 0304 	and.w	r3, r3, #4
 800623a:	2b00      	cmp	r3, #0
 800623c:	d02e      	beq.n	800629c <UART_WaitOnFlagUntilTimeout+0xd8>
 800623e:	68fb      	ldr	r3, [r7, #12]
 8006240:	681b      	ldr	r3, [r3, #0]
 8006242:	69db      	ldr	r3, [r3, #28]
 8006244:	f403 6300 	and.w	r3, r3, #2048	; 0x800
 8006248:	f5b3 6f00 	cmp.w	r3, #2048	; 0x800
 800624c:	d126      	bne.n	800629c <UART_WaitOnFlagUntilTimeout+0xd8>
 800624e:	68fb      	ldr	r3, [r7, #12]
 8006250:	681b      	ldr	r3, [r3, #0]
 8006252:	f44f 6200 	mov.w	r2, #2048	; 0x800
 8006256:	621a      	str	r2, [r3, #32]
 8006258:	68fb      	ldr	r3, [r7, #12]
 800625a:	681b      	ldr	r3, [r3, #0]
 800625c:	681a      	ldr	r2, [r3, #0]
 800625e:	68fb      	ldr	r3, [r7, #12]
 8006260:	681b      	ldr	r3, [r3, #0]
 8006262:	f422 72d0 	bic.w	r2, r2, #416	; 0x1a0
 8006266:	601a      	str	r2, [r3, #0]
 8006268:	68fb      	ldr	r3, [r7, #12]
 800626a:	681b      	ldr	r3, [r3, #0]
 800626c:	689a      	ldr	r2, [r3, #8]
 800626e:	68fb      	ldr	r3, [r7, #12]
 8006270:	681b      	ldr	r3, [r3, #0]
 8006272:	f022 0201 	bic.w	r2, r2, #1
 8006276:	609a      	str	r2, [r3, #8]
 8006278:	68fb      	ldr	r3, [r7, #12]
 800627a:	2220      	movs	r2, #32
 800627c:	f8c3 2080 	str.w	r2, [r3, #128]	; 0x80
 8006280:	68fb      	ldr	r3, [r7, #12]
 8006282:	2220      	movs	r2, #32
 8006284:	f8c3 2084 	str.w	r2, [r3, #132]	; 0x84
 8006288:	68fb      	ldr	r3, [r7, #12]
 800628a:	2220      	movs	r2, #32
 800628c:	f8c3 2088 	str.w	r2, [r3, #136]	; 0x88
 8006290:	68fb      	ldr	r3, [r7, #12]
 8006292:	2200      	movs	r2, #0
 8006294:	f883 207c 	strb.w	r2, [r3, #124]	; 0x7c
 8006298:	2303      	movs	r3, #3
 800629a:	e00f      	b.n	80062bc <UART_WaitOnFlagUntilTimeout+0xf8>
 800629c:	68fb      	ldr	r3, [r7, #12]
 800629e:	681b      	ldr	r3, [r3, #0]
 80062a0:	69da      	ldr	r2, [r3, #28]
 80062a2:	68bb      	ldr	r3, [r7, #8]
 80062a4:	4013      	ands	r3, r2
 80062a6:	68ba      	ldr	r2, [r7, #8]
 80062a8:	429a      	cmp	r2, r3
 80062aa:	bf0c      	ite	eq
 80062ac:	2301      	moveq	r3, #1
 80062ae:	2300      	movne	r3, #0
 80062b0:	b2db      	uxtb	r3, r3
 80062b2:	461a      	mov	r2, r3
 80062b4:	79fb      	ldrb	r3, [r7, #7]
 80062b6:	429a      	cmp	r2, r3
 80062b8:	d08d      	beq.n	80061d6 <UART_WaitOnFlagUntilTimeout+0x12>
 80062ba:	2300      	movs	r3, #0
 80062bc:	4618      	mov	r0, r3
 80062be:	3710      	adds	r7, #16
 80062c0:	46bd      	mov	sp, r7
 80062c2:	bd80      	pop	{r7, pc}

080062c4 <HAL_UARTEx_DisableFifoMode>:
 80062c4:	b480      	push	{r7}
 80062c6:	b085      	sub	sp, #20
 80062c8:	af00      	add	r7, sp, #0
 80062ca:	6078      	str	r0, [r7, #4]
 80062cc:	687b      	ldr	r3, [r7, #4]
 80062ce:	f893 307c 	ldrb.w	r3, [r3, #124]	; 0x7c
 80062d2:	2b01      	cmp	r3, #1
 80062d4:	d101      	bne.n	80062da <HAL_UARTEx_DisableFifoMode+0x16>
 80062d6:	2302      	movs	r3, #2
 80062d8:	e027      	b.n	800632a <HAL_UARTEx_DisableFifoMode+0x66>
 80062da:	687b      	ldr	r3, [r7, #4]
 80062dc:	2201      	movs	r2, #1
 80062de:	f883 207c 	strb.w	r2, [r3, #124]	; 0x7c
 80062e2:	687b      	ldr	r3, [r7, #4]
 80062e4:	2224      	movs	r2, #36	; 0x24
 80062e6:	f8c3 2080 	str.w	r2, [r3, #128]	; 0x80
 80062ea:	687b      	ldr	r3, [r7, #4]
 80062ec:	681b      	ldr	r3, [r3, #0]
 80062ee:	681b      	ldr	r3, [r3, #0]
 80062f0:	60fb      	str	r3, [r7, #12]
 80062f2:	687b      	ldr	r3, [r7, #4]
 80062f4:	681b      	ldr	r3, [r3, #0]
 80062f6:	681a      	ldr	r2, [r3, #0]
 80062f8:	687b      	ldr	r3, [r7, #4]
 80062fa:	681b      	ldr	r3, [r3, #0]
 80062fc:	f022 0201 	bic.w	r2, r2, #1
 8006300:	601a      	str	r2, [r3, #0]
 8006302:	68fb      	ldr	r3, [r7, #12]
 8006304:	f023 5300 	bic.w	r3, r3, #536870912	; 0x20000000
 8006308:	60fb      	str	r3, [r7, #12]
 800630a:	687b      	ldr	r3, [r7, #4]
 800630c:	2200      	movs	r2, #0
 800630e:	665a      	str	r2, [r3, #100]	; 0x64
 8006310:	687b      	ldr	r3, [r7, #4]
 8006312:	681b      	ldr	r3, [r3, #0]
 8006314:	68fa      	ldr	r2, [r7, #12]
 8006316:	601a      	str	r2, [r3, #0]
 8006318:	687b      	ldr	r3, [r7, #4]
 800631a:	2220      	movs	r2, #32
 800631c:	f8c3 2080 	str.w	r2, [r3, #128]	; 0x80
 8006320:	687b      	ldr	r3, [r7, #4]
 8006322:	2200      	movs	r2, #0
 8006324:	f883 207c 	strb.w	r2, [r3, #124]	; 0x7c
 8006328:	2300      	movs	r3, #0
 800632a:	4618      	mov	r0, r3
 800632c:	3714      	adds	r7, #20
 800632e:	46bd      	mov	sp, r7
 8006330:	f85d 7b04 	ldr.w	r7, [sp], #4
 8006334:	4770      	bx	lr

08006336 <HAL_UARTEx_SetTxFifoThreshold>:
 8006336:	b580      	push	{r7, lr}
 8006338:	b084      	sub	sp, #16
 800633a:	af00      	add	r7, sp, #0
 800633c:	6078      	str	r0, [r7, #4]
 800633e:	6039      	str	r1, [r7, #0]
 8006340:	687b      	ldr	r3, [r7, #4]
 8006342:	f893 307c 	ldrb.w	r3, [r3, #124]	; 0x7c
 8006346:	2b01      	cmp	r3, #1
 8006348:	d101      	bne.n	800634e <HAL_UARTEx_SetTxFifoThreshold+0x18>
 800634a:	2302      	movs	r3, #2
 800634c:	e02d      	b.n	80063aa <HAL_UARTEx_SetTxFifoThreshold+0x74>
 800634e:	687b      	ldr	r3, [r7, #4]
 8006350:	2201      	movs	r2, #1
 8006352:	f883 207c 	strb.w	r2, [r3, #124]	; 0x7c
 8006356:	687b      	ldr	r3, [r7, #4]
 8006358:	2224      	movs	r2, #36	; 0x24
 800635a:	f8c3 2080 	str.w	r2, [r3, #128]	; 0x80
 800635e:	687b      	ldr	r3, [r7, #4]
 8006360:	681b      	ldr	r3, [r3, #0]
 8006362:	681b      	ldr	r3, [r3, #0]
 8006364:	60fb      	str	r3, [r7, #12]
 8006366:	687b      	ldr	r3, [r7, #4]
 8006368:	681b      	ldr	r3, [r3, #0]
 800636a:	681a      	ldr	r2, [r3, #0]
 800636c:	687b      	ldr	r3, [r7, #4]
 800636e:	681b      	ldr	r3, [r3, #0]
 8006370:	f022 0201 	bic.w	r2, r2, #1
 8006374:	601a      	str	r2, [r3, #0]
 8006376:	687b      	ldr	r3, [r7, #4]
 8006378:	681b      	ldr	r3, [r3, #0]
 800637a:	689b      	ldr	r3, [r3, #8]
 800637c:	f023 4160 	bic.w	r1, r3, #3758096384	; 0xe0000000
 8006380:	687b      	ldr	r3, [r7, #4]
 8006382:	681b      	ldr	r3, [r3, #0]
 8006384:	683a      	ldr	r2, [r7, #0]
 8006386:	430a      	orrs	r2, r1
 8006388:	609a      	str	r2, [r3, #8]
 800638a:	6878      	ldr	r0, [r7, #4]
 800638c:	f000 f850 	bl	8006430 <UARTEx_SetNbDataToProcess>
 8006390:	687b      	ldr	r3, [r7, #4]
 8006392:	681b      	ldr	r3, [r3, #0]
 8006394:	68fa      	ldr	r2, [r7, #12]
 8006396:	601a      	str	r2, [r3, #0]
 8006398:	687b      	ldr	r3, [r7, #4]
 800639a:	2220      	movs	r2, #32
 800639c:	f8c3 2080 	str.w	r2, [r3, #128]	; 0x80
 80063a0:	687b      	ldr	r3, [r7, #4]
 80063a2:	2200      	movs	r2, #0
 80063a4:	f883 207c 	strb.w	r2, [r3, #124]	; 0x7c
 80063a8:	2300      	movs	r3, #0
 80063aa:	4618      	mov	r0, r3
 80063ac:	3710      	adds	r7, #16
 80063ae:	46bd      	mov	sp, r7
 80063b0:	bd80      	pop	{r7, pc}

080063b2 <HAL_UARTEx_SetRxFifoThreshold>:
 80063b2:	b580      	push	{r7, lr}
 80063b4:	b084      	sub	sp, #16
 80063b6:	af00      	add	r7, sp, #0
 80063b8:	6078      	str	r0, [r7, #4]
 80063ba:	6039      	str	r1, [r7, #0]
 80063bc:	687b      	ldr	r3, [r7, #4]
 80063be:	f893 307c 	ldrb.w	r3, [r3, #124]	; 0x7c
 80063c2:	2b01      	cmp	r3, #1
 80063c4:	d101      	bne.n	80063ca <HAL_UARTEx_SetRxFifoThreshold+0x18>
 80063c6:	2302      	movs	r3, #2
 80063c8:	e02d      	b.n	8006426 <HAL_UARTEx_SetRxFifoThreshold+0x74>
 80063ca:	687b      	ldr	r3, [r7, #4]
 80063cc:	2201      	movs	r2, #1
 80063ce:	f883 207c 	strb.w	r2, [r3, #124]	; 0x7c
 80063d2:	687b      	ldr	r3, [r7, #4]
 80063d4:	2224      	movs	r2, #36	; 0x24
 80063d6:	f8c3 2080 	str.w	r2, [r3, #128]	; 0x80
 80063da:	687b      	ldr	r3, [r7, #4]
 80063dc:	681b      	ldr	r3, [r3, #0]
 80063de:	681b      	ldr	r3, [r3, #0]
 80063e0:	60fb      	str	r3, [r7, #12]
 80063e2:	687b      	ldr	r3, [r7, #4]
 80063e4:	681b      	ldr	r3, [r3, #0]
 80063e6:	681a      	ldr	r2, [r3, #0]
 80063e8:	687b      	ldr	r3, [r7, #4]
 80063ea:	681b      	ldr	r3, [r3, #0]
 80063ec:	f022 0201 	bic.w	r2, r2, #1
 80063f0:	601a      	str	r2, [r3, #0]
 80063f2:	687b      	ldr	r3, [r7, #4]
 80063f4:	681b      	ldr	r3, [r3, #0]
 80063f6:	689b      	ldr	r3, [r3, #8]
 80063f8:	f023 6160 	bic.w	r1, r3, #234881024	; 0xe000000
 80063fc:	687b      	ldr	r3, [r7, #4]
 80063fe:	681b      	ldr	r3, [r3, #0]
 8006400:	683a      	ldr	r2, [r7, #0]
 8006402:	430a      	orrs	r2, r1
 8006404:	609a      	str	r2, [r3, #8]
 8006406:	6878      	ldr	r0, [r7, #4]
 8006408:	f000 f812 	bl	8006430 <UARTEx_SetNbDataToProcess>
 800640c:	687b      	ldr	r3, [r7, #4]
 800640e:	681b      	ldr	r3, [r3, #0]
 8006410:	68fa      	ldr	r2, [r7, #12]
 8006412:	601a      	str	r2, [r3, #0]
 8006414:	687b      	ldr	r3, [r7, #4]
 8006416:	2220      	movs	r2, #32
 8006418:	f8c3 2080 	str.w	r2, [r3, #128]	; 0x80
 800641c:	687b      	ldr	r3, [r7, #4]
 800641e:	2200      	movs	r2, #0
 8006420:	f883 207c 	strb.w	r2, [r3, #124]	; 0x7c
 8006424:	2300      	movs	r3, #0
 8006426:	4618      	mov	r0, r3
 8006428:	3710      	adds	r7, #16
 800642a:	46bd      	mov	sp, r7
 800642c:	bd80      	pop	{r7, pc}
	...

08006430 <UARTEx_SetNbDataToProcess>:
 8006430:	b480      	push	{r7}
 8006432:	b089      	sub	sp, #36	; 0x24
 8006434:	af00      	add	r7, sp, #0
 8006436:	6078      	str	r0, [r7, #4]
 8006438:	4a2f      	ldr	r2, [pc, #188]	; (80064f8 <UARTEx_SetNbDataToProcess+0xc8>)
 800643a:	f107 0314 	add.w	r3, r7, #20
 800643e:	e892 0003 	ldmia.w	r2, {r0, r1}
 8006442:	e883 0003 	stmia.w	r3, {r0, r1}
 8006446:	4a2d      	ldr	r2, [pc, #180]	; (80064fc <UARTEx_SetNbDataToProcess+0xcc>)
 8006448:	f107 030c 	add.w	r3, r7, #12
 800644c:	e892 0003 	ldmia.w	r2, {r0, r1}
 8006450:	e883 0003 	stmia.w	r3, {r0, r1}
 8006454:	687b      	ldr	r3, [r7, #4]
 8006456:	6e5b      	ldr	r3, [r3, #100]	; 0x64
 8006458:	2b00      	cmp	r3, #0
 800645a:	d108      	bne.n	800646e <UARTEx_SetNbDataToProcess+0x3e>
 800645c:	687b      	ldr	r3, [r7, #4]
 800645e:	2201      	movs	r2, #1
 8006460:	f8a3 206a 	strh.w	r2, [r3, #106]	; 0x6a
 8006464:	687b      	ldr	r3, [r7, #4]
 8006466:	2201      	movs	r2, #1
 8006468:	f8a3 2068 	strh.w	r2, [r3, #104]	; 0x68
 800646c:	e03d      	b.n	80064ea <UARTEx_SetNbDataToProcess+0xba>
 800646e:	2310      	movs	r3, #16
 8006470:	77fb      	strb	r3, [r7, #31]
 8006472:	2310      	movs	r3, #16
 8006474:	77bb      	strb	r3, [r7, #30]
 8006476:	687b      	ldr	r3, [r7, #4]
 8006478:	681b      	ldr	r3, [r3, #0]
 800647a:	689b      	ldr	r3, [r3, #8]
 800647c:	0e5b      	lsrs	r3, r3, #25
 800647e:	b2db      	uxtb	r3, r3
 8006480:	f003 0307 	and.w	r3, r3, #7
 8006484:	777b      	strb	r3, [r7, #29]
 8006486:	687b      	ldr	r3, [r7, #4]
 8006488:	681b      	ldr	r3, [r3, #0]
 800648a:	689b      	ldr	r3, [r3, #8]
 800648c:	0f5b      	lsrs	r3, r3, #29
 800648e:	b2db      	uxtb	r3, r3
 8006490:	f003 0307 	and.w	r3, r3, #7
 8006494:	773b      	strb	r3, [r7, #28]
 8006496:	7fbb      	ldrb	r3, [r7, #30]
 8006498:	7f3a      	ldrb	r2, [r7, #28]
 800649a:	f107 0120 	add.w	r1, r7, #32
 800649e:	440a      	add	r2, r1
 80064a0:	f812 2c0c 	ldrb.w	r2, [r2, #-12]
 80064a4:	fb02 f303 	mul.w	r3, r2, r3
 80064a8:	7f3a      	ldrb	r2, [r7, #28]
 80064aa:	f107 0120 	add.w	r1, r7, #32
 80064ae:	440a      	add	r2, r1
 80064b0:	f812 2c14 	ldrb.w	r2, [r2, #-20]
 80064b4:	fb93 f3f2 	sdiv	r3, r3, r2
 80064b8:	b29a      	uxth	r2, r3
 80064ba:	687b      	ldr	r3, [r7, #4]
 80064bc:	f8a3 206a 	strh.w	r2, [r3, #106]	; 0x6a
 80064c0:	7ffb      	ldrb	r3, [r7, #31]
 80064c2:	7f7a      	ldrb	r2, [r7, #29]
 80064c4:	f107 0120 	add.w	r1, r7, #32
 80064c8:	440a      	add	r2, r1
 80064ca:	f812 2c0c 	ldrb.w	r2, [r2, #-12]
 80064ce:	fb02 f303 	mul.w	r3, r2, r3
 80064d2:	7f7a      	ldrb	r2, [r7, #29]
 80064d4:	f107 0120 	add.w	r1, r7, #32
 80064d8:	440a      	add	r2, r1
 80064da:	f812 2c14 	ldrb.w	r2, [r2, #-20]
 80064de:	fb93 f3f2 	sdiv	r3, r3, r2
 80064e2:	b29a      	uxth	r2, r3
 80064e4:	687b      	ldr	r3, [r7, #4]
 80064e6:	f8a3 2068 	strh.w	r2, [r3, #104]	; 0x68
 80064ea:	bf00      	nop
 80064ec:	3724      	adds	r7, #36	; 0x24
 80064ee:	46bd      	mov	sp, r7
 80064f0:	f85d 7b04 	ldr.w	r7, [sp], #4
 80064f4:	4770      	bx	lr
 80064f6:	bf00      	nop
 80064f8:	080075c8 	.word	0x080075c8
 80064fc:	080075d0 	.word	0x080075d0

08006500 <__errno>:
 8006500:	4b01      	ldr	r3, [pc, #4]	; (8006508 <__errno+0x8>)
 8006502:	6818      	ldr	r0, [r3, #0]
 8006504:	4770      	bx	lr
 8006506:	bf00      	nop
 8006508:	24000010 	.word	0x24000010

0800650c <__libc_init_array>:
 800650c:	b570      	push	{r4, r5, r6, lr}
 800650e:	4e0d      	ldr	r6, [pc, #52]	; (8006544 <__libc_init_array+0x38>)
 8006510:	4c0d      	ldr	r4, [pc, #52]	; (8006548 <__libc_init_array+0x3c>)
 8006512:	1ba4      	subs	r4, r4, r6
 8006514:	10a4      	asrs	r4, r4, #2
 8006516:	2500      	movs	r5, #0
 8006518:	42a5      	cmp	r5, r4
 800651a:	d109      	bne.n	8006530 <__libc_init_array+0x24>
 800651c:	4e0b      	ldr	r6, [pc, #44]	; (800654c <__libc_init_array+0x40>)
 800651e:	4c0c      	ldr	r4, [pc, #48]	; (8006550 <__libc_init_array+0x44>)
 8006520:	f001 f810 	bl	8007544 <_init>
 8006524:	1ba4      	subs	r4, r4, r6
 8006526:	10a4      	asrs	r4, r4, #2
 8006528:	2500      	movs	r5, #0
 800652a:	42a5      	cmp	r5, r4
 800652c:	d105      	bne.n	800653a <__libc_init_array+0x2e>
 800652e:	bd70      	pop	{r4, r5, r6, pc}
 8006530:	f856 3025 	ldr.w	r3, [r6, r5, lsl #2]
 8006534:	4798      	blx	r3
 8006536:	3501      	adds	r5, #1
 8006538:	e7ee      	b.n	8006518 <__libc_init_array+0xc>
 800653a:	f856 3025 	ldr.w	r3, [r6, r5, lsl #2]
 800653e:	4798      	blx	r3
 8006540:	3501      	adds	r5, #1
 8006542:	e7f2      	b.n	800652a <__libc_init_array+0x1e>
 8006544:	080076b0 	.word	0x080076b0
 8006548:	080076b0 	.word	0x080076b0
 800654c:	080076b0 	.word	0x080076b0
 8006550:	080076b4 	.word	0x080076b4

08006554 <memcpy>:
 8006554:	b510      	push	{r4, lr}
 8006556:	1e43      	subs	r3, r0, #1
 8006558:	440a      	add	r2, r1
 800655a:	4291      	cmp	r1, r2
 800655c:	d100      	bne.n	8006560 <memcpy+0xc>
 800655e:	bd10      	pop	{r4, pc}
 8006560:	f811 4b01 	ldrb.w	r4, [r1], #1
 8006564:	f803 4f01 	strb.w	r4, [r3, #1]!
 8006568:	e7f7      	b.n	800655a <memcpy+0x6>

0800656a <memset>:
 800656a:	4402      	add	r2, r0
 800656c:	4603      	mov	r3, r0
 800656e:	4293      	cmp	r3, r2
 8006570:	d100      	bne.n	8006574 <memset+0xa>
 8006572:	4770      	bx	lr
 8006574:	f803 1b01 	strb.w	r1, [r3], #1
 8006578:	e7f9      	b.n	800656e <memset+0x4>
	...

0800657c <iprintf>:
 800657c:	b40f      	push	{r0, r1, r2, r3}
 800657e:	4b0a      	ldr	r3, [pc, #40]	; (80065a8 <iprintf+0x2c>)
 8006580:	b513      	push	{r0, r1, r4, lr}
 8006582:	681c      	ldr	r4, [r3, #0]
 8006584:	b124      	cbz	r4, 8006590 <iprintf+0x14>
 8006586:	69a3      	ldr	r3, [r4, #24]
 8006588:	b913      	cbnz	r3, 8006590 <iprintf+0x14>
 800658a:	4620      	mov	r0, r4
 800658c:	f000 f9c0 	bl	8006910 <__sinit>
 8006590:	ab05      	add	r3, sp, #20
 8006592:	9a04      	ldr	r2, [sp, #16]
 8006594:	68a1      	ldr	r1, [r4, #8]
 8006596:	9301      	str	r3, [sp, #4]
 8006598:	4620      	mov	r0, r4
 800659a:	f000 fb81 	bl	8006ca0 <_vfiprintf_r>
 800659e:	b002      	add	sp, #8
 80065a0:	e8bd 4010 	ldmia.w	sp!, {r4, lr}
 80065a4:	b004      	add	sp, #16
 80065a6:	4770      	bx	lr
 80065a8:	24000010 	.word	0x24000010

080065ac <putchar>:
 80065ac:	b538      	push	{r3, r4, r5, lr}
 80065ae:	4b08      	ldr	r3, [pc, #32]	; (80065d0 <putchar+0x24>)
 80065b0:	681c      	ldr	r4, [r3, #0]
 80065b2:	4605      	mov	r5, r0
 80065b4:	b124      	cbz	r4, 80065c0 <putchar+0x14>
 80065b6:	69a3      	ldr	r3, [r4, #24]
 80065b8:	b913      	cbnz	r3, 80065c0 <putchar+0x14>
 80065ba:	4620      	mov	r0, r4
 80065bc:	f000 f9a8 	bl	8006910 <__sinit>
 80065c0:	68a2      	ldr	r2, [r4, #8]
 80065c2:	4629      	mov	r1, r5
 80065c4:	4620      	mov	r0, r4
 80065c6:	e8bd 4038 	ldmia.w	sp!, {r3, r4, r5, lr}
 80065ca:	f000 be07 	b.w	80071dc <_putc_r>
 80065ce:	bf00      	nop
 80065d0:	24000010 	.word	0x24000010

080065d4 <setvbuf>:
 80065d4:	e92d 43f7 	stmdb	sp!, {r0, r1, r2, r4, r5, r6, r7, r8, r9, lr}
 80065d8:	461d      	mov	r5, r3
 80065da:	4b51      	ldr	r3, [pc, #324]	; (8006720 <setvbuf+0x14c>)
 80065dc:	681e      	ldr	r6, [r3, #0]
 80065de:	4604      	mov	r4, r0
 80065e0:	460f      	mov	r7, r1
 80065e2:	4690      	mov	r8, r2
 80065e4:	b126      	cbz	r6, 80065f0 <setvbuf+0x1c>
 80065e6:	69b3      	ldr	r3, [r6, #24]
 80065e8:	b913      	cbnz	r3, 80065f0 <setvbuf+0x1c>
 80065ea:	4630      	mov	r0, r6
 80065ec:	f000 f990 	bl	8006910 <__sinit>
 80065f0:	4b4c      	ldr	r3, [pc, #304]	; (8006724 <setvbuf+0x150>)
 80065f2:	429c      	cmp	r4, r3
 80065f4:	d152      	bne.n	800669c <setvbuf+0xc8>
 80065f6:	6874      	ldr	r4, [r6, #4]
 80065f8:	f1b8 0f02 	cmp.w	r8, #2
 80065fc:	d006      	beq.n	800660c <setvbuf+0x38>
 80065fe:	f1b8 0f01 	cmp.w	r8, #1
 8006602:	f200 8089 	bhi.w	8006718 <setvbuf+0x144>
 8006606:	2d00      	cmp	r5, #0
 8006608:	f2c0 8086 	blt.w	8006718 <setvbuf+0x144>
 800660c:	4621      	mov	r1, r4
 800660e:	4630      	mov	r0, r6
 8006610:	f000 f914 	bl	800683c <_fflush_r>
 8006614:	6b61      	ldr	r1, [r4, #52]	; 0x34
 8006616:	b141      	cbz	r1, 800662a <setvbuf+0x56>
 8006618:	f104 0344 	add.w	r3, r4, #68	; 0x44
 800661c:	4299      	cmp	r1, r3
 800661e:	d002      	beq.n	8006626 <setvbuf+0x52>
 8006620:	4630      	mov	r0, r6
 8006622:	f000 fa6b 	bl	8006afc <_free_r>
 8006626:	2300      	movs	r3, #0
 8006628:	6363      	str	r3, [r4, #52]	; 0x34
 800662a:	2300      	movs	r3, #0
 800662c:	61a3      	str	r3, [r4, #24]
 800662e:	6063      	str	r3, [r4, #4]
 8006630:	89a3      	ldrh	r3, [r4, #12]
 8006632:	061b      	lsls	r3, r3, #24
 8006634:	d503      	bpl.n	800663e <setvbuf+0x6a>
 8006636:	6921      	ldr	r1, [r4, #16]
 8006638:	4630      	mov	r0, r6
 800663a:	f000 fa5f 	bl	8006afc <_free_r>
 800663e:	89a3      	ldrh	r3, [r4, #12]
 8006640:	f423 634a 	bic.w	r3, r3, #3232	; 0xca0
 8006644:	f023 0303 	bic.w	r3, r3, #3
 8006648:	f1b8 0f02 	cmp.w	r8, #2
 800664c:	81a3      	strh	r3, [r4, #12]
 800664e:	d05d      	beq.n	800670c <setvbuf+0x138>
 8006650:	ab01      	add	r3, sp, #4
 8006652:	466a      	mov	r2, sp
 8006654:	4621      	mov	r1, r4
 8006656:	4630      	mov	r0, r6
 8006658:	f000 f9e4 	bl	8006a24 <__swhatbuf_r>
 800665c:	89a3      	ldrh	r3, [r4, #12]
 800665e:	4318      	orrs	r0, r3
 8006660:	81a0      	strh	r0, [r4, #12]
 8006662:	bb2d      	cbnz	r5, 80066b0 <setvbuf+0xdc>
 8006664:	9d00      	ldr	r5, [sp, #0]
 8006666:	4628      	mov	r0, r5
 8006668:	f000 fa40 	bl	8006aec <malloc>
 800666c:	4607      	mov	r7, r0
 800666e:	2800      	cmp	r0, #0
 8006670:	d14e      	bne.n	8006710 <setvbuf+0x13c>
 8006672:	f8dd 9000 	ldr.w	r9, [sp]
 8006676:	45a9      	cmp	r9, r5
 8006678:	d13c      	bne.n	80066f4 <setvbuf+0x120>
 800667a:	f04f 30ff 	mov.w	r0, #4294967295
 800667e:	89a3      	ldrh	r3, [r4, #12]
 8006680:	f043 0302 	orr.w	r3, r3, #2
 8006684:	81a3      	strh	r3, [r4, #12]
 8006686:	2300      	movs	r3, #0
 8006688:	60a3      	str	r3, [r4, #8]
 800668a:	f104 0347 	add.w	r3, r4, #71	; 0x47
 800668e:	6023      	str	r3, [r4, #0]
 8006690:	6123      	str	r3, [r4, #16]
 8006692:	2301      	movs	r3, #1
 8006694:	6163      	str	r3, [r4, #20]
 8006696:	b003      	add	sp, #12
 8006698:	e8bd 83f0 	ldmia.w	sp!, {r4, r5, r6, r7, r8, r9, pc}
 800669c:	4b22      	ldr	r3, [pc, #136]	; (8006728 <setvbuf+0x154>)
 800669e:	429c      	cmp	r4, r3
 80066a0:	d101      	bne.n	80066a6 <setvbuf+0xd2>
 80066a2:	68b4      	ldr	r4, [r6, #8]
 80066a4:	e7a8      	b.n	80065f8 <setvbuf+0x24>
 80066a6:	4b21      	ldr	r3, [pc, #132]	; (800672c <setvbuf+0x158>)
 80066a8:	429c      	cmp	r4, r3
 80066aa:	bf08      	it	eq
 80066ac:	68f4      	ldreq	r4, [r6, #12]
 80066ae:	e7a3      	b.n	80065f8 <setvbuf+0x24>
 80066b0:	2f00      	cmp	r7, #0
 80066b2:	d0d8      	beq.n	8006666 <setvbuf+0x92>
 80066b4:	69b3      	ldr	r3, [r6, #24]
 80066b6:	b913      	cbnz	r3, 80066be <setvbuf+0xea>
 80066b8:	4630      	mov	r0, r6
 80066ba:	f000 f929 	bl	8006910 <__sinit>
 80066be:	f1b8 0f01 	cmp.w	r8, #1
 80066c2:	bf08      	it	eq
 80066c4:	89a3      	ldrheq	r3, [r4, #12]
 80066c6:	6027      	str	r7, [r4, #0]
 80066c8:	bf04      	itt	eq
 80066ca:	f043 0301 	orreq.w	r3, r3, #1
 80066ce:	81a3      	strheq	r3, [r4, #12]
 80066d0:	89a3      	ldrh	r3, [r4, #12]
 80066d2:	f013 0008 	ands.w	r0, r3, #8
 80066d6:	e9c4 7504 	strd	r7, r5, [r4, #16]
 80066da:	d01b      	beq.n	8006714 <setvbuf+0x140>
 80066dc:	f013 0001 	ands.w	r0, r3, #1
 80066e0:	bf18      	it	ne
 80066e2:	426d      	negne	r5, r5
 80066e4:	f04f 0300 	mov.w	r3, #0
 80066e8:	bf1d      	ittte	ne
 80066ea:	60a3      	strne	r3, [r4, #8]
 80066ec:	61a5      	strne	r5, [r4, #24]
 80066ee:	4618      	movne	r0, r3
 80066f0:	60a5      	streq	r5, [r4, #8]
 80066f2:	e7d0      	b.n	8006696 <setvbuf+0xc2>
 80066f4:	4648      	mov	r0, r9
 80066f6:	f000 f9f9 	bl	8006aec <malloc>
 80066fa:	4607      	mov	r7, r0
 80066fc:	2800      	cmp	r0, #0
 80066fe:	d0bc      	beq.n	800667a <setvbuf+0xa6>
 8006700:	89a3      	ldrh	r3, [r4, #12]
 8006702:	f043 0380 	orr.w	r3, r3, #128	; 0x80
 8006706:	81a3      	strh	r3, [r4, #12]
 8006708:	464d      	mov	r5, r9
 800670a:	e7d3      	b.n	80066b4 <setvbuf+0xe0>
 800670c:	2000      	movs	r0, #0
 800670e:	e7b6      	b.n	800667e <setvbuf+0xaa>
 8006710:	46a9      	mov	r9, r5
 8006712:	e7f5      	b.n	8006700 <setvbuf+0x12c>
 8006714:	60a0      	str	r0, [r4, #8]
 8006716:	e7be      	b.n	8006696 <setvbuf+0xc2>
 8006718:	f04f 30ff 	mov.w	r0, #4294967295
 800671c:	e7bb      	b.n	8006696 <setvbuf+0xc2>
 800671e:	bf00      	nop
 8006720:	24000010 	.word	0x24000010
 8006724:	08007634 	.word	0x08007634
 8006728:	08007654 	.word	0x08007654
 800672c:	08007614 	.word	0x08007614

08006730 <__sflush_r>:
 8006730:	898a      	ldrh	r2, [r1, #12]
 8006732:	e92d 41f0 	stmdb	sp!, {r4, r5, r6, r7, r8, lr}
 8006736:	4605      	mov	r5, r0
 8006738:	0710      	lsls	r0, r2, #28
 800673a:	460c      	mov	r4, r1
 800673c:	d458      	bmi.n	80067f0 <__sflush_r+0xc0>
 800673e:	684b      	ldr	r3, [r1, #4]
 8006740:	2b00      	cmp	r3, #0
 8006742:	dc05      	bgt.n	8006750 <__sflush_r+0x20>
 8006744:	6c0b      	ldr	r3, [r1, #64]	; 0x40
 8006746:	2b00      	cmp	r3, #0
 8006748:	dc02      	bgt.n	8006750 <__sflush_r+0x20>
 800674a:	2000      	movs	r0, #0
 800674c:	e8bd 81f0 	ldmia.w	sp!, {r4, r5, r6, r7, r8, pc}
 8006750:	6ae6      	ldr	r6, [r4, #44]	; 0x2c
 8006752:	2e00      	cmp	r6, #0
 8006754:	d0f9      	beq.n	800674a <__sflush_r+0x1a>
 8006756:	2300      	movs	r3, #0
 8006758:	f412 5280 	ands.w	r2, r2, #4096	; 0x1000
 800675c:	682f      	ldr	r7, [r5, #0]
 800675e:	6a21      	ldr	r1, [r4, #32]
 8006760:	602b      	str	r3, [r5, #0]
 8006762:	d032      	beq.n	80067ca <__sflush_r+0x9a>
 8006764:	6d60      	ldr	r0, [r4, #84]	; 0x54
 8006766:	89a3      	ldrh	r3, [r4, #12]
 8006768:	075a      	lsls	r2, r3, #29
 800676a:	d505      	bpl.n	8006778 <__sflush_r+0x48>
 800676c:	6863      	ldr	r3, [r4, #4]
 800676e:	1ac0      	subs	r0, r0, r3
 8006770:	6b63      	ldr	r3, [r4, #52]	; 0x34
 8006772:	b10b      	cbz	r3, 8006778 <__sflush_r+0x48>
 8006774:	6c23      	ldr	r3, [r4, #64]	; 0x40
 8006776:	1ac0      	subs	r0, r0, r3
 8006778:	2300      	movs	r3, #0
 800677a:	4602      	mov	r2, r0
 800677c:	6ae6      	ldr	r6, [r4, #44]	; 0x2c
 800677e:	6a21      	ldr	r1, [r4, #32]
 8006780:	4628      	mov	r0, r5
 8006782:	47b0      	blx	r6
 8006784:	1c43      	adds	r3, r0, #1
 8006786:	89a3      	ldrh	r3, [r4, #12]
 8006788:	d106      	bne.n	8006798 <__sflush_r+0x68>
 800678a:	6829      	ldr	r1, [r5, #0]
 800678c:	291d      	cmp	r1, #29
 800678e:	d848      	bhi.n	8006822 <__sflush_r+0xf2>
 8006790:	4a29      	ldr	r2, [pc, #164]	; (8006838 <__sflush_r+0x108>)
 8006792:	40ca      	lsrs	r2, r1
 8006794:	07d6      	lsls	r6, r2, #31
 8006796:	d544      	bpl.n	8006822 <__sflush_r+0xf2>
 8006798:	2200      	movs	r2, #0
 800679a:	6062      	str	r2, [r4, #4]
 800679c:	04d9      	lsls	r1, r3, #19
 800679e:	6922      	ldr	r2, [r4, #16]
 80067a0:	6022      	str	r2, [r4, #0]
 80067a2:	d504      	bpl.n	80067ae <__sflush_r+0x7e>
 80067a4:	1c42      	adds	r2, r0, #1
 80067a6:	d101      	bne.n	80067ac <__sflush_r+0x7c>
 80067a8:	682b      	ldr	r3, [r5, #0]
 80067aa:	b903      	cbnz	r3, 80067ae <__sflush_r+0x7e>
 80067ac:	6560      	str	r0, [r4, #84]	; 0x54
 80067ae:	6b61      	ldr	r1, [r4, #52]	; 0x34
 80067b0:	602f      	str	r7, [r5, #0]
 80067b2:	2900      	cmp	r1, #0
 80067b4:	d0c9      	beq.n	800674a <__sflush_r+0x1a>
 80067b6:	f104 0344 	add.w	r3, r4, #68	; 0x44
 80067ba:	4299      	cmp	r1, r3
 80067bc:	d002      	beq.n	80067c4 <__sflush_r+0x94>
 80067be:	4628      	mov	r0, r5
 80067c0:	f000 f99c 	bl	8006afc <_free_r>
 80067c4:	2000      	movs	r0, #0
 80067c6:	6360      	str	r0, [r4, #52]	; 0x34
 80067c8:	e7c0      	b.n	800674c <__sflush_r+0x1c>
 80067ca:	2301      	movs	r3, #1
 80067cc:	4628      	mov	r0, r5
 80067ce:	47b0      	blx	r6
 80067d0:	1c41      	adds	r1, r0, #1
 80067d2:	d1c8      	bne.n	8006766 <__sflush_r+0x36>
 80067d4:	682b      	ldr	r3, [r5, #0]
 80067d6:	2b00      	cmp	r3, #0
 80067d8:	d0c5      	beq.n	8006766 <__sflush_r+0x36>
 80067da:	2b1d      	cmp	r3, #29
 80067dc:	d001      	beq.n	80067e2 <__sflush_r+0xb2>
 80067de:	2b16      	cmp	r3, #22
 80067e0:	d101      	bne.n	80067e6 <__sflush_r+0xb6>
 80067e2:	602f      	str	r7, [r5, #0]
 80067e4:	e7b1      	b.n	800674a <__sflush_r+0x1a>
 80067e6:	89a3      	ldrh	r3, [r4, #12]
 80067e8:	f043 0340 	orr.w	r3, r3, #64	; 0x40
 80067ec:	81a3      	strh	r3, [r4, #12]
 80067ee:	e7ad      	b.n	800674c <__sflush_r+0x1c>
 80067f0:	690f      	ldr	r7, [r1, #16]
 80067f2:	2f00      	cmp	r7, #0
 80067f4:	d0a9      	beq.n	800674a <__sflush_r+0x1a>
 80067f6:	0793      	lsls	r3, r2, #30
 80067f8:	680e      	ldr	r6, [r1, #0]
 80067fa:	bf08      	it	eq
 80067fc:	694b      	ldreq	r3, [r1, #20]
 80067fe:	600f      	str	r7, [r1, #0]
 8006800:	bf18      	it	ne
 8006802:	2300      	movne	r3, #0
 8006804:	eba6 0807 	sub.w	r8, r6, r7
 8006808:	608b      	str	r3, [r1, #8]
 800680a:	f1b8 0f00 	cmp.w	r8, #0
 800680e:	dd9c      	ble.n	800674a <__sflush_r+0x1a>
 8006810:	4643      	mov	r3, r8
 8006812:	463a      	mov	r2, r7
 8006814:	6a21      	ldr	r1, [r4, #32]
 8006816:	6aa6      	ldr	r6, [r4, #40]	; 0x28
 8006818:	4628      	mov	r0, r5
 800681a:	47b0      	blx	r6
 800681c:	2800      	cmp	r0, #0
 800681e:	dc06      	bgt.n	800682e <__sflush_r+0xfe>
 8006820:	89a3      	ldrh	r3, [r4, #12]
 8006822:	f043 0340 	orr.w	r3, r3, #64	; 0x40
 8006826:	81a3      	strh	r3, [r4, #12]
 8006828:	f04f 30ff 	mov.w	r0, #4294967295
 800682c:	e78e      	b.n	800674c <__sflush_r+0x1c>
 800682e:	4407      	add	r7, r0
 8006830:	eba8 0800 	sub.w	r8, r8, r0
 8006834:	e7e9      	b.n	800680a <__sflush_r+0xda>
 8006836:	bf00      	nop
 8006838:	20400001 	.word	0x20400001

0800683c <_fflush_r>:
 800683c:	b538      	push	{r3, r4, r5, lr}
 800683e:	690b      	ldr	r3, [r1, #16]
 8006840:	4605      	mov	r5, r0
 8006842:	460c      	mov	r4, r1
 8006844:	b1db      	cbz	r3, 800687e <_fflush_r+0x42>
 8006846:	b118      	cbz	r0, 8006850 <_fflush_r+0x14>
 8006848:	6983      	ldr	r3, [r0, #24]
 800684a:	b90b      	cbnz	r3, 8006850 <_fflush_r+0x14>
 800684c:	f000 f860 	bl	8006910 <__sinit>
 8006850:	4b0c      	ldr	r3, [pc, #48]	; (8006884 <_fflush_r+0x48>)
 8006852:	429c      	cmp	r4, r3
 8006854:	d109      	bne.n	800686a <_fflush_r+0x2e>
 8006856:	686c      	ldr	r4, [r5, #4]
 8006858:	f9b4 300c 	ldrsh.w	r3, [r4, #12]
 800685c:	b17b      	cbz	r3, 800687e <_fflush_r+0x42>
 800685e:	4621      	mov	r1, r4
 8006860:	4628      	mov	r0, r5
 8006862:	e8bd 4038 	ldmia.w	sp!, {r3, r4, r5, lr}
 8006866:	f7ff bf63 	b.w	8006730 <__sflush_r>
 800686a:	4b07      	ldr	r3, [pc, #28]	; (8006888 <_fflush_r+0x4c>)
 800686c:	429c      	cmp	r4, r3
 800686e:	d101      	bne.n	8006874 <_fflush_r+0x38>
 8006870:	68ac      	ldr	r4, [r5, #8]
 8006872:	e7f1      	b.n	8006858 <_fflush_r+0x1c>
 8006874:	4b05      	ldr	r3, [pc, #20]	; (800688c <_fflush_r+0x50>)
 8006876:	429c      	cmp	r4, r3
 8006878:	bf08      	it	eq
 800687a:	68ec      	ldreq	r4, [r5, #12]
 800687c:	e7ec      	b.n	8006858 <_fflush_r+0x1c>
 800687e:	2000      	movs	r0, #0
 8006880:	bd38      	pop	{r3, r4, r5, pc}
 8006882:	bf00      	nop
 8006884:	08007634 	.word	0x08007634
 8006888:	08007654 	.word	0x08007654
 800688c:	08007614 	.word	0x08007614

08006890 <std>:
 8006890:	2300      	movs	r3, #0
 8006892:	b510      	push	{r4, lr}
 8006894:	4604      	mov	r4, r0
 8006896:	e9c0 3300 	strd	r3, r3, [r0]
 800689a:	6083      	str	r3, [r0, #8]
 800689c:	8181      	strh	r1, [r0, #12]
 800689e:	6643      	str	r3, [r0, #100]	; 0x64
 80068a0:	81c2      	strh	r2, [r0, #14]
 80068a2:	e9c0 3304 	strd	r3, r3, [r0, #16]
 80068a6:	6183      	str	r3, [r0, #24]
 80068a8:	4619      	mov	r1, r3
 80068aa:	2208      	movs	r2, #8
 80068ac:	305c      	adds	r0, #92	; 0x5c
 80068ae:	f7ff fe5c 	bl	800656a <memset>
 80068b2:	4b05      	ldr	r3, [pc, #20]	; (80068c8 <std+0x38>)
 80068b4:	6263      	str	r3, [r4, #36]	; 0x24
 80068b6:	4b05      	ldr	r3, [pc, #20]	; (80068cc <std+0x3c>)
 80068b8:	62a3      	str	r3, [r4, #40]	; 0x28
 80068ba:	4b05      	ldr	r3, [pc, #20]	; (80068d0 <std+0x40>)
 80068bc:	62e3      	str	r3, [r4, #44]	; 0x2c
 80068be:	4b05      	ldr	r3, [pc, #20]	; (80068d4 <std+0x44>)
 80068c0:	6224      	str	r4, [r4, #32]
 80068c2:	6323      	str	r3, [r4, #48]	; 0x30
 80068c4:	bd10      	pop	{r4, pc}
 80068c6:	bf00      	nop
 80068c8:	08007269 	.word	0x08007269
 80068cc:	0800728b 	.word	0x0800728b
 80068d0:	080072c3 	.word	0x080072c3
 80068d4:	080072e7 	.word	0x080072e7

080068d8 <_cleanup_r>:
 80068d8:	4901      	ldr	r1, [pc, #4]	; (80068e0 <_cleanup_r+0x8>)
 80068da:	f000 b885 	b.w	80069e8 <_fwalk_reent>
 80068de:	bf00      	nop
 80068e0:	0800683d 	.word	0x0800683d

080068e4 <__sfmoreglue>:
 80068e4:	b570      	push	{r4, r5, r6, lr}
 80068e6:	1e4a      	subs	r2, r1, #1
 80068e8:	2568      	movs	r5, #104	; 0x68
 80068ea:	4355      	muls	r5, r2
 80068ec:	460e      	mov	r6, r1
 80068ee:	f105 0174 	add.w	r1, r5, #116	; 0x74
 80068f2:	f000 f951 	bl	8006b98 <_malloc_r>
 80068f6:	4604      	mov	r4, r0
 80068f8:	b140      	cbz	r0, 800690c <__sfmoreglue+0x28>
 80068fa:	2100      	movs	r1, #0
 80068fc:	e9c0 1600 	strd	r1, r6, [r0]
 8006900:	300c      	adds	r0, #12
 8006902:	60a0      	str	r0, [r4, #8]
 8006904:	f105 0268 	add.w	r2, r5, #104	; 0x68
 8006908:	f7ff fe2f 	bl	800656a <memset>
 800690c:	4620      	mov	r0, r4
 800690e:	bd70      	pop	{r4, r5, r6, pc}

08006910 <__sinit>:
 8006910:	6983      	ldr	r3, [r0, #24]
 8006912:	b510      	push	{r4, lr}
 8006914:	4604      	mov	r4, r0
 8006916:	bb33      	cbnz	r3, 8006966 <__sinit+0x56>
 8006918:	e9c0 3312 	strd	r3, r3, [r0, #72]	; 0x48
 800691c:	6503      	str	r3, [r0, #80]	; 0x50
 800691e:	4b12      	ldr	r3, [pc, #72]	; (8006968 <__sinit+0x58>)
 8006920:	4a12      	ldr	r2, [pc, #72]	; (800696c <__sinit+0x5c>)
 8006922:	681b      	ldr	r3, [r3, #0]
 8006924:	6282      	str	r2, [r0, #40]	; 0x28
 8006926:	4298      	cmp	r0, r3
 8006928:	bf04      	itt	eq
 800692a:	2301      	moveq	r3, #1
 800692c:	6183      	streq	r3, [r0, #24]
 800692e:	f000 f81f 	bl	8006970 <__sfp>
 8006932:	6060      	str	r0, [r4, #4]
 8006934:	4620      	mov	r0, r4
 8006936:	f000 f81b 	bl	8006970 <__sfp>
 800693a:	60a0      	str	r0, [r4, #8]
 800693c:	4620      	mov	r0, r4
 800693e:	f000 f817 	bl	8006970 <__sfp>
 8006942:	2200      	movs	r2, #0
 8006944:	60e0      	str	r0, [r4, #12]
 8006946:	2104      	movs	r1, #4
 8006948:	6860      	ldr	r0, [r4, #4]
 800694a:	f7ff ffa1 	bl	8006890 <std>
 800694e:	2201      	movs	r2, #1
 8006950:	2109      	movs	r1, #9
 8006952:	68a0      	ldr	r0, [r4, #8]
 8006954:	f7ff ff9c 	bl	8006890 <std>
 8006958:	2202      	movs	r2, #2
 800695a:	2112      	movs	r1, #18
 800695c:	68e0      	ldr	r0, [r4, #12]
 800695e:	f7ff ff97 	bl	8006890 <std>
 8006962:	2301      	movs	r3, #1
 8006964:	61a3      	str	r3, [r4, #24]
 8006966:	bd10      	pop	{r4, pc}
 8006968:	08007610 	.word	0x08007610
 800696c:	080068d9 	.word	0x080068d9

08006970 <__sfp>:
 8006970:	b5f8      	push	{r3, r4, r5, r6, r7, lr}
 8006972:	4b1b      	ldr	r3, [pc, #108]	; (80069e0 <__sfp+0x70>)
 8006974:	681e      	ldr	r6, [r3, #0]
 8006976:	69b3      	ldr	r3, [r6, #24]
 8006978:	4607      	mov	r7, r0
 800697a:	b913      	cbnz	r3, 8006982 <__sfp+0x12>
 800697c:	4630      	mov	r0, r6
 800697e:	f7ff ffc7 	bl	8006910 <__sinit>
 8006982:	3648      	adds	r6, #72	; 0x48
 8006984:	e9d6 3401 	ldrd	r3, r4, [r6, #4]
 8006988:	3b01      	subs	r3, #1
 800698a:	d503      	bpl.n	8006994 <__sfp+0x24>
 800698c:	6833      	ldr	r3, [r6, #0]
 800698e:	b133      	cbz	r3, 800699e <__sfp+0x2e>
 8006990:	6836      	ldr	r6, [r6, #0]
 8006992:	e7f7      	b.n	8006984 <__sfp+0x14>
 8006994:	f9b4 500c 	ldrsh.w	r5, [r4, #12]
 8006998:	b16d      	cbz	r5, 80069b6 <__sfp+0x46>
 800699a:	3468      	adds	r4, #104	; 0x68
 800699c:	e7f4      	b.n	8006988 <__sfp+0x18>
 800699e:	2104      	movs	r1, #4
 80069a0:	4638      	mov	r0, r7
 80069a2:	f7ff ff9f 	bl	80068e4 <__sfmoreglue>
 80069a6:	6030      	str	r0, [r6, #0]
 80069a8:	2800      	cmp	r0, #0
 80069aa:	d1f1      	bne.n	8006990 <__sfp+0x20>
 80069ac:	230c      	movs	r3, #12
 80069ae:	603b      	str	r3, [r7, #0]
 80069b0:	4604      	mov	r4, r0
 80069b2:	4620      	mov	r0, r4
 80069b4:	bdf8      	pop	{r3, r4, r5, r6, r7, pc}
 80069b6:	4b0b      	ldr	r3, [pc, #44]	; (80069e4 <__sfp+0x74>)
 80069b8:	6665      	str	r5, [r4, #100]	; 0x64
 80069ba:	e9c4 5500 	strd	r5, r5, [r4]
 80069be:	60a5      	str	r5, [r4, #8]
 80069c0:	e9c4 3503 	strd	r3, r5, [r4, #12]
 80069c4:	e9c4 5505 	strd	r5, r5, [r4, #20]
 80069c8:	2208      	movs	r2, #8
 80069ca:	4629      	mov	r1, r5
 80069cc:	f104 005c 	add.w	r0, r4, #92	; 0x5c
 80069d0:	f7ff fdcb 	bl	800656a <memset>
 80069d4:	e9c4 550d 	strd	r5, r5, [r4, #52]	; 0x34
 80069d8:	e9c4 5512 	strd	r5, r5, [r4, #72]	; 0x48
 80069dc:	e7e9      	b.n	80069b2 <__sfp+0x42>
 80069de:	bf00      	nop
 80069e0:	08007610 	.word	0x08007610
 80069e4:	ffff0001 	.word	0xffff0001

080069e8 <_fwalk_reent>:
 80069e8:	e92d 43f8 	stmdb	sp!, {r3, r4, r5, r6, r7, r8, r9, lr}
 80069ec:	4680      	mov	r8, r0
 80069ee:	4689      	mov	r9, r1
 80069f0:	f100 0448 	add.w	r4, r0, #72	; 0x48
 80069f4:	2600      	movs	r6, #0
 80069f6:	b914      	cbnz	r4, 80069fe <_fwalk_reent+0x16>
 80069f8:	4630      	mov	r0, r6
 80069fa:	e8bd 83f8 	ldmia.w	sp!, {r3, r4, r5, r6, r7, r8, r9, pc}
 80069fe:	e9d4 7501 	ldrd	r7, r5, [r4, #4]
 8006a02:	3f01      	subs	r7, #1
 8006a04:	d501      	bpl.n	8006a0a <_fwalk_reent+0x22>
 8006a06:	6824      	ldr	r4, [r4, #0]
 8006a08:	e7f5      	b.n	80069f6 <_fwalk_reent+0xe>
 8006a0a:	89ab      	ldrh	r3, [r5, #12]
 8006a0c:	2b01      	cmp	r3, #1
 8006a0e:	d907      	bls.n	8006a20 <_fwalk_reent+0x38>
 8006a10:	f9b5 300e 	ldrsh.w	r3, [r5, #14]
 8006a14:	3301      	adds	r3, #1
 8006a16:	d003      	beq.n	8006a20 <_fwalk_reent+0x38>
 8006a18:	4629      	mov	r1, r5
 8006a1a:	4640      	mov	r0, r8
 8006a1c:	47c8      	blx	r9
 8006a1e:	4306      	orrs	r6, r0
 8006a20:	3568      	adds	r5, #104	; 0x68
 8006a22:	e7ee      	b.n	8006a02 <_fwalk_reent+0x1a>

08006a24 <__swhatbuf_r>:
 8006a24:	b570      	push	{r4, r5, r6, lr}
 8006a26:	460e      	mov	r6, r1
 8006a28:	f9b1 100e 	ldrsh.w	r1, [r1, #14]
 8006a2c:	2900      	cmp	r1, #0
 8006a2e:	b096      	sub	sp, #88	; 0x58
 8006a30:	4614      	mov	r4, r2
 8006a32:	461d      	mov	r5, r3
 8006a34:	da07      	bge.n	8006a46 <__swhatbuf_r+0x22>
 8006a36:	2300      	movs	r3, #0
 8006a38:	602b      	str	r3, [r5, #0]
 8006a3a:	89b3      	ldrh	r3, [r6, #12]
 8006a3c:	061a      	lsls	r2, r3, #24
 8006a3e:	d410      	bmi.n	8006a62 <__swhatbuf_r+0x3e>
 8006a40:	f44f 6380 	mov.w	r3, #1024	; 0x400
 8006a44:	e00e      	b.n	8006a64 <__swhatbuf_r+0x40>
 8006a46:	466a      	mov	r2, sp
 8006a48:	f000 fd34 	bl	80074b4 <_fstat_r>
 8006a4c:	2800      	cmp	r0, #0
 8006a4e:	dbf2      	blt.n	8006a36 <__swhatbuf_r+0x12>
 8006a50:	9a01      	ldr	r2, [sp, #4]
 8006a52:	f402 4270 	and.w	r2, r2, #61440	; 0xf000
 8006a56:	f5a2 5300 	sub.w	r3, r2, #8192	; 0x2000
 8006a5a:	425a      	negs	r2, r3
 8006a5c:	415a      	adcs	r2, r3
 8006a5e:	602a      	str	r2, [r5, #0]
 8006a60:	e7ee      	b.n	8006a40 <__swhatbuf_r+0x1c>
 8006a62:	2340      	movs	r3, #64	; 0x40
 8006a64:	2000      	movs	r0, #0
 8006a66:	6023      	str	r3, [r4, #0]
 8006a68:	b016      	add	sp, #88	; 0x58
 8006a6a:	bd70      	pop	{r4, r5, r6, pc}

08006a6c <__smakebuf_r>:
 8006a6c:	898b      	ldrh	r3, [r1, #12]
 8006a6e:	b573      	push	{r0, r1, r4, r5, r6, lr}
 8006a70:	079d      	lsls	r5, r3, #30
 8006a72:	4606      	mov	r6, r0
 8006a74:	460c      	mov	r4, r1
 8006a76:	d507      	bpl.n	8006a88 <__smakebuf_r+0x1c>
 8006a78:	f104 0347 	add.w	r3, r4, #71	; 0x47
 8006a7c:	6023      	str	r3, [r4, #0]
 8006a7e:	6123      	str	r3, [r4, #16]
 8006a80:	2301      	movs	r3, #1
 8006a82:	6163      	str	r3, [r4, #20]
 8006a84:	b002      	add	sp, #8
 8006a86:	bd70      	pop	{r4, r5, r6, pc}
 8006a88:	ab01      	add	r3, sp, #4
 8006a8a:	466a      	mov	r2, sp
 8006a8c:	f7ff ffca 	bl	8006a24 <__swhatbuf_r>
 8006a90:	9900      	ldr	r1, [sp, #0]
 8006a92:	4605      	mov	r5, r0
 8006a94:	4630      	mov	r0, r6
 8006a96:	f000 f87f 	bl	8006b98 <_malloc_r>
 8006a9a:	b948      	cbnz	r0, 8006ab0 <__smakebuf_r+0x44>
 8006a9c:	f9b4 300c 	ldrsh.w	r3, [r4, #12]
 8006aa0:	059a      	lsls	r2, r3, #22
 8006aa2:	d4ef      	bmi.n	8006a84 <__smakebuf_r+0x18>
 8006aa4:	f023 0303 	bic.w	r3, r3, #3
 8006aa8:	f043 0302 	orr.w	r3, r3, #2
 8006aac:	81a3      	strh	r3, [r4, #12]
 8006aae:	e7e3      	b.n	8006a78 <__smakebuf_r+0xc>
 8006ab0:	4b0d      	ldr	r3, [pc, #52]	; (8006ae8 <__smakebuf_r+0x7c>)
 8006ab2:	62b3      	str	r3, [r6, #40]	; 0x28
 8006ab4:	89a3      	ldrh	r3, [r4, #12]
 8006ab6:	6020      	str	r0, [r4, #0]
 8006ab8:	f043 0380 	orr.w	r3, r3, #128	; 0x80
 8006abc:	81a3      	strh	r3, [r4, #12]
 8006abe:	9b00      	ldr	r3, [sp, #0]
 8006ac0:	6163      	str	r3, [r4, #20]
 8006ac2:	9b01      	ldr	r3, [sp, #4]
 8006ac4:	6120      	str	r0, [r4, #16]
 8006ac6:	b15b      	cbz	r3, 8006ae0 <__smakebuf_r+0x74>
 8006ac8:	f9b4 100e 	ldrsh.w	r1, [r4, #14]
 8006acc:	4630      	mov	r0, r6
 8006ace:	f000 fd03 	bl	80074d8 <_isatty_r>
 8006ad2:	b128      	cbz	r0, 8006ae0 <__smakebuf_r+0x74>
 8006ad4:	89a3      	ldrh	r3, [r4, #12]
 8006ad6:	f023 0303 	bic.w	r3, r3, #3
 8006ada:	f043 0301 	orr.w	r3, r3, #1
 8006ade:	81a3      	strh	r3, [r4, #12]
 8006ae0:	89a3      	ldrh	r3, [r4, #12]
 8006ae2:	431d      	orrs	r5, r3
 8006ae4:	81a5      	strh	r5, [r4, #12]
 8006ae6:	e7cd      	b.n	8006a84 <__smakebuf_r+0x18>
 8006ae8:	080068d9 	.word	0x080068d9

08006aec <malloc>:
 8006aec:	4b02      	ldr	r3, [pc, #8]	; (8006af8 <malloc+0xc>)
 8006aee:	4601      	mov	r1, r0
 8006af0:	6818      	ldr	r0, [r3, #0]
 8006af2:	f000 b851 	b.w	8006b98 <_malloc_r>
 8006af6:	bf00      	nop
 8006af8:	24000010 	.word	0x24000010

08006afc <_free_r>:
 8006afc:	b538      	push	{r3, r4, r5, lr}
 8006afe:	4605      	mov	r5, r0
 8006b00:	2900      	cmp	r1, #0
 8006b02:	d045      	beq.n	8006b90 <_free_r+0x94>
 8006b04:	f851 3c04 	ldr.w	r3, [r1, #-4]
 8006b08:	1f0c      	subs	r4, r1, #4
 8006b0a:	2b00      	cmp	r3, #0
 8006b0c:	bfb8      	it	lt
 8006b0e:	18e4      	addlt	r4, r4, r3
 8006b10:	f000 fd04 	bl	800751c <__malloc_lock>
 8006b14:	4a1f      	ldr	r2, [pc, #124]	; (8006b94 <_free_r+0x98>)
 8006b16:	6813      	ldr	r3, [r2, #0]
 8006b18:	4610      	mov	r0, r2
 8006b1a:	b933      	cbnz	r3, 8006b2a <_free_r+0x2e>
 8006b1c:	6063      	str	r3, [r4, #4]
 8006b1e:	6014      	str	r4, [r2, #0]
 8006b20:	4628      	mov	r0, r5
 8006b22:	e8bd 4038 	ldmia.w	sp!, {r3, r4, r5, lr}
 8006b26:	f000 bcfa 	b.w	800751e <__malloc_unlock>
 8006b2a:	42a3      	cmp	r3, r4
 8006b2c:	d90c      	bls.n	8006b48 <_free_r+0x4c>
 8006b2e:	6821      	ldr	r1, [r4, #0]
 8006b30:	1862      	adds	r2, r4, r1
 8006b32:	4293      	cmp	r3, r2
 8006b34:	bf04      	itt	eq
 8006b36:	681a      	ldreq	r2, [r3, #0]
 8006b38:	685b      	ldreq	r3, [r3, #4]
 8006b3a:	6063      	str	r3, [r4, #4]
 8006b3c:	bf04      	itt	eq
 8006b3e:	1852      	addeq	r2, r2, r1
 8006b40:	6022      	streq	r2, [r4, #0]
 8006b42:	6004      	str	r4, [r0, #0]
 8006b44:	e7ec      	b.n	8006b20 <_free_r+0x24>
 8006b46:	4613      	mov	r3, r2
 8006b48:	685a      	ldr	r2, [r3, #4]
 8006b4a:	b10a      	cbz	r2, 8006b50 <_free_r+0x54>
 8006b4c:	42a2      	cmp	r2, r4
 8006b4e:	d9fa      	bls.n	8006b46 <_free_r+0x4a>
 8006b50:	6819      	ldr	r1, [r3, #0]
 8006b52:	1858      	adds	r0, r3, r1
 8006b54:	42a0      	cmp	r0, r4
 8006b56:	d10b      	bne.n	8006b70 <_free_r+0x74>
 8006b58:	6820      	ldr	r0, [r4, #0]
 8006b5a:	4401      	add	r1, r0
 8006b5c:	1858      	adds	r0, r3, r1
 8006b5e:	4282      	cmp	r2, r0
 8006b60:	6019      	str	r1, [r3, #0]
 8006b62:	d1dd      	bne.n	8006b20 <_free_r+0x24>
 8006b64:	6810      	ldr	r0, [r2, #0]
 8006b66:	6852      	ldr	r2, [r2, #4]
 8006b68:	605a      	str	r2, [r3, #4]
 8006b6a:	4401      	add	r1, r0
 8006b6c:	6019      	str	r1, [r3, #0]
 8006b6e:	e7d7      	b.n	8006b20 <_free_r+0x24>
 8006b70:	d902      	bls.n	8006b78 <_free_r+0x7c>
 8006b72:	230c      	movs	r3, #12
 8006b74:	602b      	str	r3, [r5, #0]
 8006b76:	e7d3      	b.n	8006b20 <_free_r+0x24>
 8006b78:	6820      	ldr	r0, [r4, #0]
 8006b7a:	1821      	adds	r1, r4, r0
 8006b7c:	428a      	cmp	r2, r1
 8006b7e:	bf04      	itt	eq
 8006b80:	6811      	ldreq	r1, [r2, #0]
 8006b82:	6852      	ldreq	r2, [r2, #4]
 8006b84:	6062      	str	r2, [r4, #4]
 8006b86:	bf04      	itt	eq
 8006b88:	1809      	addeq	r1, r1, r0
 8006b8a:	6021      	streq	r1, [r4, #0]
 8006b8c:	605c      	str	r4, [r3, #4]
 8006b8e:	e7c7      	b.n	8006b20 <_free_r+0x24>
 8006b90:	bd38      	pop	{r3, r4, r5, pc}
 8006b92:	bf00      	nop
 8006b94:	24000094 	.word	0x24000094

08006b98 <_malloc_r>:
 8006b98:	b570      	push	{r4, r5, r6, lr}
 8006b9a:	1ccd      	adds	r5, r1, #3
 8006b9c:	f025 0503 	bic.w	r5, r5, #3
 8006ba0:	3508      	adds	r5, #8
 8006ba2:	2d0c      	cmp	r5, #12
 8006ba4:	bf38      	it	cc
 8006ba6:	250c      	movcc	r5, #12
 8006ba8:	2d00      	cmp	r5, #0
 8006baa:	4606      	mov	r6, r0
 8006bac:	db01      	blt.n	8006bb2 <_malloc_r+0x1a>
 8006bae:	42a9      	cmp	r1, r5
 8006bb0:	d903      	bls.n	8006bba <_malloc_r+0x22>
 8006bb2:	230c      	movs	r3, #12
 8006bb4:	6033      	str	r3, [r6, #0]
 8006bb6:	2000      	movs	r0, #0
 8006bb8:	bd70      	pop	{r4, r5, r6, pc}
 8006bba:	f000 fcaf 	bl	800751c <__malloc_lock>
 8006bbe:	4a21      	ldr	r2, [pc, #132]	; (8006c44 <_malloc_r+0xac>)
 8006bc0:	6814      	ldr	r4, [r2, #0]
 8006bc2:	4621      	mov	r1, r4
 8006bc4:	b991      	cbnz	r1, 8006bec <_malloc_r+0x54>
 8006bc6:	4c20      	ldr	r4, [pc, #128]	; (8006c48 <_malloc_r+0xb0>)
 8006bc8:	6823      	ldr	r3, [r4, #0]
 8006bca:	b91b      	cbnz	r3, 8006bd4 <_malloc_r+0x3c>
 8006bcc:	4630      	mov	r0, r6
 8006bce:	f000 fb3b 	bl	8007248 <_sbrk_r>
 8006bd2:	6020      	str	r0, [r4, #0]
 8006bd4:	4629      	mov	r1, r5
 8006bd6:	4630      	mov	r0, r6
 8006bd8:	f000 fb36 	bl	8007248 <_sbrk_r>
 8006bdc:	1c43      	adds	r3, r0, #1
 8006bde:	d124      	bne.n	8006c2a <_malloc_r+0x92>
 8006be0:	230c      	movs	r3, #12
 8006be2:	6033      	str	r3, [r6, #0]
 8006be4:	4630      	mov	r0, r6
 8006be6:	f000 fc9a 	bl	800751e <__malloc_unlock>
 8006bea:	e7e4      	b.n	8006bb6 <_malloc_r+0x1e>
 8006bec:	680b      	ldr	r3, [r1, #0]
 8006bee:	1b5b      	subs	r3, r3, r5
 8006bf0:	d418      	bmi.n	8006c24 <_malloc_r+0x8c>
 8006bf2:	2b0b      	cmp	r3, #11
 8006bf4:	d90f      	bls.n	8006c16 <_malloc_r+0x7e>
 8006bf6:	600b      	str	r3, [r1, #0]
 8006bf8:	50cd      	str	r5, [r1, r3]
 8006bfa:	18cc      	adds	r4, r1, r3
 8006bfc:	4630      	mov	r0, r6
 8006bfe:	f000 fc8e 	bl	800751e <__malloc_unlock>
 8006c02:	f104 000b 	add.w	r0, r4, #11
 8006c06:	1d23      	adds	r3, r4, #4
 8006c08:	f020 0007 	bic.w	r0, r0, #7
 8006c0c:	1ac3      	subs	r3, r0, r3
 8006c0e:	d0d3      	beq.n	8006bb8 <_malloc_r+0x20>
 8006c10:	425a      	negs	r2, r3
 8006c12:	50e2      	str	r2, [r4, r3]
 8006c14:	e7d0      	b.n	8006bb8 <_malloc_r+0x20>
 8006c16:	428c      	cmp	r4, r1
 8006c18:	684b      	ldr	r3, [r1, #4]
 8006c1a:	bf16      	itet	ne
 8006c1c:	6063      	strne	r3, [r4, #4]
 8006c1e:	6013      	streq	r3, [r2, #0]
 8006c20:	460c      	movne	r4, r1
 8006c22:	e7eb      	b.n	8006bfc <_malloc_r+0x64>
 8006c24:	460c      	mov	r4, r1
 8006c26:	6849      	ldr	r1, [r1, #4]
 8006c28:	e7cc      	b.n	8006bc4 <_malloc_r+0x2c>
 8006c2a:	1cc4      	adds	r4, r0, #3
 8006c2c:	f024 0403 	bic.w	r4, r4, #3
 8006c30:	42a0      	cmp	r0, r4
 8006c32:	d005      	beq.n	8006c40 <_malloc_r+0xa8>
 8006c34:	1a21      	subs	r1, r4, r0
 8006c36:	4630      	mov	r0, r6
 8006c38:	f000 fb06 	bl	8007248 <_sbrk_r>
 8006c3c:	3001      	adds	r0, #1
 8006c3e:	d0cf      	beq.n	8006be0 <_malloc_r+0x48>
 8006c40:	6025      	str	r5, [r4, #0]
 8006c42:	e7db      	b.n	8006bfc <_malloc_r+0x64>
 8006c44:	24000094 	.word	0x24000094
 8006c48:	24000098 	.word	0x24000098

08006c4c <__sfputc_r>:
 8006c4c:	6893      	ldr	r3, [r2, #8]
 8006c4e:	3b01      	subs	r3, #1
 8006c50:	2b00      	cmp	r3, #0
 8006c52:	b410      	push	{r4}
 8006c54:	6093      	str	r3, [r2, #8]
 8006c56:	da08      	bge.n	8006c6a <__sfputc_r+0x1e>
 8006c58:	6994      	ldr	r4, [r2, #24]
 8006c5a:	42a3      	cmp	r3, r4
 8006c5c:	db01      	blt.n	8006c62 <__sfputc_r+0x16>
 8006c5e:	290a      	cmp	r1, #10
 8006c60:	d103      	bne.n	8006c6a <__sfputc_r+0x1e>
 8006c62:	f85d 4b04 	ldr.w	r4, [sp], #4
 8006c66:	f000 bb43 	b.w	80072f0 <__swbuf_r>
 8006c6a:	6813      	ldr	r3, [r2, #0]
 8006c6c:	1c58      	adds	r0, r3, #1
 8006c6e:	6010      	str	r0, [r2, #0]
 8006c70:	7019      	strb	r1, [r3, #0]
 8006c72:	4608      	mov	r0, r1
 8006c74:	f85d 4b04 	ldr.w	r4, [sp], #4
 8006c78:	4770      	bx	lr

08006c7a <__sfputs_r>:
 8006c7a:	b5f8      	push	{r3, r4, r5, r6, r7, lr}
 8006c7c:	4606      	mov	r6, r0
 8006c7e:	460f      	mov	r7, r1
 8006c80:	4614      	mov	r4, r2
 8006c82:	18d5      	adds	r5, r2, r3
 8006c84:	42ac      	cmp	r4, r5
 8006c86:	d101      	bne.n	8006c8c <__sfputs_r+0x12>
 8006c88:	2000      	movs	r0, #0
 8006c8a:	e007      	b.n	8006c9c <__sfputs_r+0x22>
 8006c8c:	463a      	mov	r2, r7
 8006c8e:	f814 1b01 	ldrb.w	r1, [r4], #1
 8006c92:	4630      	mov	r0, r6
 8006c94:	f7ff ffda 	bl	8006c4c <__sfputc_r>
 8006c98:	1c43      	adds	r3, r0, #1
 8006c9a:	d1f3      	bne.n	8006c84 <__sfputs_r+0xa>
 8006c9c:	bdf8      	pop	{r3, r4, r5, r6, r7, pc}
	...

08006ca0 <_vfiprintf_r>:
 8006ca0:	e92d 4ff0 	stmdb	sp!, {r4, r5, r6, r7, r8, r9, sl, fp, lr}
 8006ca4:	460c      	mov	r4, r1
 8006ca6:	b09d      	sub	sp, #116	; 0x74
 8006ca8:	4617      	mov	r7, r2
 8006caa:	461d      	mov	r5, r3
 8006cac:	4606      	mov	r6, r0
 8006cae:	b118      	cbz	r0, 8006cb8 <_vfiprintf_r+0x18>
 8006cb0:	6983      	ldr	r3, [r0, #24]
 8006cb2:	b90b      	cbnz	r3, 8006cb8 <_vfiprintf_r+0x18>
 8006cb4:	f7ff fe2c 	bl	8006910 <__sinit>
 8006cb8:	4b7c      	ldr	r3, [pc, #496]	; (8006eac <_vfiprintf_r+0x20c>)
 8006cba:	429c      	cmp	r4, r3
 8006cbc:	d158      	bne.n	8006d70 <_vfiprintf_r+0xd0>
 8006cbe:	6874      	ldr	r4, [r6, #4]
 8006cc0:	89a3      	ldrh	r3, [r4, #12]
 8006cc2:	0718      	lsls	r0, r3, #28
 8006cc4:	d55e      	bpl.n	8006d84 <_vfiprintf_r+0xe4>
 8006cc6:	6923      	ldr	r3, [r4, #16]
 8006cc8:	2b00      	cmp	r3, #0
 8006cca:	d05b      	beq.n	8006d84 <_vfiprintf_r+0xe4>
 8006ccc:	2300      	movs	r3, #0
 8006cce:	9309      	str	r3, [sp, #36]	; 0x24
 8006cd0:	2320      	movs	r3, #32
 8006cd2:	f88d 3029 	strb.w	r3, [sp, #41]	; 0x29
 8006cd6:	2330      	movs	r3, #48	; 0x30
 8006cd8:	f88d 302a 	strb.w	r3, [sp, #42]	; 0x2a
 8006cdc:	9503      	str	r5, [sp, #12]
 8006cde:	f04f 0b01 	mov.w	fp, #1
 8006ce2:	46b8      	mov	r8, r7
 8006ce4:	4645      	mov	r5, r8
 8006ce6:	f815 3b01 	ldrb.w	r3, [r5], #1
 8006cea:	b10b      	cbz	r3, 8006cf0 <_vfiprintf_r+0x50>
 8006cec:	2b25      	cmp	r3, #37	; 0x25
 8006cee:	d154      	bne.n	8006d9a <_vfiprintf_r+0xfa>
 8006cf0:	ebb8 0a07 	subs.w	sl, r8, r7
 8006cf4:	d00b      	beq.n	8006d0e <_vfiprintf_r+0x6e>
 8006cf6:	4653      	mov	r3, sl
 8006cf8:	463a      	mov	r2, r7
 8006cfa:	4621      	mov	r1, r4
 8006cfc:	4630      	mov	r0, r6
 8006cfe:	f7ff ffbc 	bl	8006c7a <__sfputs_r>
 8006d02:	3001      	adds	r0, #1
 8006d04:	f000 80c2 	beq.w	8006e8c <_vfiprintf_r+0x1ec>
 8006d08:	9b09      	ldr	r3, [sp, #36]	; 0x24
 8006d0a:	4453      	add	r3, sl
 8006d0c:	9309      	str	r3, [sp, #36]	; 0x24
 8006d0e:	f898 3000 	ldrb.w	r3, [r8]
 8006d12:	2b00      	cmp	r3, #0
 8006d14:	f000 80ba 	beq.w	8006e8c <_vfiprintf_r+0x1ec>
 8006d18:	2300      	movs	r3, #0
 8006d1a:	f04f 32ff 	mov.w	r2, #4294967295
 8006d1e:	e9cd 2305 	strd	r2, r3, [sp, #20]
 8006d22:	9304      	str	r3, [sp, #16]
 8006d24:	9307      	str	r3, [sp, #28]
 8006d26:	f88d 3053 	strb.w	r3, [sp, #83]	; 0x53
 8006d2a:	931a      	str	r3, [sp, #104]	; 0x68
 8006d2c:	46a8      	mov	r8, r5
 8006d2e:	2205      	movs	r2, #5
 8006d30:	f818 1b01 	ldrb.w	r1, [r8], #1
 8006d34:	485e      	ldr	r0, [pc, #376]	; (8006eb0 <_vfiprintf_r+0x210>)
 8006d36:	f7f9 fad3 	bl	80002e0 <memchr>
 8006d3a:	9b04      	ldr	r3, [sp, #16]
 8006d3c:	bb78      	cbnz	r0, 8006d9e <_vfiprintf_r+0xfe>
 8006d3e:	06d9      	lsls	r1, r3, #27
 8006d40:	bf44      	itt	mi
 8006d42:	2220      	movmi	r2, #32
 8006d44:	f88d 2053 	strbmi.w	r2, [sp, #83]	; 0x53
 8006d48:	071a      	lsls	r2, r3, #28
 8006d4a:	bf44      	itt	mi
 8006d4c:	222b      	movmi	r2, #43	; 0x2b
 8006d4e:	f88d 2053 	strbmi.w	r2, [sp, #83]	; 0x53
 8006d52:	782a      	ldrb	r2, [r5, #0]
 8006d54:	2a2a      	cmp	r2, #42	; 0x2a
 8006d56:	d02a      	beq.n	8006dae <_vfiprintf_r+0x10e>
 8006d58:	9a07      	ldr	r2, [sp, #28]
 8006d5a:	46a8      	mov	r8, r5
 8006d5c:	2000      	movs	r0, #0
 8006d5e:	250a      	movs	r5, #10
 8006d60:	4641      	mov	r1, r8
 8006d62:	f811 3b01 	ldrb.w	r3, [r1], #1
 8006d66:	3b30      	subs	r3, #48	; 0x30
 8006d68:	2b09      	cmp	r3, #9
 8006d6a:	d969      	bls.n	8006e40 <_vfiprintf_r+0x1a0>
 8006d6c:	b360      	cbz	r0, 8006dc8 <_vfiprintf_r+0x128>
 8006d6e:	e024      	b.n	8006dba <_vfiprintf_r+0x11a>
 8006d70:	4b50      	ldr	r3, [pc, #320]	; (8006eb4 <_vfiprintf_r+0x214>)
 8006d72:	429c      	cmp	r4, r3
 8006d74:	d101      	bne.n	8006d7a <_vfiprintf_r+0xda>
 8006d76:	68b4      	ldr	r4, [r6, #8]
 8006d78:	e7a2      	b.n	8006cc0 <_vfiprintf_r+0x20>
 8006d7a:	4b4f      	ldr	r3, [pc, #316]	; (8006eb8 <_vfiprintf_r+0x218>)
 8006d7c:	429c      	cmp	r4, r3
 8006d7e:	bf08      	it	eq
 8006d80:	68f4      	ldreq	r4, [r6, #12]
 8006d82:	e79d      	b.n	8006cc0 <_vfiprintf_r+0x20>
 8006d84:	4621      	mov	r1, r4
 8006d86:	4630      	mov	r0, r6
 8006d88:	f000 fb16 	bl	80073b8 <__swsetup_r>
 8006d8c:	2800      	cmp	r0, #0
 8006d8e:	d09d      	beq.n	8006ccc <_vfiprintf_r+0x2c>
 8006d90:	f04f 30ff 	mov.w	r0, #4294967295
 8006d94:	b01d      	add	sp, #116	; 0x74
 8006d96:	e8bd 8ff0 	ldmia.w	sp!, {r4, r5, r6, r7, r8, r9, sl, fp, pc}
 8006d9a:	46a8      	mov	r8, r5
 8006d9c:	e7a2      	b.n	8006ce4 <_vfiprintf_r+0x44>
 8006d9e:	4a44      	ldr	r2, [pc, #272]	; (8006eb0 <_vfiprintf_r+0x210>)
 8006da0:	1a80      	subs	r0, r0, r2
 8006da2:	fa0b f000 	lsl.w	r0, fp, r0
 8006da6:	4318      	orrs	r0, r3
 8006da8:	9004      	str	r0, [sp, #16]
 8006daa:	4645      	mov	r5, r8
 8006dac:	e7be      	b.n	8006d2c <_vfiprintf_r+0x8c>
 8006dae:	9a03      	ldr	r2, [sp, #12]
 8006db0:	1d11      	adds	r1, r2, #4
 8006db2:	6812      	ldr	r2, [r2, #0]
 8006db4:	9103      	str	r1, [sp, #12]
 8006db6:	2a00      	cmp	r2, #0
 8006db8:	db01      	blt.n	8006dbe <_vfiprintf_r+0x11e>
 8006dba:	9207      	str	r2, [sp, #28]
 8006dbc:	e004      	b.n	8006dc8 <_vfiprintf_r+0x128>
 8006dbe:	4252      	negs	r2, r2
 8006dc0:	f043 0302 	orr.w	r3, r3, #2
 8006dc4:	9207      	str	r2, [sp, #28]
 8006dc6:	9304      	str	r3, [sp, #16]
 8006dc8:	f898 3000 	ldrb.w	r3, [r8]
 8006dcc:	2b2e      	cmp	r3, #46	; 0x2e
 8006dce:	d10e      	bne.n	8006dee <_vfiprintf_r+0x14e>
 8006dd0:	f898 3001 	ldrb.w	r3, [r8, #1]
 8006dd4:	2b2a      	cmp	r3, #42	; 0x2a
 8006dd6:	d138      	bne.n	8006e4a <_vfiprintf_r+0x1aa>
 8006dd8:	9b03      	ldr	r3, [sp, #12]
 8006dda:	1d1a      	adds	r2, r3, #4
 8006ddc:	681b      	ldr	r3, [r3, #0]
 8006dde:	9203      	str	r2, [sp, #12]
 8006de0:	2b00      	cmp	r3, #0
 8006de2:	bfb8      	it	lt
 8006de4:	f04f 33ff 	movlt.w	r3, #4294967295
 8006de8:	f108 0802 	add.w	r8, r8, #2
 8006dec:	9305      	str	r3, [sp, #20]
 8006dee:	4d33      	ldr	r5, [pc, #204]	; (8006ebc <_vfiprintf_r+0x21c>)
 8006df0:	f898 1000 	ldrb.w	r1, [r8]
 8006df4:	2203      	movs	r2, #3
 8006df6:	4628      	mov	r0, r5
 8006df8:	f7f9 fa72 	bl	80002e0 <memchr>
 8006dfc:	b140      	cbz	r0, 8006e10 <_vfiprintf_r+0x170>
 8006dfe:	2340      	movs	r3, #64	; 0x40
 8006e00:	1b40      	subs	r0, r0, r5
 8006e02:	fa03 f000 	lsl.w	r0, r3, r0
 8006e06:	9b04      	ldr	r3, [sp, #16]
 8006e08:	4303      	orrs	r3, r0
 8006e0a:	f108 0801 	add.w	r8, r8, #1
 8006e0e:	9304      	str	r3, [sp, #16]
 8006e10:	f898 1000 	ldrb.w	r1, [r8]
 8006e14:	482a      	ldr	r0, [pc, #168]	; (8006ec0 <_vfiprintf_r+0x220>)
 8006e16:	f88d 1028 	strb.w	r1, [sp, #40]	; 0x28
 8006e1a:	2206      	movs	r2, #6
 8006e1c:	f108 0701 	add.w	r7, r8, #1
 8006e20:	f7f9 fa5e 	bl	80002e0 <memchr>
 8006e24:	2800      	cmp	r0, #0
 8006e26:	d037      	beq.n	8006e98 <_vfiprintf_r+0x1f8>
 8006e28:	4b26      	ldr	r3, [pc, #152]	; (8006ec4 <_vfiprintf_r+0x224>)
 8006e2a:	bb1b      	cbnz	r3, 8006e74 <_vfiprintf_r+0x1d4>
 8006e2c:	9b03      	ldr	r3, [sp, #12]
 8006e2e:	3307      	adds	r3, #7
 8006e30:	f023 0307 	bic.w	r3, r3, #7
 8006e34:	3308      	adds	r3, #8
 8006e36:	9303      	str	r3, [sp, #12]
 8006e38:	9b09      	ldr	r3, [sp, #36]	; 0x24
 8006e3a:	444b      	add	r3, r9
 8006e3c:	9309      	str	r3, [sp, #36]	; 0x24
 8006e3e:	e750      	b.n	8006ce2 <_vfiprintf_r+0x42>
 8006e40:	fb05 3202 	mla	r2, r5, r2, r3
 8006e44:	2001      	movs	r0, #1
 8006e46:	4688      	mov	r8, r1
 8006e48:	e78a      	b.n	8006d60 <_vfiprintf_r+0xc0>
 8006e4a:	2300      	movs	r3, #0
 8006e4c:	f108 0801 	add.w	r8, r8, #1
 8006e50:	9305      	str	r3, [sp, #20]
 8006e52:	4619      	mov	r1, r3
 8006e54:	250a      	movs	r5, #10
 8006e56:	4640      	mov	r0, r8
 8006e58:	f810 2b01 	ldrb.w	r2, [r0], #1
 8006e5c:	3a30      	subs	r2, #48	; 0x30
 8006e5e:	2a09      	cmp	r2, #9
 8006e60:	d903      	bls.n	8006e6a <_vfiprintf_r+0x1ca>
 8006e62:	2b00      	cmp	r3, #0
 8006e64:	d0c3      	beq.n	8006dee <_vfiprintf_r+0x14e>
 8006e66:	9105      	str	r1, [sp, #20]
 8006e68:	e7c1      	b.n	8006dee <_vfiprintf_r+0x14e>
 8006e6a:	fb05 2101 	mla	r1, r5, r1, r2
 8006e6e:	2301      	movs	r3, #1
 8006e70:	4680      	mov	r8, r0
 8006e72:	e7f0      	b.n	8006e56 <_vfiprintf_r+0x1b6>
 8006e74:	ab03      	add	r3, sp, #12
 8006e76:	9300      	str	r3, [sp, #0]
 8006e78:	4622      	mov	r2, r4
 8006e7a:	4b13      	ldr	r3, [pc, #76]	; (8006ec8 <_vfiprintf_r+0x228>)
 8006e7c:	a904      	add	r1, sp, #16
 8006e7e:	4630      	mov	r0, r6
 8006e80:	f3af 8000 	nop.w
 8006e84:	f1b0 3fff 	cmp.w	r0, #4294967295
 8006e88:	4681      	mov	r9, r0
 8006e8a:	d1d5      	bne.n	8006e38 <_vfiprintf_r+0x198>
 8006e8c:	89a3      	ldrh	r3, [r4, #12]
 8006e8e:	065b      	lsls	r3, r3, #25
 8006e90:	f53f af7e 	bmi.w	8006d90 <_vfiprintf_r+0xf0>
 8006e94:	9809      	ldr	r0, [sp, #36]	; 0x24
 8006e96:	e77d      	b.n	8006d94 <_vfiprintf_r+0xf4>
 8006e98:	ab03      	add	r3, sp, #12
 8006e9a:	9300      	str	r3, [sp, #0]
 8006e9c:	4622      	mov	r2, r4
 8006e9e:	4b0a      	ldr	r3, [pc, #40]	; (8006ec8 <_vfiprintf_r+0x228>)
 8006ea0:	a904      	add	r1, sp, #16
 8006ea2:	4630      	mov	r0, r6
 8006ea4:	f000 f888 	bl	8006fb8 <_printf_i>
 8006ea8:	e7ec      	b.n	8006e84 <_vfiprintf_r+0x1e4>
 8006eaa:	bf00      	nop
 8006eac:	08007634 	.word	0x08007634
 8006eb0:	08007674 	.word	0x08007674
 8006eb4:	08007654 	.word	0x08007654
 8006eb8:	08007614 	.word	0x08007614
 8006ebc:	0800767a 	.word	0x0800767a
 8006ec0:	0800767e 	.word	0x0800767e
 8006ec4:	00000000 	.word	0x00000000
 8006ec8:	08006c7b 	.word	0x08006c7b

08006ecc <_printf_common>:
 8006ecc:	e92d 47f0 	stmdb	sp!, {r4, r5, r6, r7, r8, r9, sl, lr}
 8006ed0:	4691      	mov	r9, r2
 8006ed2:	461f      	mov	r7, r3
 8006ed4:	688a      	ldr	r2, [r1, #8]
 8006ed6:	690b      	ldr	r3, [r1, #16]
 8006ed8:	f8dd 8020 	ldr.w	r8, [sp, #32]
 8006edc:	4293      	cmp	r3, r2
 8006ede:	bfb8      	it	lt
 8006ee0:	4613      	movlt	r3, r2
 8006ee2:	f8c9 3000 	str.w	r3, [r9]
 8006ee6:	f891 2043 	ldrb.w	r2, [r1, #67]	; 0x43
 8006eea:	4606      	mov	r6, r0
 8006eec:	460c      	mov	r4, r1
 8006eee:	b112      	cbz	r2, 8006ef6 <_printf_common+0x2a>
 8006ef0:	3301      	adds	r3, #1
 8006ef2:	f8c9 3000 	str.w	r3, [r9]
 8006ef6:	6823      	ldr	r3, [r4, #0]
 8006ef8:	0699      	lsls	r1, r3, #26
 8006efa:	bf42      	ittt	mi
 8006efc:	f8d9 3000 	ldrmi.w	r3, [r9]
 8006f00:	3302      	addmi	r3, #2
 8006f02:	f8c9 3000 	strmi.w	r3, [r9]
 8006f06:	6825      	ldr	r5, [r4, #0]
 8006f08:	f015 0506 	ands.w	r5, r5, #6
 8006f0c:	d107      	bne.n	8006f1e <_printf_common+0x52>
 8006f0e:	f104 0a19 	add.w	sl, r4, #25
 8006f12:	68e3      	ldr	r3, [r4, #12]
 8006f14:	f8d9 2000 	ldr.w	r2, [r9]
 8006f18:	1a9b      	subs	r3, r3, r2
 8006f1a:	42ab      	cmp	r3, r5
 8006f1c:	dc28      	bgt.n	8006f70 <_printf_common+0xa4>
 8006f1e:	f894 3043 	ldrb.w	r3, [r4, #67]	; 0x43
 8006f22:	6822      	ldr	r2, [r4, #0]
 8006f24:	3300      	adds	r3, #0
 8006f26:	bf18      	it	ne
 8006f28:	2301      	movne	r3, #1
 8006f2a:	0692      	lsls	r2, r2, #26
 8006f2c:	d42d      	bmi.n	8006f8a <_printf_common+0xbe>
 8006f2e:	f104 0243 	add.w	r2, r4, #67	; 0x43
 8006f32:	4639      	mov	r1, r7
 8006f34:	4630      	mov	r0, r6
 8006f36:	47c0      	blx	r8
 8006f38:	3001      	adds	r0, #1
 8006f3a:	d020      	beq.n	8006f7e <_printf_common+0xb2>
 8006f3c:	6823      	ldr	r3, [r4, #0]
 8006f3e:	68e5      	ldr	r5, [r4, #12]
 8006f40:	f8d9 2000 	ldr.w	r2, [r9]
 8006f44:	f003 0306 	and.w	r3, r3, #6
 8006f48:	2b04      	cmp	r3, #4
 8006f4a:	bf08      	it	eq
 8006f4c:	1aad      	subeq	r5, r5, r2
 8006f4e:	68a3      	ldr	r3, [r4, #8]
 8006f50:	6922      	ldr	r2, [r4, #16]
 8006f52:	bf0c      	ite	eq
 8006f54:	ea25 75e5 	biceq.w	r5, r5, r5, asr #31
 8006f58:	2500      	movne	r5, #0
 8006f5a:	4293      	cmp	r3, r2
 8006f5c:	bfc4      	itt	gt
 8006f5e:	1a9b      	subgt	r3, r3, r2
 8006f60:	18ed      	addgt	r5, r5, r3
 8006f62:	f04f 0900 	mov.w	r9, #0
 8006f66:	341a      	adds	r4, #26
 8006f68:	454d      	cmp	r5, r9
 8006f6a:	d11a      	bne.n	8006fa2 <_printf_common+0xd6>
 8006f6c:	2000      	movs	r0, #0
 8006f6e:	e008      	b.n	8006f82 <_printf_common+0xb6>
 8006f70:	2301      	movs	r3, #1
 8006f72:	4652      	mov	r2, sl
 8006f74:	4639      	mov	r1, r7
 8006f76:	4630      	mov	r0, r6
 8006f78:	47c0      	blx	r8
 8006f7a:	3001      	adds	r0, #1
 8006f7c:	d103      	bne.n	8006f86 <_printf_common+0xba>
 8006f7e:	f04f 30ff 	mov.w	r0, #4294967295
 8006f82:	e8bd 87f0 	ldmia.w	sp!, {r4, r5, r6, r7, r8, r9, sl, pc}
 8006f86:	3501      	adds	r5, #1
 8006f88:	e7c3      	b.n	8006f12 <_printf_common+0x46>
 8006f8a:	18e1      	adds	r1, r4, r3
 8006f8c:	1c5a      	adds	r2, r3, #1
 8006f8e:	2030      	movs	r0, #48	; 0x30
 8006f90:	f881 0043 	strb.w	r0, [r1, #67]	; 0x43
 8006f94:	4422      	add	r2, r4
 8006f96:	f894 1045 	ldrb.w	r1, [r4, #69]	; 0x45
 8006f9a:	f882 1043 	strb.w	r1, [r2, #67]	; 0x43
 8006f9e:	3302      	adds	r3, #2
 8006fa0:	e7c5      	b.n	8006f2e <_printf_common+0x62>
 8006fa2:	2301      	movs	r3, #1
 8006fa4:	4622      	mov	r2, r4
 8006fa6:	4639      	mov	r1, r7
 8006fa8:	4630      	mov	r0, r6
 8006faa:	47c0      	blx	r8
 8006fac:	3001      	adds	r0, #1
 8006fae:	d0e6      	beq.n	8006f7e <_printf_common+0xb2>
 8006fb0:	f109 0901 	add.w	r9, r9, #1
 8006fb4:	e7d8      	b.n	8006f68 <_printf_common+0x9c>
	...

08006fb8 <_printf_i>:
 8006fb8:	e92d 43f0 	stmdb	sp!, {r4, r5, r6, r7, r8, r9, lr}
 8006fbc:	f101 0c43 	add.w	ip, r1, #67	; 0x43
 8006fc0:	460c      	mov	r4, r1
 8006fc2:	7e09      	ldrb	r1, [r1, #24]
 8006fc4:	b085      	sub	sp, #20
 8006fc6:	296e      	cmp	r1, #110	; 0x6e
 8006fc8:	4617      	mov	r7, r2
 8006fca:	4606      	mov	r6, r0
 8006fcc:	4698      	mov	r8, r3
 8006fce:	9a0c      	ldr	r2, [sp, #48]	; 0x30
 8006fd0:	f000 80b3 	beq.w	800713a <_printf_i+0x182>
 8006fd4:	d822      	bhi.n	800701c <_printf_i+0x64>
 8006fd6:	2963      	cmp	r1, #99	; 0x63
 8006fd8:	d036      	beq.n	8007048 <_printf_i+0x90>
 8006fda:	d80a      	bhi.n	8006ff2 <_printf_i+0x3a>
 8006fdc:	2900      	cmp	r1, #0
 8006fde:	f000 80b9 	beq.w	8007154 <_printf_i+0x19c>
 8006fe2:	2958      	cmp	r1, #88	; 0x58
 8006fe4:	f000 8083 	beq.w	80070ee <_printf_i+0x136>
 8006fe8:	f104 0542 	add.w	r5, r4, #66	; 0x42
 8006fec:	f884 1042 	strb.w	r1, [r4, #66]	; 0x42
 8006ff0:	e032      	b.n	8007058 <_printf_i+0xa0>
 8006ff2:	2964      	cmp	r1, #100	; 0x64
 8006ff4:	d001      	beq.n	8006ffa <_printf_i+0x42>
 8006ff6:	2969      	cmp	r1, #105	; 0x69
 8006ff8:	d1f6      	bne.n	8006fe8 <_printf_i+0x30>
 8006ffa:	6820      	ldr	r0, [r4, #0]
 8006ffc:	6813      	ldr	r3, [r2, #0]
 8006ffe:	0605      	lsls	r5, r0, #24
 8007000:	f103 0104 	add.w	r1, r3, #4
 8007004:	d52a      	bpl.n	800705c <_printf_i+0xa4>
 8007006:	681b      	ldr	r3, [r3, #0]
 8007008:	6011      	str	r1, [r2, #0]
 800700a:	2b00      	cmp	r3, #0
 800700c:	da03      	bge.n	8007016 <_printf_i+0x5e>
 800700e:	222d      	movs	r2, #45	; 0x2d
 8007010:	425b      	negs	r3, r3
 8007012:	f884 2043 	strb.w	r2, [r4, #67]	; 0x43
 8007016:	486f      	ldr	r0, [pc, #444]	; (80071d4 <_printf_i+0x21c>)
 8007018:	220a      	movs	r2, #10
 800701a:	e039      	b.n	8007090 <_printf_i+0xd8>
 800701c:	2973      	cmp	r1, #115	; 0x73
 800701e:	f000 809d 	beq.w	800715c <_printf_i+0x1a4>
 8007022:	d808      	bhi.n	8007036 <_printf_i+0x7e>
 8007024:	296f      	cmp	r1, #111	; 0x6f
 8007026:	d020      	beq.n	800706a <_printf_i+0xb2>
 8007028:	2970      	cmp	r1, #112	; 0x70
 800702a:	d1dd      	bne.n	8006fe8 <_printf_i+0x30>
 800702c:	6823      	ldr	r3, [r4, #0]
 800702e:	f043 0320 	orr.w	r3, r3, #32
 8007032:	6023      	str	r3, [r4, #0]
 8007034:	e003      	b.n	800703e <_printf_i+0x86>
 8007036:	2975      	cmp	r1, #117	; 0x75
 8007038:	d017      	beq.n	800706a <_printf_i+0xb2>
 800703a:	2978      	cmp	r1, #120	; 0x78
 800703c:	d1d4      	bne.n	8006fe8 <_printf_i+0x30>
 800703e:	2378      	movs	r3, #120	; 0x78
 8007040:	f884 3045 	strb.w	r3, [r4, #69]	; 0x45
 8007044:	4864      	ldr	r0, [pc, #400]	; (80071d8 <_printf_i+0x220>)
 8007046:	e055      	b.n	80070f4 <_printf_i+0x13c>
 8007048:	6813      	ldr	r3, [r2, #0]
 800704a:	1d19      	adds	r1, r3, #4
 800704c:	681b      	ldr	r3, [r3, #0]
 800704e:	6011      	str	r1, [r2, #0]
 8007050:	f104 0542 	add.w	r5, r4, #66	; 0x42
 8007054:	f884 3042 	strb.w	r3, [r4, #66]	; 0x42
 8007058:	2301      	movs	r3, #1
 800705a:	e08c      	b.n	8007176 <_printf_i+0x1be>
 800705c:	681b      	ldr	r3, [r3, #0]
 800705e:	6011      	str	r1, [r2, #0]
 8007060:	f010 0f40 	tst.w	r0, #64	; 0x40
 8007064:	bf18      	it	ne
 8007066:	b21b      	sxthne	r3, r3
 8007068:	e7cf      	b.n	800700a <_printf_i+0x52>
 800706a:	6813      	ldr	r3, [r2, #0]
 800706c:	6825      	ldr	r5, [r4, #0]
 800706e:	1d18      	adds	r0, r3, #4
 8007070:	6010      	str	r0, [r2, #0]
 8007072:	0628      	lsls	r0, r5, #24
 8007074:	d501      	bpl.n	800707a <_printf_i+0xc2>
 8007076:	681b      	ldr	r3, [r3, #0]
 8007078:	e002      	b.n	8007080 <_printf_i+0xc8>
 800707a:	0668      	lsls	r0, r5, #25
 800707c:	d5fb      	bpl.n	8007076 <_printf_i+0xbe>
 800707e:	881b      	ldrh	r3, [r3, #0]
 8007080:	4854      	ldr	r0, [pc, #336]	; (80071d4 <_printf_i+0x21c>)
 8007082:	296f      	cmp	r1, #111	; 0x6f
 8007084:	bf14      	ite	ne
 8007086:	220a      	movne	r2, #10
 8007088:	2208      	moveq	r2, #8
 800708a:	2100      	movs	r1, #0
 800708c:	f884 1043 	strb.w	r1, [r4, #67]	; 0x43
 8007090:	6865      	ldr	r5, [r4, #4]
 8007092:	60a5      	str	r5, [r4, #8]
 8007094:	2d00      	cmp	r5, #0
 8007096:	f2c0 8095 	blt.w	80071c4 <_printf_i+0x20c>
 800709a:	6821      	ldr	r1, [r4, #0]
 800709c:	f021 0104 	bic.w	r1, r1, #4
 80070a0:	6021      	str	r1, [r4, #0]
 80070a2:	2b00      	cmp	r3, #0
 80070a4:	d13d      	bne.n	8007122 <_printf_i+0x16a>
 80070a6:	2d00      	cmp	r5, #0
 80070a8:	f040 808e 	bne.w	80071c8 <_printf_i+0x210>
 80070ac:	4665      	mov	r5, ip
 80070ae:	2a08      	cmp	r2, #8
 80070b0:	d10b      	bne.n	80070ca <_printf_i+0x112>
 80070b2:	6823      	ldr	r3, [r4, #0]
 80070b4:	07db      	lsls	r3, r3, #31
 80070b6:	d508      	bpl.n	80070ca <_printf_i+0x112>
 80070b8:	6923      	ldr	r3, [r4, #16]
 80070ba:	6862      	ldr	r2, [r4, #4]
 80070bc:	429a      	cmp	r2, r3
 80070be:	bfde      	ittt	le
 80070c0:	2330      	movle	r3, #48	; 0x30
 80070c2:	f805 3c01 	strble.w	r3, [r5, #-1]
 80070c6:	f105 35ff 	addle.w	r5, r5, #4294967295
 80070ca:	ebac 0305 	sub.w	r3, ip, r5
 80070ce:	6123      	str	r3, [r4, #16]
 80070d0:	f8cd 8000 	str.w	r8, [sp]
 80070d4:	463b      	mov	r3, r7
 80070d6:	aa03      	add	r2, sp, #12
 80070d8:	4621      	mov	r1, r4
 80070da:	4630      	mov	r0, r6
 80070dc:	f7ff fef6 	bl	8006ecc <_printf_common>
 80070e0:	3001      	adds	r0, #1
 80070e2:	d14d      	bne.n	8007180 <_printf_i+0x1c8>
 80070e4:	f04f 30ff 	mov.w	r0, #4294967295
 80070e8:	b005      	add	sp, #20
 80070ea:	e8bd 83f0 	ldmia.w	sp!, {r4, r5, r6, r7, r8, r9, pc}
 80070ee:	4839      	ldr	r0, [pc, #228]	; (80071d4 <_printf_i+0x21c>)
 80070f0:	f884 1045 	strb.w	r1, [r4, #69]	; 0x45
 80070f4:	6813      	ldr	r3, [r2, #0]
 80070f6:	6821      	ldr	r1, [r4, #0]
 80070f8:	1d1d      	adds	r5, r3, #4
 80070fa:	681b      	ldr	r3, [r3, #0]
 80070fc:	6015      	str	r5, [r2, #0]
 80070fe:	060a      	lsls	r2, r1, #24
 8007100:	d50b      	bpl.n	800711a <_printf_i+0x162>
 8007102:	07ca      	lsls	r2, r1, #31
 8007104:	bf44      	itt	mi
 8007106:	f041 0120 	orrmi.w	r1, r1, #32
 800710a:	6021      	strmi	r1, [r4, #0]
 800710c:	b91b      	cbnz	r3, 8007116 <_printf_i+0x15e>
 800710e:	6822      	ldr	r2, [r4, #0]
 8007110:	f022 0220 	bic.w	r2, r2, #32
 8007114:	6022      	str	r2, [r4, #0]
 8007116:	2210      	movs	r2, #16
 8007118:	e7b7      	b.n	800708a <_printf_i+0xd2>
 800711a:	064d      	lsls	r5, r1, #25
 800711c:	bf48      	it	mi
 800711e:	b29b      	uxthmi	r3, r3
 8007120:	e7ef      	b.n	8007102 <_printf_i+0x14a>
 8007122:	4665      	mov	r5, ip
 8007124:	fbb3 f1f2 	udiv	r1, r3, r2
 8007128:	fb02 3311 	mls	r3, r2, r1, r3
 800712c:	5cc3      	ldrb	r3, [r0, r3]
 800712e:	f805 3d01 	strb.w	r3, [r5, #-1]!
 8007132:	460b      	mov	r3, r1
 8007134:	2900      	cmp	r1, #0
 8007136:	d1f5      	bne.n	8007124 <_printf_i+0x16c>
 8007138:	e7b9      	b.n	80070ae <_printf_i+0xf6>
 800713a:	6813      	ldr	r3, [r2, #0]
 800713c:	6825      	ldr	r5, [r4, #0]
 800713e:	6961      	ldr	r1, [r4, #20]
 8007140:	1d18      	adds	r0, r3, #4
 8007142:	6010      	str	r0, [r2, #0]
 8007144:	0628      	lsls	r0, r5, #24
 8007146:	681b      	ldr	r3, [r3, #0]
 8007148:	d501      	bpl.n	800714e <_printf_i+0x196>
 800714a:	6019      	str	r1, [r3, #0]
 800714c:	e002      	b.n	8007154 <_printf_i+0x19c>
 800714e:	066a      	lsls	r2, r5, #25
 8007150:	d5fb      	bpl.n	800714a <_printf_i+0x192>
 8007152:	8019      	strh	r1, [r3, #0]
 8007154:	2300      	movs	r3, #0
 8007156:	6123      	str	r3, [r4, #16]
 8007158:	4665      	mov	r5, ip
 800715a:	e7b9      	b.n	80070d0 <_printf_i+0x118>
 800715c:	6813      	ldr	r3, [r2, #0]
 800715e:	1d19      	adds	r1, r3, #4
 8007160:	6011      	str	r1, [r2, #0]
 8007162:	681d      	ldr	r5, [r3, #0]
 8007164:	6862      	ldr	r2, [r4, #4]
 8007166:	2100      	movs	r1, #0
 8007168:	4628      	mov	r0, r5
 800716a:	f7f9 f8b9 	bl	80002e0 <memchr>
 800716e:	b108      	cbz	r0, 8007174 <_printf_i+0x1bc>
 8007170:	1b40      	subs	r0, r0, r5
 8007172:	6060      	str	r0, [r4, #4]
 8007174:	6863      	ldr	r3, [r4, #4]
 8007176:	6123      	str	r3, [r4, #16]
 8007178:	2300      	movs	r3, #0
 800717a:	f884 3043 	strb.w	r3, [r4, #67]	; 0x43
 800717e:	e7a7      	b.n	80070d0 <_printf_i+0x118>
 8007180:	6923      	ldr	r3, [r4, #16]
 8007182:	462a      	mov	r2, r5
 8007184:	4639      	mov	r1, r7
 8007186:	4630      	mov	r0, r6
 8007188:	47c0      	blx	r8
 800718a:	3001      	adds	r0, #1
 800718c:	d0aa      	beq.n	80070e4 <_printf_i+0x12c>
 800718e:	6823      	ldr	r3, [r4, #0]
 8007190:	079b      	lsls	r3, r3, #30
 8007192:	d413      	bmi.n	80071bc <_printf_i+0x204>
 8007194:	68e0      	ldr	r0, [r4, #12]
 8007196:	9b03      	ldr	r3, [sp, #12]
 8007198:	4298      	cmp	r0, r3
 800719a:	bfb8      	it	lt
 800719c:	4618      	movlt	r0, r3
 800719e:	e7a3      	b.n	80070e8 <_printf_i+0x130>
 80071a0:	2301      	movs	r3, #1
 80071a2:	464a      	mov	r2, r9
 80071a4:	4639      	mov	r1, r7
 80071a6:	4630      	mov	r0, r6
 80071a8:	47c0      	blx	r8
 80071aa:	3001      	adds	r0, #1
 80071ac:	d09a      	beq.n	80070e4 <_printf_i+0x12c>
 80071ae:	3501      	adds	r5, #1
 80071b0:	68e3      	ldr	r3, [r4, #12]
 80071b2:	9a03      	ldr	r2, [sp, #12]
 80071b4:	1a9b      	subs	r3, r3, r2
 80071b6:	42ab      	cmp	r3, r5
 80071b8:	dcf2      	bgt.n	80071a0 <_printf_i+0x1e8>
 80071ba:	e7eb      	b.n	8007194 <_printf_i+0x1dc>
 80071bc:	2500      	movs	r5, #0
 80071be:	f104 0919 	add.w	r9, r4, #25
 80071c2:	e7f5      	b.n	80071b0 <_printf_i+0x1f8>
 80071c4:	2b00      	cmp	r3, #0
 80071c6:	d1ac      	bne.n	8007122 <_printf_i+0x16a>
 80071c8:	7803      	ldrb	r3, [r0, #0]
 80071ca:	f884 3042 	strb.w	r3, [r4, #66]	; 0x42
 80071ce:	f104 0542 	add.w	r5, r4, #66	; 0x42
 80071d2:	e76c      	b.n	80070ae <_printf_i+0xf6>
 80071d4:	08007685 	.word	0x08007685
 80071d8:	08007696 	.word	0x08007696

080071dc <_putc_r>:
 80071dc:	b570      	push	{r4, r5, r6, lr}
 80071de:	460d      	mov	r5, r1
 80071e0:	4614      	mov	r4, r2
 80071e2:	4606      	mov	r6, r0
 80071e4:	b118      	cbz	r0, 80071ee <_putc_r+0x12>
 80071e6:	6983      	ldr	r3, [r0, #24]
 80071e8:	b90b      	cbnz	r3, 80071ee <_putc_r+0x12>
 80071ea:	f7ff fb91 	bl	8006910 <__sinit>
 80071ee:	4b13      	ldr	r3, [pc, #76]	; (800723c <_putc_r+0x60>)
 80071f0:	429c      	cmp	r4, r3
 80071f2:	d112      	bne.n	800721a <_putc_r+0x3e>
 80071f4:	6874      	ldr	r4, [r6, #4]
 80071f6:	68a3      	ldr	r3, [r4, #8]
 80071f8:	3b01      	subs	r3, #1
 80071fa:	2b00      	cmp	r3, #0
 80071fc:	60a3      	str	r3, [r4, #8]
 80071fe:	da16      	bge.n	800722e <_putc_r+0x52>
 8007200:	69a2      	ldr	r2, [r4, #24]
 8007202:	4293      	cmp	r3, r2
 8007204:	db02      	blt.n	800720c <_putc_r+0x30>
 8007206:	b2eb      	uxtb	r3, r5
 8007208:	2b0a      	cmp	r3, #10
 800720a:	d110      	bne.n	800722e <_putc_r+0x52>
 800720c:	4622      	mov	r2, r4
 800720e:	4629      	mov	r1, r5
 8007210:	4630      	mov	r0, r6
 8007212:	e8bd 4070 	ldmia.w	sp!, {r4, r5, r6, lr}
 8007216:	f000 b86b 	b.w	80072f0 <__swbuf_r>
 800721a:	4b09      	ldr	r3, [pc, #36]	; (8007240 <_putc_r+0x64>)
 800721c:	429c      	cmp	r4, r3
 800721e:	d101      	bne.n	8007224 <_putc_r+0x48>
 8007220:	68b4      	ldr	r4, [r6, #8]
 8007222:	e7e8      	b.n	80071f6 <_putc_r+0x1a>
 8007224:	4b07      	ldr	r3, [pc, #28]	; (8007244 <_putc_r+0x68>)
 8007226:	429c      	cmp	r4, r3
 8007228:	bf08      	it	eq
 800722a:	68f4      	ldreq	r4, [r6, #12]
 800722c:	e7e3      	b.n	80071f6 <_putc_r+0x1a>
 800722e:	6823      	ldr	r3, [r4, #0]
 8007230:	1c5a      	adds	r2, r3, #1
 8007232:	6022      	str	r2, [r4, #0]
 8007234:	701d      	strb	r5, [r3, #0]
 8007236:	b2e8      	uxtb	r0, r5
 8007238:	bd70      	pop	{r4, r5, r6, pc}
 800723a:	bf00      	nop
 800723c:	08007634 	.word	0x08007634
 8007240:	08007654 	.word	0x08007654
 8007244:	08007614 	.word	0x08007614

08007248 <_sbrk_r>:
 8007248:	b538      	push	{r3, r4, r5, lr}
 800724a:	4c06      	ldr	r4, [pc, #24]	; (8007264 <_sbrk_r+0x1c>)
 800724c:	2300      	movs	r3, #0
 800724e:	4605      	mov	r5, r0
 8007250:	4608      	mov	r0, r1
 8007252:	6023      	str	r3, [r4, #0]
 8007254:	f7f9 fefa 	bl	800104c <_sbrk>
 8007258:	1c43      	adds	r3, r0, #1
 800725a:	d102      	bne.n	8007262 <_sbrk_r+0x1a>
 800725c:	6823      	ldr	r3, [r4, #0]
 800725e:	b103      	cbz	r3, 8007262 <_sbrk_r+0x1a>
 8007260:	602b      	str	r3, [r5, #0]
 8007262:	bd38      	pop	{r3, r4, r5, pc}
 8007264:	24000264 	.word	0x24000264

08007268 <__sread>:
 8007268:	b510      	push	{r4, lr}
 800726a:	460c      	mov	r4, r1
 800726c:	f9b1 100e 	ldrsh.w	r1, [r1, #14]
 8007270:	f000 f956 	bl	8007520 <_read_r>
 8007274:	2800      	cmp	r0, #0
 8007276:	bfab      	itete	ge
 8007278:	6d63      	ldrge	r3, [r4, #84]	; 0x54
 800727a:	89a3      	ldrhlt	r3, [r4, #12]
 800727c:	181b      	addge	r3, r3, r0
 800727e:	f423 5380 	biclt.w	r3, r3, #4096	; 0x1000
 8007282:	bfac      	ite	ge
 8007284:	6563      	strge	r3, [r4, #84]	; 0x54
 8007286:	81a3      	strhlt	r3, [r4, #12]
 8007288:	bd10      	pop	{r4, pc}

0800728a <__swrite>:
 800728a:	e92d 41f0 	stmdb	sp!, {r4, r5, r6, r7, r8, lr}
 800728e:	461f      	mov	r7, r3
 8007290:	898b      	ldrh	r3, [r1, #12]
 8007292:	05db      	lsls	r3, r3, #23
 8007294:	4605      	mov	r5, r0
 8007296:	460c      	mov	r4, r1
 8007298:	4616      	mov	r6, r2
 800729a:	d505      	bpl.n	80072a8 <__swrite+0x1e>
 800729c:	2302      	movs	r3, #2
 800729e:	2200      	movs	r2, #0
 80072a0:	f9b1 100e 	ldrsh.w	r1, [r1, #14]
 80072a4:	f000 f928 	bl	80074f8 <_lseek_r>
 80072a8:	89a3      	ldrh	r3, [r4, #12]
 80072aa:	f9b4 100e 	ldrsh.w	r1, [r4, #14]
 80072ae:	f423 5380 	bic.w	r3, r3, #4096	; 0x1000
 80072b2:	81a3      	strh	r3, [r4, #12]
 80072b4:	4632      	mov	r2, r6
 80072b6:	463b      	mov	r3, r7
 80072b8:	4628      	mov	r0, r5
 80072ba:	e8bd 41f0 	ldmia.w	sp!, {r4, r5, r6, r7, r8, lr}
 80072be:	f000 b869 	b.w	8007394 <_write_r>

080072c2 <__sseek>:
 80072c2:	b510      	push	{r4, lr}
 80072c4:	460c      	mov	r4, r1
 80072c6:	f9b1 100e 	ldrsh.w	r1, [r1, #14]
 80072ca:	f000 f915 	bl	80074f8 <_lseek_r>
 80072ce:	1c43      	adds	r3, r0, #1
 80072d0:	89a3      	ldrh	r3, [r4, #12]
 80072d2:	bf15      	itete	ne
 80072d4:	6560      	strne	r0, [r4, #84]	; 0x54
 80072d6:	f423 5380 	biceq.w	r3, r3, #4096	; 0x1000
 80072da:	f443 5380 	orrne.w	r3, r3, #4096	; 0x1000
 80072de:	81a3      	strheq	r3, [r4, #12]
 80072e0:	bf18      	it	ne
 80072e2:	81a3      	strhne	r3, [r4, #12]
 80072e4:	bd10      	pop	{r4, pc}

080072e6 <__sclose>:
 80072e6:	f9b1 100e 	ldrsh.w	r1, [r1, #14]
 80072ea:	f000 b8d3 	b.w	8007494 <_close_r>
	...

080072f0 <__swbuf_r>:
 80072f0:	b5f8      	push	{r3, r4, r5, r6, r7, lr}
 80072f2:	460e      	mov	r6, r1
 80072f4:	4614      	mov	r4, r2
 80072f6:	4605      	mov	r5, r0
 80072f8:	b118      	cbz	r0, 8007302 <__swbuf_r+0x12>
 80072fa:	6983      	ldr	r3, [r0, #24]
 80072fc:	b90b      	cbnz	r3, 8007302 <__swbuf_r+0x12>
 80072fe:	f7ff fb07 	bl	8006910 <__sinit>
 8007302:	4b21      	ldr	r3, [pc, #132]	; (8007388 <__swbuf_r+0x98>)
 8007304:	429c      	cmp	r4, r3
 8007306:	d12a      	bne.n	800735e <__swbuf_r+0x6e>
 8007308:	686c      	ldr	r4, [r5, #4]
 800730a:	69a3      	ldr	r3, [r4, #24]
 800730c:	60a3      	str	r3, [r4, #8]
 800730e:	89a3      	ldrh	r3, [r4, #12]
 8007310:	071a      	lsls	r2, r3, #28
 8007312:	d52e      	bpl.n	8007372 <__swbuf_r+0x82>
 8007314:	6923      	ldr	r3, [r4, #16]
 8007316:	b363      	cbz	r3, 8007372 <__swbuf_r+0x82>
 8007318:	6923      	ldr	r3, [r4, #16]
 800731a:	6820      	ldr	r0, [r4, #0]
 800731c:	1ac0      	subs	r0, r0, r3
 800731e:	6963      	ldr	r3, [r4, #20]
 8007320:	b2f6      	uxtb	r6, r6
 8007322:	4283      	cmp	r3, r0
 8007324:	4637      	mov	r7, r6
 8007326:	dc04      	bgt.n	8007332 <__swbuf_r+0x42>
 8007328:	4621      	mov	r1, r4
 800732a:	4628      	mov	r0, r5
 800732c:	f7ff fa86 	bl	800683c <_fflush_r>
 8007330:	bb28      	cbnz	r0, 800737e <__swbuf_r+0x8e>
 8007332:	68a3      	ldr	r3, [r4, #8]
 8007334:	3b01      	subs	r3, #1
 8007336:	60a3      	str	r3, [r4, #8]
 8007338:	6823      	ldr	r3, [r4, #0]
 800733a:	1c5a      	adds	r2, r3, #1
 800733c:	6022      	str	r2, [r4, #0]
 800733e:	701e      	strb	r6, [r3, #0]
 8007340:	6963      	ldr	r3, [r4, #20]
 8007342:	3001      	adds	r0, #1
 8007344:	4283      	cmp	r3, r0
 8007346:	d004      	beq.n	8007352 <__swbuf_r+0x62>
 8007348:	89a3      	ldrh	r3, [r4, #12]
 800734a:	07db      	lsls	r3, r3, #31
 800734c:	d519      	bpl.n	8007382 <__swbuf_r+0x92>
 800734e:	2e0a      	cmp	r6, #10
 8007350:	d117      	bne.n	8007382 <__swbuf_r+0x92>
 8007352:	4621      	mov	r1, r4
 8007354:	4628      	mov	r0, r5
 8007356:	f7ff fa71 	bl	800683c <_fflush_r>
 800735a:	b190      	cbz	r0, 8007382 <__swbuf_r+0x92>
 800735c:	e00f      	b.n	800737e <__swbuf_r+0x8e>
 800735e:	4b0b      	ldr	r3, [pc, #44]	; (800738c <__swbuf_r+0x9c>)
 8007360:	429c      	cmp	r4, r3
 8007362:	d101      	bne.n	8007368 <__swbuf_r+0x78>
 8007364:	68ac      	ldr	r4, [r5, #8]
 8007366:	e7d0      	b.n	800730a <__swbuf_r+0x1a>
 8007368:	4b09      	ldr	r3, [pc, #36]	; (8007390 <__swbuf_r+0xa0>)
 800736a:	429c      	cmp	r4, r3
 800736c:	bf08      	it	eq
 800736e:	68ec      	ldreq	r4, [r5, #12]
 8007370:	e7cb      	b.n	800730a <__swbuf_r+0x1a>
 8007372:	4621      	mov	r1, r4
 8007374:	4628      	mov	r0, r5
 8007376:	f000 f81f 	bl	80073b8 <__swsetup_r>
 800737a:	2800      	cmp	r0, #0
 800737c:	d0cc      	beq.n	8007318 <__swbuf_r+0x28>
 800737e:	f04f 37ff 	mov.w	r7, #4294967295
 8007382:	4638      	mov	r0, r7
 8007384:	bdf8      	pop	{r3, r4, r5, r6, r7, pc}
 8007386:	bf00      	nop
 8007388:	08007634 	.word	0x08007634
 800738c:	08007654 	.word	0x08007654
 8007390:	08007614 	.word	0x08007614

08007394 <_write_r>:
 8007394:	b538      	push	{r3, r4, r5, lr}
 8007396:	4c07      	ldr	r4, [pc, #28]	; (80073b4 <_write_r+0x20>)
 8007398:	4605      	mov	r5, r0
 800739a:	4608      	mov	r0, r1
 800739c:	4611      	mov	r1, r2
 800739e:	2200      	movs	r2, #0
 80073a0:	6022      	str	r2, [r4, #0]
 80073a2:	461a      	mov	r2, r3
 80073a4:	f7f9 fccc 	bl	8000d40 <_write>
 80073a8:	1c43      	adds	r3, r0, #1
 80073aa:	d102      	bne.n	80073b2 <_write_r+0x1e>
 80073ac:	6823      	ldr	r3, [r4, #0]
 80073ae:	b103      	cbz	r3, 80073b2 <_write_r+0x1e>
 80073b0:	602b      	str	r3, [r5, #0]
 80073b2:	bd38      	pop	{r3, r4, r5, pc}
 80073b4:	24000264 	.word	0x24000264

080073b8 <__swsetup_r>:
 80073b8:	4b32      	ldr	r3, [pc, #200]	; (8007484 <__swsetup_r+0xcc>)
 80073ba:	b570      	push	{r4, r5, r6, lr}
 80073bc:	681d      	ldr	r5, [r3, #0]
 80073be:	4606      	mov	r6, r0
 80073c0:	460c      	mov	r4, r1
 80073c2:	b125      	cbz	r5, 80073ce <__swsetup_r+0x16>
 80073c4:	69ab      	ldr	r3, [r5, #24]
 80073c6:	b913      	cbnz	r3, 80073ce <__swsetup_r+0x16>
 80073c8:	4628      	mov	r0, r5
 80073ca:	f7ff faa1 	bl	8006910 <__sinit>
 80073ce:	4b2e      	ldr	r3, [pc, #184]	; (8007488 <__swsetup_r+0xd0>)
 80073d0:	429c      	cmp	r4, r3
 80073d2:	d10f      	bne.n	80073f4 <__swsetup_r+0x3c>
 80073d4:	686c      	ldr	r4, [r5, #4]
 80073d6:	f9b4 300c 	ldrsh.w	r3, [r4, #12]
 80073da:	b29a      	uxth	r2, r3
 80073dc:	0715      	lsls	r5, r2, #28
 80073de:	d42c      	bmi.n	800743a <__swsetup_r+0x82>
 80073e0:	06d0      	lsls	r0, r2, #27
 80073e2:	d411      	bmi.n	8007408 <__swsetup_r+0x50>
 80073e4:	2209      	movs	r2, #9
 80073e6:	6032      	str	r2, [r6, #0]
 80073e8:	f043 0340 	orr.w	r3, r3, #64	; 0x40
 80073ec:	81a3      	strh	r3, [r4, #12]
 80073ee:	f04f 30ff 	mov.w	r0, #4294967295
 80073f2:	e03e      	b.n	8007472 <__swsetup_r+0xba>
 80073f4:	4b25      	ldr	r3, [pc, #148]	; (800748c <__swsetup_r+0xd4>)
 80073f6:	429c      	cmp	r4, r3
 80073f8:	d101      	bne.n	80073fe <__swsetup_r+0x46>
 80073fa:	68ac      	ldr	r4, [r5, #8]
 80073fc:	e7eb      	b.n	80073d6 <__swsetup_r+0x1e>
 80073fe:	4b24      	ldr	r3, [pc, #144]	; (8007490 <__swsetup_r+0xd8>)
 8007400:	429c      	cmp	r4, r3
 8007402:	bf08      	it	eq
 8007404:	68ec      	ldreq	r4, [r5, #12]
 8007406:	e7e6      	b.n	80073d6 <__swsetup_r+0x1e>
 8007408:	0751      	lsls	r1, r2, #29
 800740a:	d512      	bpl.n	8007432 <__swsetup_r+0x7a>
 800740c:	6b61      	ldr	r1, [r4, #52]	; 0x34
 800740e:	b141      	cbz	r1, 8007422 <__swsetup_r+0x6a>
 8007410:	f104 0344 	add.w	r3, r4, #68	; 0x44
 8007414:	4299      	cmp	r1, r3
 8007416:	d002      	beq.n	800741e <__swsetup_r+0x66>
 8007418:	4630      	mov	r0, r6
 800741a:	f7ff fb6f 	bl	8006afc <_free_r>
 800741e:	2300      	movs	r3, #0
 8007420:	6363      	str	r3, [r4, #52]	; 0x34
 8007422:	89a3      	ldrh	r3, [r4, #12]
 8007424:	f023 0324 	bic.w	r3, r3, #36	; 0x24
 8007428:	81a3      	strh	r3, [r4, #12]
 800742a:	2300      	movs	r3, #0
 800742c:	6063      	str	r3, [r4, #4]
 800742e:	6923      	ldr	r3, [r4, #16]
 8007430:	6023      	str	r3, [r4, #0]
 8007432:	89a3      	ldrh	r3, [r4, #12]
 8007434:	f043 0308 	orr.w	r3, r3, #8
 8007438:	81a3      	strh	r3, [r4, #12]
 800743a:	6923      	ldr	r3, [r4, #16]
 800743c:	b94b      	cbnz	r3, 8007452 <__swsetup_r+0x9a>
 800743e:	89a3      	ldrh	r3, [r4, #12]
 8007440:	f403 7320 	and.w	r3, r3, #640	; 0x280
 8007444:	f5b3 7f00 	cmp.w	r3, #512	; 0x200
 8007448:	d003      	beq.n	8007452 <__swsetup_r+0x9a>
 800744a:	4621      	mov	r1, r4
 800744c:	4630      	mov	r0, r6
 800744e:	f7ff fb0d 	bl	8006a6c <__smakebuf_r>
 8007452:	89a2      	ldrh	r2, [r4, #12]
 8007454:	f012 0301 	ands.w	r3, r2, #1
 8007458:	d00c      	beq.n	8007474 <__swsetup_r+0xbc>
 800745a:	2300      	movs	r3, #0
 800745c:	60a3      	str	r3, [r4, #8]
 800745e:	6963      	ldr	r3, [r4, #20]
 8007460:	425b      	negs	r3, r3
 8007462:	61a3      	str	r3, [r4, #24]
 8007464:	6923      	ldr	r3, [r4, #16]
 8007466:	b953      	cbnz	r3, 800747e <__swsetup_r+0xc6>
 8007468:	f9b4 300c 	ldrsh.w	r3, [r4, #12]
 800746c:	f013 0080 	ands.w	r0, r3, #128	; 0x80
 8007470:	d1ba      	bne.n	80073e8 <__swsetup_r+0x30>
 8007472:	bd70      	pop	{r4, r5, r6, pc}
 8007474:	0792      	lsls	r2, r2, #30
 8007476:	bf58      	it	pl
 8007478:	6963      	ldrpl	r3, [r4, #20]
 800747a:	60a3      	str	r3, [r4, #8]
 800747c:	e7f2      	b.n	8007464 <__swsetup_r+0xac>
 800747e:	2000      	movs	r0, #0
 8007480:	e7f7      	b.n	8007472 <__swsetup_r+0xba>
 8007482:	bf00      	nop
 8007484:	24000010 	.word	0x24000010
 8007488:	08007634 	.word	0x08007634
 800748c:	08007654 	.word	0x08007654
 8007490:	08007614 	.word	0x08007614

08007494 <_close_r>:
 8007494:	b538      	push	{r3, r4, r5, lr}
 8007496:	4c06      	ldr	r4, [pc, #24]	; (80074b0 <_close_r+0x1c>)
 8007498:	2300      	movs	r3, #0
 800749a:	4605      	mov	r5, r0
 800749c:	4608      	mov	r0, r1
 800749e:	6023      	str	r3, [r4, #0]
 80074a0:	f7f9 fc7a 	bl	8000d98 <_close>
 80074a4:	1c43      	adds	r3, r0, #1
 80074a6:	d102      	bne.n	80074ae <_close_r+0x1a>
 80074a8:	6823      	ldr	r3, [r4, #0]
 80074aa:	b103      	cbz	r3, 80074ae <_close_r+0x1a>
 80074ac:	602b      	str	r3, [r5, #0]
 80074ae:	bd38      	pop	{r3, r4, r5, pc}
 80074b0:	24000264 	.word	0x24000264

080074b4 <_fstat_r>:
 80074b4:	b538      	push	{r3, r4, r5, lr}
 80074b6:	4c07      	ldr	r4, [pc, #28]	; (80074d4 <_fstat_r+0x20>)
 80074b8:	2300      	movs	r3, #0
 80074ba:	4605      	mov	r5, r0
 80074bc:	4608      	mov	r0, r1
 80074be:	4611      	mov	r1, r2
 80074c0:	6023      	str	r3, [r4, #0]
 80074c2:	f7f9 fcb9 	bl	8000e38 <_fstat>
 80074c6:	1c43      	adds	r3, r0, #1
 80074c8:	d102      	bne.n	80074d0 <_fstat_r+0x1c>
 80074ca:	6823      	ldr	r3, [r4, #0]
 80074cc:	b103      	cbz	r3, 80074d0 <_fstat_r+0x1c>
 80074ce:	602b      	str	r3, [r5, #0]
 80074d0:	bd38      	pop	{r3, r4, r5, pc}
 80074d2:	bf00      	nop
 80074d4:	24000264 	.word	0x24000264

080074d8 <_isatty_r>:
 80074d8:	b538      	push	{r3, r4, r5, lr}
 80074da:	4c06      	ldr	r4, [pc, #24]	; (80074f4 <_isatty_r+0x1c>)
 80074dc:	2300      	movs	r3, #0
 80074de:	4605      	mov	r5, r0
 80074e0:	4608      	mov	r0, r1
 80074e2:	6023      	str	r3, [r4, #0]
 80074e4:	f7f9 fc16 	bl	8000d14 <_isatty>
 80074e8:	1c43      	adds	r3, r0, #1
 80074ea:	d102      	bne.n	80074f2 <_isatty_r+0x1a>
 80074ec:	6823      	ldr	r3, [r4, #0]
 80074ee:	b103      	cbz	r3, 80074f2 <_isatty_r+0x1a>
 80074f0:	602b      	str	r3, [r5, #0]
 80074f2:	bd38      	pop	{r3, r4, r5, pc}
 80074f4:	24000264 	.word	0x24000264

080074f8 <_lseek_r>:
 80074f8:	b538      	push	{r3, r4, r5, lr}
 80074fa:	4c07      	ldr	r4, [pc, #28]	; (8007518 <_lseek_r+0x20>)
 80074fc:	4605      	mov	r5, r0
 80074fe:	4608      	mov	r0, r1
 8007500:	4611      	mov	r1, r2
 8007502:	2200      	movs	r2, #0
 8007504:	6022      	str	r2, [r4, #0]
 8007506:	461a      	mov	r2, r3
 8007508:	f7f9 fc5d 	bl	8000dc6 <_lseek>
 800750c:	1c43      	adds	r3, r0, #1
 800750e:	d102      	bne.n	8007516 <_lseek_r+0x1e>
 8007510:	6823      	ldr	r3, [r4, #0]
 8007512:	b103      	cbz	r3, 8007516 <_lseek_r+0x1e>
 8007514:	602b      	str	r3, [r5, #0]
 8007516:	bd38      	pop	{r3, r4, r5, pc}
 8007518:	24000264 	.word	0x24000264

0800751c <__malloc_lock>:
 800751c:	4770      	bx	lr

0800751e <__malloc_unlock>:
 800751e:	4770      	bx	lr

08007520 <_read_r>:
 8007520:	b538      	push	{r3, r4, r5, lr}
 8007522:	4c07      	ldr	r4, [pc, #28]	; (8007540 <_read_r+0x20>)
 8007524:	4605      	mov	r5, r0
 8007526:	4608      	mov	r0, r1
 8007528:	4611      	mov	r1, r2
 800752a:	2200      	movs	r2, #0
 800752c:	6022      	str	r2, [r4, #0]
 800752e:	461a      	mov	r2, r3
 8007530:	f7f9 fc5a 	bl	8000de8 <_read>
 8007534:	1c43      	adds	r3, r0, #1
 8007536:	d102      	bne.n	800753e <_read_r+0x1e>
 8007538:	6823      	ldr	r3, [r4, #0]
 800753a:	b103      	cbz	r3, 800753e <_read_r+0x1e>
 800753c:	602b      	str	r3, [r5, #0]
 800753e:	bd38      	pop	{r3, r4, r5, pc}
 8007540:	24000264 	.word	0x24000264

08007544 <_init>:
 8007544:	b5f8      	push	{r3, r4, r5, r6, r7, lr}
 8007546:	bf00      	nop
 8007548:	bcf8      	pop	{r3, r4, r5, r6, r7}
 800754a:	bc08      	pop	{r3}
 800754c:	469e      	mov	lr, r3
 800754e:	4770      	bx	lr

08007550 <_fini>:
 8007550:	b5f8      	push	{r3, r4, r5, r6, r7, lr}
 8007552:	bf00      	nop
 8007554:	bcf8      	pop	{r3, r4, r5, r6, r7}
 8007556:	bc08      	pop	{r3}
 8007558:	469e      	mov	lr, r3
 800755a:	4770      	bx	lr
